

Microchip MPLAB XC8 Assembler V2.41 build 20230208172133 
                                                                                               Fri May 03 13:09:40 2024

Microchip MPLAB XC8 C Compiler v2.41 (Free license) build 20230208172133 Og1 
     1                           	processor	18F46K22
     2                           	fnconf	rparam,??,?,0
     3                           	pagewidth 120
     4                           	opt	flic
     5                           	psect	idataCOMRAM,global,class=CODE,delta=1,noexec
     6                           	psect	mediumconst,global,reloc=2,class=MEDIUMCONST,delta=1,noexec
     7                           	psect	cinit,global,reloc=2,class=CODE,delta=1
     8                           	psect	bssCOMRAM,global,class=COMRAM,space=1,delta=1,lowdata,noexec
     9                           	psect	dataCOMRAM,global,class=COMRAM,space=1,delta=1,lowdata,noexec
    10                           	psect	bssBANK0,global,class=BANK0,space=1,delta=1,lowdata,noexec
    11                           	psect	cstackBANK0,global,class=BANK0,space=1,delta=1,lowdata,noexec
    12                           	psect	cstackCOMRAM,global,class=COMRAM,space=1,delta=1,lowdata,noexec
    13                           	psect	text0,global,reloc=2,class=CODE,delta=1
    14                           	psect	text1,global,reloc=2,class=CODE,delta=1
    15                           	psect	text2,global,reloc=2,class=CODE,delta=1
    16                           	psect	text3,global,reloc=2,class=CODE,delta=1
    17                           	psect	text4,global,reloc=2,class=CODE,delta=1
    18                           	psect	text5,global,reloc=2,class=CODE,delta=1
    19                           	psect	text6,global,reloc=2,class=CODE,delta=1
    20                           	psect	text7,global,reloc=2,class=CODE,delta=1
    21                           	psect	text8,global,reloc=2,class=CODE,delta=1
    22                           	psect	text9,global,reloc=2,class=CODE,delta=1
    23                           	psect	text10,global,reloc=2,class=CODE,delta=1
    24                           	psect	text11,global,reloc=2,class=CODE,delta=1
    25                           	psect	text12,global,reloc=2,class=CODE,delta=1
    26                           	psect	text13,global,reloc=2,class=CODE,delta=1
    27                           	psect	text14,global,reloc=2,class=CODE,delta=1
    28                           	psect	text15,global,reloc=2,class=CODE,delta=1
    29                           	psect	text16,global,reloc=2,class=CODE,delta=1
    30                           	psect	text17,global,reloc=2,class=CODE,delta=1
    31                           	psect	text18,global,reloc=2,class=CODE,delta=1
    32                           	psect	text19,global,reloc=2,class=CODE,delta=1,group=3
    33                           	psect	text20,global,reloc=2,class=CODE,delta=1
    34                           	psect	text21,global,reloc=2,class=CODE,delta=1,group=2
    35                           	psect	text22,global,reloc=2,class=CODE,delta=1
    36                           	psect	text23,global,reloc=2,class=CODE,delta=1,group=3
    37                           	psect	text24,global,reloc=2,class=CODE,delta=1,group=1
    38                           	psect	text25,global,reloc=2,class=CODE,delta=1,group=1
    39                           	psect	text26,global,reloc=2,class=CODE,delta=1,group=3
    40                           	psect	text27,global,reloc=2,class=CODE,delta=1,group=1
    41                           	psect	text28,global,reloc=2,class=CODE,delta=1,group=3
    42                           	psect	text29,global,reloc=2,class=CODE,delta=1,group=1
    43                           	psect	text30,global,reloc=2,class=CODE,delta=1,group=1
    44                           	psect	text31,global,reloc=2,class=CODE,delta=1,group=3
    45                           	psect	text32,global,reloc=2,class=CODE,delta=1,group=1
    46                           	psect	text33,global,reloc=2,class=CODE,delta=1,group=3
    47                           	psect	text34,global,reloc=2,class=CODE,delta=1,group=3
    48                           	psect	text35,global,reloc=2,class=CODE,delta=1
    49                           	psect	text36,global,reloc=2,class=CODE,delta=1,group=3
    50                           	psect	text37,global,reloc=2,class=CODE,delta=1,group=3
    51                           	psect	text38,global,reloc=2,class=CODE,delta=1,group=3
    52                           	psect	text39,global,reloc=2,class=CODE,delta=1,group=3
    53                           	psect	text40,global,reloc=2,class=CODE,delta=1,group=2
    54                           	psect	text41,global,reloc=2,class=CODE,delta=1,group=2
    55                           	psect	text42,global,reloc=2,class=CODE,delta=1,group=2
    56                           	psect	text43,global,reloc=2,class=CODE,delta=1,group=2
    57                           	psect	text44,global,reloc=2,class=CODE,delta=1,group=2
    58                           	psect	text45,global,reloc=2,class=CODE,delta=1,group=2
    59                           	psect	text46,global,reloc=2,class=CODE,delta=1,group=2
    60                           	psect	text47,global,reloc=2,class=CODE,delta=1,group=2
    61                           	psect	text48,global,reloc=2,class=CODE,delta=1
    62                           	psect	text49,global,reloc=2,class=CODE,delta=1
    63                           	psect	text50,global,reloc=2,class=CODE,delta=1
    64                           	psect	intcodelo,global,reloc=2,class=CODE,delta=1
    65                           	psect	text52,global,reloc=2,class=CODE,delta=1
    66                           	psect	text53,global,reloc=2,class=CODE,delta=1
    67                           	psect	intcode,global,reloc=2,class=CODE,delta=1
    68                           	psect	intcode_body,global,reloc=2,class=CODE,delta=1
    69                           	psect	text55,global,reloc=2,class=CODE,delta=1
    70                           	psect	intsave_regs,global,class=BIGRAM,space=1,delta=1,noexec
    71                           	psect	text56,global,reloc=2,class=CODE,delta=1
    72                           	psect	rparam,global,class=COMRAM,space=1,delta=1,noexec
    73                           	psect	temp,global,ovrld,common,class=COMRAM,space=1,delta=1
    74                           	psect	idloc,global,abs,ovrld,class=IDLOC,space=5,delta=1,noexec
    75                           	psect	config,global,abs,ovrld,class=CONFIG,space=4,delta=1,noexec
    76   000000                     
    77                           ; Generated 12/10/2023 GMT
    78                           ; 
    79                           ; Copyright © 2023, Microchip Technology Inc. and its subsidiaries ("Microchip")
    80                           ; All rights reserved.
    81                           ; 
    82                           ; This software is developed by Microchip Technology Inc. and its subsidiaries ("Microch
      +                          ip").
    83                           ; 
    84                           ; Redistribution and use in source and binary forms, with or without modification, are
    85                           ; permitted provided that the following conditions are met:
    86                           ; 
    87                           ;     1. Redistributions of source code must retain the above copyright notice, this lis
      +                          t of
    88                           ;        conditions and the following disclaimer.
    89                           ; 
    90                           ;     2. Redistributions in binary form must reproduce the above copyright notice, this 
      +                          list
    91                           ;        of conditions and the following disclaimer in the documentation and/or other
    92                           ;        materials provided with the distribution. Publication is not required when
    93                           ;        this file is used in an embedded application.
    94                           ; 
    95                           ;     3. Microchip's name may not be used to endorse or promote products derived from th
      +                          is
    96                           ;        software without specific prior written permission.
    97                           ; 
    98                           ; THIS SOFTWARE IS PROVIDED BY MICROCHIP "AS IS" AND ANY EXPRESS OR IMPLIED WARRANTIES,
    99                           ; INCLUDING, BUT NOT LIMITED TO, THE IMPLIED WARRANTIES OF MERCHANTABILITY AND FITNESS F
      +                          OR
   100                           ; PURPOSE ARE DISCLAIMED.  IN NO EVENT SHALL MICROCHIP BE LIABLE FOR ANY DIRECT, INDIREC
      +                          T,
   101                           ; INCIDENTAL, SPECIAL, EXEMPLARY, OR CONSEQUENTIAL DAMAGES (INCLUDING BUT NOT LIMITED TO
   102                           ; PROCUREMENT OF SUBSTITUTE GOODS OR SERVICES; LOSS OF USE, DATA OR PROFITS; OR BUSINESS
   103                           ; INTERRUPTION) HOWSOEVER CAUSED AND ON ANY THEORY OF LIABILITY, WHETHER IN CONTRACT, ST
      +                          RICT
   104                           ; LIABILITY, OR TORT (INCLUDING NEGLIGENCE OR OTHERWISE) ARISING IN ANY WAY OUT OF THE U
      +                          SE OF
   105                           ; THIS SOFTWARE, EVEN IF ADVISED OF THE POSSIBILITY OF SUCH DAMAGE.
   106                           ; 
   107                           ; 
   108                           ; Code-generator required, PIC18F46K22 Definitions
   109                           ; 
   110                           ; SFR Addresses
   111   000000                     
   112 ;;_fsm	offset	0
   113 ;;_event	offset	2
   114 ;;_fsm	offset=-2 (param)
   115 ;;_init_state	offset=-4 (param)
   116 ;;_out	offset=-2 (param)
   117 ;;_tmp	offset	0
   118 ;;_queue	offset=-2 (param)
   119 ;;_out	offset=-4 (param)
   120 ;;_cb	offset=-2 (param)
   121 ;;_fsm	offset=-2 (param)
   122 ;;_new_state	offset=-4 (param)
   123 ;;_fsm	offset=-2 (param)
   124 ;;_event	offset=-3 (param)
   125 ;;_fsm	offset=-2 (param)
   126 ;;_event	offset=-3 (param)
   127 ;;_fsm	offset=-2 (param)
   128 ;;_event	offset=-3 (param)
   129 ;;_fsm	offset=-2 (param)
   130 ;;_event	offset=-3 (param)
   131 ;;_fsm	offset=-2 (param)
   132 ;;_event	offset=-3 (param)
   133 ;;_fsm	offset=-2 (param)
   134 ;;_event	offset=-3 (param)
   135 ;;_input	offset=-1 (param)
   136 ;;_str	offset	0
   137 ;;_fsm	offset=-2 (param)
   138 ;;_event	offset=-3 (param)
   139 ;;_f	offset	0
   140 ;;_ap	offset	12
   141 ;;_s	offset=-3 (param)
   142 ;;_fmt	offset=-5 (param)
   143 ;;_result	offset	0
   144 ;;_channel	offset=-1 (param)
   145 ;;_arg	offset	0
   146 ;;_exp	offset	4
   147 ;;_sign	offset=-1 (param)
   148 ;;_val	offset=-5 (param)
   149 ;;_fsm	offset=-2 (param)
   150 ;;_event	offset=-3 (param)
   151 ;;_ap	offset	0
   152 ;;_fmt	offset=-3 (param)
   153 ;;_cfmt	offset	0
   154 ;;_fp	offset=-2 (param)
   155 ;;_fmt	offset=-4 (param)
   156 ;;_ap	offset=-6 (param)
   157 ;;_vfpfcnvrt$2573	offset	0
   158 ;;_convarg	offset	2
   159 ;;_cp	offset	6
   160 ;;_c	offset	8
   161 ;;_fp	offset=-2 (param)
   162 ;;_fmt	offset=-4 (param)
   163 ;;_ap	offset=-6 (param)
   164 ;;_r	offset	0
   165 ;;_l	offset	2
   166 ;;__l	offset=-2 (param)
   167 ;;__r	offset=-4 (param)
   168 ;;_n	offset=-6 (param)
   169 ;;_nuls	offset	0
   170 ;;_p	offset	7
   171 ;;_l	offset	9
   172 ;;_cp	offset	11
   173 ;;_i	offset	13
   174 ;;_w	offset	15
   175 ;;_fp	offset=-2 (param)
   176 ;;_s	offset=-4 (param)
   177 ;;_a	offset	0
   178 ;;_s	offset=-2 (param)
   179 ;;_c	offset	0
   180 ;;_n	offset	1
   181 ;;_fmt	offset=-2 (param)
   182 ;;_ap	offset=-4 (param)
   183 ;;_efgtoa$2535	offset	0
   184 ;;_u	offset	2
   185 ;;_g	offset	6
   186 ;;_l	offset	10
   187 ;;_h	offset	14
   188 ;;_ou	offset	18
   189 ;;_n	offset	22
   190 ;;_i	offset	24
   191 ;;_w	offset	26
   192 ;;_e	offset	28
   193 ;;_m	offset	30
   194 ;;_d	offset	32
   195 ;;_t	offset	34
   196 ;;_p	offset	36
   197 ;;_ne	offset	38
   198 ;;_sign	offset	40
   199 ;;_nmode	offset	41
   200 ;;_mode	offset	42
   201 ;;_pp	offset	43
   202 ;;_fp	offset=-2 (param)
   203 ;;_f	offset=-6 (param)
   204 ;;_c	offset=-7 (param)
   205 ;;_d	offset	0
   206 ;;_s	offset	2
   207 ;;_dest	offset=-2 (param)
   208 ;;_src	offset=-4 (param)
   209 ;;_w	offset	0
   210 ;;_i	offset	2
   211 ;;_fp	offset=-2 (param)
   212 ;;_buf	offset=-4 (param)
   213 ;;_p	offset=-6 (param)
   214 ;;_i	offset	0
   215 ;;_c	offset	2
   216 ;;_s	offset=-2 (param)
   217 ;;_fp	offset=-4 (param)
   218 ;;_c	offset=-2 (param)
   219 ;;_fp	offset=-4 (param)
   220 ;;_data	offset=-1 (param)
   221 ;;_s	offset	0
   222 ;;_d	offset	2
   223 ;;_tmp	offset	4
   224 ;;_d1	offset=-2 (param)
   225 ;;_s1	offset=-4 (param)
   226 ;;_n	offset=-6 (param)
   227 ;;_a	offset=-4 (param)
   228 ;;_u	offset	0
   229 ;;_m	offset	4
   230 ;;_e	offset	8
   231 ;;_x	offset=-4 (param)
   232 ;;_u	offset	0
   233 ;;_e	offset	4
   234 ;;_x	offset=-4 (param)
   235 ;;_exp1	offset	0
   236 ;;_sign1	offset	1
   237 ;;_f1	offset=-4 (param)
   238 ;;_b	offset=-4 (param)
   239 ;;_a	offset=-8 (param)
   240 ;;_grs	offset	0
   241 ;;_bexp	offset	1
   242 ;;_aexp	offset	2
   243 ;;_signs	offset	3
   244 ;;_b	offset=-4 (param)
   245 ;;_a	offset=-8 (param)
   246 ;;_f1	offset=-4 (param)
   247 ;;_prod	offset	0
   248 ;;_grs	offset	4
   249 ;;_temp	offset	8
   250 ;;_bexp	offset	10
   251 ;;_aexp	offset	11
   252 ;;_sign	offset	12
   253 ;;_b	offset=-4 (param)
   254 ;;_a	offset=-8 (param)
   255 ;;_ff1	offset=-4 (param)
   256 ;;_ff2	offset=-8 (param)
   257 ;;_ff1	offset=-4 (param)
   258 ;;_ff2	offset=-8 (param)
   259 ;;_grs	offset	0
   260 ;;_rem	offset	4
   261 ;;_new_exp	offset	8
   262 ;;_aexp	offset	10
   263 ;;_bexp	offset	11
   264 ;;_sign	offset	12
   265 ;;_b	offset=-4 (param)
   266 ;;_a	offset=-8 (param)
   267 ;;_timeout_in	offset=-4 (param)
   268 ;;_i	offset	0
   269 ;;_lineNum	offset=-1 (param)
   270 ;;_textData	offset=-3 (param)
   271 ;;_data	offset=-1 (param)
   272 ;;_in	offset=-1 (param)
   273 ;;_tmp	offset	0
   274 ;;_queue	offset=-2 (param)
   275 ;;_in	offset=-3 (param)
   276 ;;_rchar	offset	0
   277 ;;_in	offset=-1 (param)
   278 ;;_tmp	offset	0
   279 ;;_queue	offset=-2 (param)
   280 ;;_in	offset=-3 (param)
   281                           
   282                           	psect	idataCOMRAM
   283   005416                     __pidataCOMRAM:
   284                           	callstack 0
   285                           
   286                           ;initializer for stoa@F1170
   287   005416  28                 	db	40
   288   005417  6E                 	db	110
   289   005418  75                 	db	117
   290   005419  6C                 	db	108
   291   00541A  6C                 	db	108
   292   00541B  29                 	db	41
   293   00541C  00                 	db	0
   294   000000                     _TMR1	set	4046
   295   000000                     _RCREG1	set	4014
   296   000000                     _ADRESL	set	4035
   297   000000                     _ADRESH	set	4036
   298   000000                     _LATBbits	set	3978
   299   000000                     _LATCbits	set	3979
   300   000000                     _LATDbits	set	3980
   301   000000                     _TRISBbits	set	3987
   302   000000                     _SSP2STATbits	set	3949
   303   000000                     _SSP2ADD	set	3950
   304   000000                     _TXREG1	set	4013
   305   000000                     _IPEN	set	32391
   306   000000                     _TMR6ON	set	31314
   307   000000                     _TMR1ON	set	32360
   308   000000                     _TMR2ON	set	32210
   309   000000                     _GIEH	set	32663
   310   000000                     _GIEL	set	32662
   311   000000                     _GODONE	set	32273
   312   000000                     _RC1IF	set	31989
   313   000000                     _TMR1IF	set	31984
   314   000000                     _TMR1IE	set	31976
   315   000000                     _TMR2IF	set	31985
   316   000000                     _TMR2IE	set	31977
   317   000000                     _ANSELA	set	3896
   318   000000                     _ANSELCbits	set	3898
   319   000000                     _TRISCbits	set	3988
   320   000000                     _GIE	set	32663
   321   000000                     _TRISDbits	set	3989
   322   000000                     _RCSTA1bits	set	4011
   323   000000                     _TXSTA1bits	set	4012
   324   000000                     _SPBRG1	set	4015
   325   000000                     _RC1IE	set	31981
   326   000000                     _ANSELE	set	3900
   327   000000                     _T6CONbits	set	3914
   328   000000                     _SSP2CON2bits	set	3947
   329   000000                     _SSP2CON1bits	set	3948
   330   000000                     _LATAbits	set	3977
   331   000000                     _TRISAbits	set	3986
   332   000000                     _ANSELDbits	set	3899
   333   000000                     _T2CONbits	set	4026
   334   000000                     _IPR1bits	set	3999
   335   000000                     _SSP2IF	set	32039
   336   000000                     _TX1IF	set	31988
   337   000000                     _SSP2BUF	set	3951
   338   000000                     _TMR6IE	set	31722
   339   000000                     _ADCON2bits	set	4032
   340   000000                     _T1CONbits	set	4045
   341   000000                     _PR2	set	4027
   342   000000                     _TMR6	set	3916
   343   000000                     _PR6	set	3915
   344   000000                     _PORTAbits	set	3968
   345   000000                     _PORTCbits	set	3970
   346   000000                     _TMR6IF	set	31730
   347   000000                     _ADCON0bits	set	4034
   348                           
   349                           	psect	mediumconst
   350   00FE4A                     __pmediumconst:
   351                           	callstack 0
   352   00FE4A  00                 	db	0
   353   00FE4B                     STR_21:
   354   00FE4B  50                 	db	80	;'P'
   355   00FE4C  6F                 	db	111	;'o'
   356   00FE4D  74                 	db	116	;'t'
   357   00FE4E  65                 	db	101	;'e'
   358   00FE4F  6E                 	db	110	;'n'
   359   00FE50  63                 	db	99	;'c'
   360   00FE51  69                 	db	105	;'i'
   361   00FE52  6F                 	db	111	;'o'
   362   00FE53  6D                 	db	109	;'m'
   363   00FE54  65                 	db	101	;'e'
   364   00FE55  74                 	db	116	;'t'
   365   00FE56  72                 	db	114	;'r'
   366   00FE57  3A                 	db	58	;':'
   367   00FE58  20                 	db	32
   368   00FE59  20                 	db	32
   369   00FE5A  20                 	db	32
   370   00FE5B  20                 	db	32
   371   00FE5C  20                 	db	32
   372   00FE5D  20                 	db	32
   373   00FE5E  20                 	db	32
   374   00FE5F  20                 	db	32
   375   00FE60  20                 	db	32
   376   00FE61  20                 	db	32
   377   00FE62  20                 	db	32
   378   00FE63  00                 	db	0
   379   00FE64                     STR_24:
   380   00FE64  50                 	db	80	;'P'
   381   00FE65  4F                 	db	79	;'O'
   382   00FE66  54                 	db	84	;'T'
   383   00FE67  3A                 	db	58	;':'
   384   00FE68  20                 	db	32
   385   00FE69  25                 	db	37
   386   00FE6A  2E                 	db	46
   387   00FE6B  31                 	db	49	;'1'
   388   00FE6C  66                 	db	102	;'f'
   389   00FE6D  20                 	db	32
   390   00FE6E  6D                 	db	109	;'m'
   391   00FE6F  56                 	db	86	;'V'
   392   00FE70  20                 	db	32
   393   00FE71  20                 	db	32
   394   00FE72  20                 	db	32
   395   00FE73  20                 	db	32
   396   00FE74  20                 	db	32
   397   00FE75  20                 	db	32
   398   00FE76  20                 	db	32
   399   00FE77  20                 	db	32
   400   00FE78  20                 	db	32
   401   00FE79  20                 	db	32
   402   00FE7A  00                 	db	0
   403   00FE7B                     STR_17:
   404   00FE7B  5A                 	db	90	;'Z'
   405   00FE7C  61                 	db	97	;'a'
   406   00FE7D  64                 	db	100	;'d'
   407   00FE7E  65                 	db	101	;'e'
   408   00FE7F  6A                 	db	106	;'j'
   409   00FE80  20                 	db	32
   410   00FE81  7A                 	db	122	;'z'
   411   00FE82  70                 	db	112	;'p'
   412   00FE83  72                 	db	114	;'r'
   413   00FE84  61                 	db	97	;'a'
   414   00FE85  76                 	db	118	;'v'
   415   00FE86  75                 	db	117	;'u'
   416   00FE87  3A                 	db	58	;':'
   417   00FE88  20                 	db	32
   418   00FE89  20                 	db	32
   419   00FE8A  20                 	db	32
   420   00FE8B  20                 	db	32
   421   00FE8C  20                 	db	32
   422   00FE8D  20                 	db	32
   423   00FE8E  20                 	db	32
   424   00FE8F  20                 	db	32
   425   00FE90  20                 	db	32
   426   00FE91  00                 	db	0
   427   00FE92                     STR_4:
   428   00FE92  20                 	db	32
   429   00FE93  20                 	db	32
   430   00FE94  20                 	db	32
   431   00FE95  20                 	db	32
   432   00FE96  53                 	db	83	;'S'
   433   00FE97  74                 	db	116	;'t'
   434   00FE98  61                 	db	97	;'a'
   435   00FE99  74                 	db	116	;'t'
   436   00FE9A  65                 	db	101	;'e'
   437   00FE9B  32                 	db	50	;'2'
   438   00FE9C  20                 	db	32
   439   00FE9D  20                 	db	32
   440   00FE9E  20                 	db	32
   441   00FE9F  20                 	db	32
   442   00FEA0  20                 	db	32
   443   00FEA1  20                 	db	32
   444   00FEA2  20                 	db	32
   445   00FEA3  20                 	db	32
   446   00FEA4  20                 	db	32
   447   00FEA5  20                 	db	32
   448   00FEA6  20                 	db	32
   449   00FEA7  00                 	db	0
   450   00FEA8                     STR_6:
   451   00FEA8  3E                 	db	62	;'>'
   452   00FEA9  3E                 	db	62	;'>'
   453   00FEAA  3E                 	db	62	;'>'
   454   00FEAB  20                 	db	32
   455   00FEAC  53                 	db	83	;'S'
   456   00FEAD  74                 	db	116	;'t'
   457   00FEAE  61                 	db	97	;'a'
   458   00FEAF  74                 	db	116	;'t'
   459   00FEB0  65                 	db	101	;'e'
   460   00FEB1  32                 	db	50	;'2'
   461   00FEB2  20                 	db	32
   462   00FEB3  20                 	db	32
   463   00FEB4  20                 	db	32
   464   00FEB5  20                 	db	32
   465   00FEB6  20                 	db	32
   466   00FEB7  20                 	db	32
   467   00FEB8  20                 	db	32
   468   00FEB9  20                 	db	32
   469   00FEBA  20                 	db	32
   470   00FEBB  20                 	db	32
   471   00FEBC  20                 	db	32
   472   00FEBD  00                 	db	0
   473   00FEBE                     STR_7:
   474   00FEBE  20                 	db	32
   475   00FEBF  20                 	db	32
   476   00FEC0  20                 	db	32
   477   00FEC1  20                 	db	32
   478   00FEC2  53                 	db	83	;'S'
   479   00FEC3  74                 	db	116	;'t'
   480   00FEC4  61                 	db	97	;'a'
   481   00FEC5  74                 	db	116	;'t'
   482   00FEC6  65                 	db	101	;'e'
   483   00FEC7  33                 	db	51	;'3'
   484   00FEC8  20                 	db	32
   485   00FEC9  20                 	db	32
   486   00FECA  20                 	db	32
   487   00FECB  20                 	db	32
   488   00FECC  20                 	db	32
   489   00FECD  20                 	db	32
   490   00FECE  20                 	db	32
   491   00FECF  20                 	db	32
   492   00FED0  20                 	db	32
   493   00FED1  20                 	db	32
   494   00FED2  20                 	db	32
   495   00FED3  00                 	db	0
   496   00FED4                     STR_9:
   497   00FED4  3E                 	db	62	;'>'
   498   00FED5  3E                 	db	62	;'>'
   499   00FED6  3E                 	db	62	;'>'
   500   00FED7  20                 	db	32
   501   00FED8  53                 	db	83	;'S'
   502   00FED9  74                 	db	116	;'t'
   503   00FEDA  61                 	db	97	;'a'
   504   00FEDB  74                 	db	116	;'t'
   505   00FEDC  65                 	db	101	;'e'
   506   00FEDD  33                 	db	51	;'3'
   507   00FEDE  20                 	db	32
   508   00FEDF  20                 	db	32
   509   00FEE0  20                 	db	32
   510   00FEE1  20                 	db	32
   511   00FEE2  20                 	db	32
   512   00FEE3  20                 	db	32
   513   00FEE4  20                 	db	32
   514   00FEE5  20                 	db	32
   515   00FEE6  20                 	db	32
   516   00FEE7  20                 	db	32
   517   00FEE8  20                 	db	32
   518   00FEE9  00                 	db	0
   519   00FEEA                     STR_10:
   520   00FEEA  20                 	db	32
   521   00FEEB  20                 	db	32
   522   00FEEC  20                 	db	32
   523   00FEED  20                 	db	32
   524   00FEEE  53                 	db	83	;'S'
   525   00FEEF  74                 	db	116	;'t'
   526   00FEF0  61                 	db	97	;'a'
   527   00FEF1  74                 	db	116	;'t'
   528   00FEF2  65                 	db	101	;'e'
   529   00FEF3  34                 	db	52	;'4'
   530   00FEF4  20                 	db	32
   531   00FEF5  20                 	db	32
   532   00FEF6  20                 	db	32
   533   00FEF7  20                 	db	32
   534   00FEF8  20                 	db	32
   535   00FEF9  20                 	db	32
   536   00FEFA  20                 	db	32
   537   00FEFB  20                 	db	32
   538   00FEFC  20                 	db	32
   539   00FEFD  20                 	db	32
   540   00FEFE  20                 	db	32
   541   00FEFF  00                 	db	0
   542   00FF00                     STR_14:
   543   00FF00  3E                 	db	62	;'>'
   544   00FF01  3E                 	db	62	;'>'
   545   00FF02  3E                 	db	62	;'>'
   546   00FF03  20                 	db	32
   547   00FF04  53                 	db	83	;'S'
   548   00FF05  74                 	db	116	;'t'
   549   00FF06  61                 	db	97	;'a'
   550   00FF07  74                 	db	116	;'t'
   551   00FF08  65                 	db	101	;'e'
   552   00FF09  34                 	db	52	;'4'
   553   00FF0A  20                 	db	32
   554   00FF0B  20                 	db	32
   555   00FF0C  20                 	db	32
   556   00FF0D  20                 	db	32
   557   00FF0E  20                 	db	32
   558   00FF0F  20                 	db	32
   559   00FF10  20                 	db	32
   560   00FF11  20                 	db	32
   561   00FF12  20                 	db	32
   562   00FF13  20                 	db	32
   563   00FF14  20                 	db	32
   564   00FF15  00                 	db	0
   565   00FF16                     STR_3:
   566   00FF16  3E                 	db	62	;'>'
   567   00FF17  3E                 	db	62	;'>'
   568   00FF18  3E                 	db	62	;'>'
   569   00FF19  20                 	db	32
   570   00FF1A  30                 	db	48	;'0'
   571   00FF1B  5F                 	db	95	;'_'
   572   00FF1C  47                 	db	71	;'G'
   573   00FF1D  50                 	db	80	;'P'
   574   00FF1E  49                 	db	73	;'I'
   575   00FF1F  4F                 	db	79	;'O'
   576   00FF20  20                 	db	32
   577   00FF21  20                 	db	32
   578   00FF22  20                 	db	32
   579   00FF23  20                 	db	32
   580   00FF24  20                 	db	32
   581   00FF25  20                 	db	32
   582   00FF26  20                 	db	32
   583   00FF27  20                 	db	32
   584   00FF28  20                 	db	32
   585   00FF29  20                 	db	32
   586   00FF2A  00                 	db	0
   587   00FF2B                     STR_16:
   588   00FF2B  45                 	db	69	;'E'
   589   00FF2C  6E                 	db	110	;'n'
   590   00FF2D  74                 	db	116	;'t'
   591   00FF2E  65                 	db	101	;'e'
   592   00FF2F  72                 	db	114	;'r'
   593   00FF30  20                 	db	32
   594   00FF31  73                 	db	115	;'s'
   595   00FF32  74                 	db	116	;'t'
   596   00FF33  61                 	db	97	;'a'
   597   00FF34  74                 	db	116	;'t'
   598   00FF35  65                 	db	101	;'e'
   599   00FF36  20                 	db	32
   600   00FF37  55                 	db	85	;'U'
   601   00FF38  61                 	db	97	;'a'
   602   00FF39  72                 	db	114	;'r'
   603   00FF3A  74                 	db	116	;'t'
   604   00FF3B  0A                 	db	10
   605   00FF3C  00                 	db	0
   606   00FF3D                     STR_22:
   607   00FF3D  45                 	db	69	;'E'
   608   00FF3E  6E                 	db	110	;'n'
   609   00FF3F  74                 	db	116	;'t'
   610   00FF40  65                 	db	101	;'e'
   611   00FF41  72                 	db	114	;'r'
   612   00FF42  20                 	db	32
   613   00FF43  73                 	db	115	;'s'
   614   00FF44  74                 	db	116	;'t'
   615   00FF45  61                 	db	97	;'a'
   616   00FF46  74                 	db	116	;'t'
   617   00FF47  65                 	db	101	;'e'
   618   00FF48  20                 	db	32
   619   00FF49  50                 	db	80	;'P'
   620   00FF4A  4F                 	db	79	;'O'
   621   00FF4B  54                 	db	84	;'T'
   622   00FF4C  0A                 	db	10
   623   00FF4D  00                 	db	0
   624   00FF4E                     STR_2:
   625   00FF4E  49                 	db	73	;'I'
   626   00FF4F  6E                 	db	110	;'n'
   627   00FF50  69                 	db	105	;'i'
   628   00FF51  74                 	db	116	;'t'
   629   00FF52  20                 	db	32
   630   00FF53  73                 	db	115	;'s'
   631   00FF54  74                 	db	116	;'t'
   632   00FF55  61                 	db	97	;'a'
   633   00FF56  74                 	db	116	;'t'
   634   00FF57  65                 	db	101	;'e'
   635   00FF58  20                 	db	32
   636   00FF59  65                 	db	101	;'e'
   637   00FF5A  78                 	db	120	;'x'
   638   00FF5B  69                 	db	105	;'i'
   639   00FF5C  74                 	db	116	;'t'
   640   00FF5D  0A                 	db	10
   641   00FF5E  00                 	db	0
   642   00FF5F                     STR_19:
   643   00FF5F  45                 	db	69	;'E'
   644   00FF60  78                 	db	120	;'x'
   645   00FF61  69                 	db	105	;'i'
   646   00FF62  74                 	db	116	;'t'
   647   00FF63  20                 	db	32
   648   00FF64  73                 	db	115	;'s'
   649   00FF65  74                 	db	116	;'t'
   650   00FF66  61                 	db	97	;'a'
   651   00FF67  74                 	db	116	;'t'
   652   00FF68  65                 	db	101	;'e'
   653   00FF69  20                 	db	32
   654   00FF6A  55                 	db	85	;'U'
   655   00FF6B  61                 	db	97	;'a'
   656   00FF6C  72                 	db	114	;'r'
   657   00FF6D  74                 	db	116	;'t'
   658   00FF6E  0A                 	db	10
   659   00FF6F  00                 	db	0
   660   00FF70                     STR_1:
   661   00FF70  57                 	db	87	;'W'
   662   00FF71  65                 	db	101	;'e'
   663   00FF72  6C                 	db	108	;'l'
   664   00FF73  63                 	db	99	;'c'
   665   00FF74  6F                 	db	111	;'o'
   666   00FF75  6D                 	db	109	;'m'
   667   00FF76  65                 	db	101	;'e'
   668   00FF77  20                 	db	32
   669   00FF78  20                 	db	32
   670   00FF79  20                 	db	32
   671   00FF7A  20                 	db	32
   672   00FF7B  20                 	db	32
   673   00FF7C  20                 	db	32
   674   00FF7D  20                 	db	32
   675   00FF7E  20                 	db	32
   676   00FF7F  20                 	db	32
   677   00FF80  00                 	db	0
   678   00FF81                     STR_23:
   679   00FF81  45                 	db	69	;'E'
   680   00FF82  78                 	db	120	;'x'
   681   00FF83  69                 	db	105	;'i'
   682   00FF84  74                 	db	116	;'t'
   683   00FF85  20                 	db	32
   684   00FF86  73                 	db	115	;'s'
   685   00FF87  74                 	db	116	;'t'
   686   00FF88  61                 	db	97	;'a'
   687   00FF89  74                 	db	116	;'t'
   688   00FF8A  65                 	db	101	;'e'
   689   00FF8B  20                 	db	32
   690   00FF8C  50                 	db	80	;'P'
   691   00FF8D  4F                 	db	79	;'O'
   692   00FF8E  54                 	db	84	;'T'
   693   00FF8F  0A                 	db	10
   694   00FF90  00                 	db	0
   695   00FF91                     STR_12:
   696   00FF91  45                 	db	69	;'E'
   697   00FF92  6E                 	db	110	;'n'
   698   00FF93  74                 	db	116	;'t'
   699   00FF94  65                 	db	101	;'e'
   700   00FF95  72                 	db	114	;'r'
   701   00FF96  20                 	db	32
   702   00FF97  73                 	db	115	;'s'
   703   00FF98  74                 	db	116	;'t'
   704   00FF99  61                 	db	97	;'a'
   705   00FF9A  74                 	db	116	;'t'
   706   00FF9B  65                 	db	101	;'e'
   707   00FF9C  20                 	db	32
   708   00FF9D  34                 	db	52	;'4'
   709   00FF9E  0A                 	db	10
   710   00FF9F  00                 	db	0
   711   00FFA0                     STR_18:
   712   00FFA0  5A                 	db	90	;'Z'
   713   00FFA1  61                 	db	97	;'a'
   714   00FFA2  64                 	db	100	;'d'
   715   00FFA3  65                 	db	101	;'e'
   716   00FFA4  6A                 	db	106	;'j'
   717   00FFA5  20                 	db	32
   718   00FFA6  7A                 	db	122	;'z'
   719   00FFA7  70                 	db	112	;'p'
   720   00FFA8  72                 	db	114	;'r'
   721   00FFA9  61                 	db	97	;'a'
   722   00FFAA  76                 	db	118	;'v'
   723   00FFAB  75                 	db	117	;'u'
   724   00FFAC  3A                 	db	58	;':'
   725   00FFAD  0A                 	db	10
   726   00FFAE  00                 	db	0
   727   00FFAF                     STR_5:
   728   00FFAF  45                 	db	69	;'E'
   729   00FFB0  78                 	db	120	;'x'
   730   00FFB1  69                 	db	105	;'i'
   731   00FFB2  74                 	db	116	;'t'
   732   00FFB3  20                 	db	32
   733   00FFB4  73                 	db	115	;'s'
   734   00FFB5  74                 	db	116	;'t'
   735   00FFB6  61                 	db	97	;'a'
   736   00FFB7  74                 	db	116	;'t'
   737   00FFB8  65                 	db	101	;'e'
   738   00FFB9  20                 	db	32
   739   00FFBA  31                 	db	49	;'1'
   740   00FFBB  0A                 	db	10
   741   00FFBC  00                 	db	0
   742   00FFBD                     STR_8:
   743   00FFBD  45                 	db	69	;'E'
   744   00FFBE  78                 	db	120	;'x'
   745   00FFBF  69                 	db	105	;'i'
   746   00FFC0  74                 	db	116	;'t'
   747   00FFC1  20                 	db	32
   748   00FFC2  73                 	db	115	;'s'
   749   00FFC3  74                 	db	116	;'t'
   750   00FFC4  61                 	db	97	;'a'
   751   00FFC5  74                 	db	116	;'t'
   752   00FFC6  65                 	db	101	;'e'
   753   00FFC7  20                 	db	32
   754   00FFC8  32                 	db	50	;'2'
   755   00FFC9  0A                 	db	10
   756   00FFCA  00                 	db	0
   757   00FFCB                     STR_11:
   758   00FFCB  45                 	db	69	;'E'
   759   00FFCC  78                 	db	120	;'x'
   760   00FFCD  69                 	db	105	;'i'
   761   00FFCE  74                 	db	116	;'t'
   762   00FFCF  20                 	db	32
   763   00FFD0  73                 	db	115	;'s'
   764   00FFD1  74                 	db	116	;'t'
   765   00FFD2  61                 	db	97	;'a'
   766   00FFD3  74                 	db	116	;'t'
   767   00FFD4  65                 	db	101	;'e'
   768   00FFD5  20                 	db	32
   769   00FFD6  33                 	db	51	;'3'
   770   00FFD7  0A                 	db	10
   771   00FFD8  00                 	db	0
   772   00FFD9                     STR_15:
   773   00FFD9  45                 	db	69	;'E'
   774   00FFDA  78                 	db	120	;'x'
   775   00FFDB  69                 	db	105	;'i'
   776   00FFDC  74                 	db	116	;'t'
   777   00FFDD  20                 	db	32
   778   00FFDE  73                 	db	115	;'s'
   779   00FFDF  74                 	db	116	;'t'
   780   00FFE0  61                 	db	97	;'a'
   781   00FFE1  74                 	db	116	;'t'
   782   00FFE2  65                 	db	101	;'e'
   783   00FFE3  20                 	db	32
   784   00FFE4  34                 	db	52	;'4'
   785   00FFE5  0A                 	db	10
   786   00FFE6  00                 	db	0
   787   00FFE7                     STR_20:
   788   00FFE7  5A                 	db	90	;'Z'
   789   00FFE8  70                 	db	112	;'p'
   790   00FFE9  72                 	db	114	;'r'
   791   00FFEA  61                 	db	97	;'a'
   792   00FFEB  76                 	db	118	;'v'
   793   00FFEC  61                 	db	97	;'a'
   794   00FFED  3A                 	db	58	;':'
   795   00FFEE  20                 	db	32
   796   00FFEF  25                 	db	37
   797   00FFF0  73                 	db	115	;'s'
   798   00FFF1  0A                 	db	10
   799   00FFF2  00                 	db	0
   800   00FFF3                     STR_25:
   801   00FFF3  69                 	db	105	;'i'
   802   00FFF4  6E                 	db	110	;'n'
   803   00FFF5  66                 	db	102	;'f'
   804   00FFF6  00                 	db	0
   805   00FFF7                     STR_28:
   806   00FFF7  6E                 	db	110	;'n'
   807   00FFF8  61                 	db	97	;'a'
   808   00FFF9  6E                 	db	110	;'n'
   809   00FFFA  00                 	db	0
   810   00FFFB                     STR_31:
   811   00FFFB  6C                 	db	108	;'l'
   812   00FFFC  6C                 	db	108	;'l'
   813   00FFFD  73                 	db	115	;'s'
   814   00FFFE  00                 	db	0
   815   00FFFF  00                 	db	0	; dummy byte at the end
   816   000000                     
   817                           ; #config settings
   818                           
   819                           	psect	cinit
   820   00527C                     __pcinit:
   821                           	callstack 0
   822   00527C                     start_initialization:
   823                           	callstack 0
   824   00527C                     __initialization:
   825                           	callstack 0
   826                           
   827                           ; Initialize objects allocated to COMRAM (7 bytes)
   828                           ; load TBLPTR registers with __pidataCOMRAM
   829   00527C  0E16               	movlw	low __pidataCOMRAM
   830   00527E  6EF6               	movwf	tblptrl,c
   831   005280  0E54               	movlw	high __pidataCOMRAM
   832   005282  6EF7               	movwf	tblptrh,c
   833   005284  0E00               	movlw	low (__pidataCOMRAM shr (0+16))
   834   005286  6EF8               	movwf	tblptru,c
   835   005288  EE00  F047         	lfsr	0,__pdataCOMRAM
   836   00528C  EE20 F007          	lfsr	2,7
   837   005290                     copy_data0:
   838   005290  0009               	tblrd		*+
   839   005292  CFF5 FFEE          	movff	tablat,postinc0
   840   005296  50DD               	movf	postdec2,w,c
   841   005298  50D9               	movf	fsr2l,w,c
   842   00529A  E1FA               	bnz	copy_data0
   843                           
   844                           ; Clear objects allocated to BANK0 (147 bytes)
   845   00529C  EE00  F060         	lfsr	0,__pbssBANK0
   846   0052A0  0E93               	movlw	147
   847   0052A2                     clear_0:
   848   0052A2  6AEE               	clrf	postinc0,c
   849   0052A4  06E8               	decf	wreg,f,c
   850   0052A6  E1FD               	bnz	clear_0
   851                           
   852                           ; Clear objects allocated to COMRAM (27 bytes)
   853   0052A8  EE00  F021         	lfsr	0,__pbssCOMRAM
   854   0052AC  0E1B               	movlw	27
   855   0052AE                     clear_1:
   856   0052AE  6AEE               	clrf	postinc0,c
   857   0052B0  06E8               	decf	wreg,f,c
   858   0052B2  E1FD               	bnz	clear_1
   859   0052B4                     end_of_initialization:
   860                           	callstack 0
   861   0052B4                     __end_of__initialization:
   862                           	callstack 0
   863   0052B4  0100               	movlb	0
   864   0052B6  EF93  F025         	goto	_main	;jump to C main() function
   865                           
   866                           	psect	bssCOMRAM
   867   000021                     __pbssCOMRAM:
   868                           	callstack 0
   869   000021                     _buttons:
   870                           	callstack 0
   871   000021                     	ds	8
   872   000029                     floorf@F526:
   873                           	callstack 0
   874   000029                     	ds	4
   875   00002D                     ___fpclassifyf@F465:
   876                           	callstack 0
   877   00002D                     	ds	4
   878   000031                     _bsp_timeout:
   879                           	callstack 0
   880   000031                     	ds	4
   881   000035                     _width:
   882                           	callstack 0
   883   000035                     	ds	2
   884   000037                     _prec:
   885                           	callstack 0
   886   000037                     	ds	2
   887   000039                     _RC_isr_cb:
   888                           	callstack 0
   889   000039                     	ds	2
   890   00003B                     state1@leds:
   891                           	callstack 0
   892   00003B                     	ds	1
   893                           
   894                           	psect	dataCOMRAM
   895   000047                     __pdataCOMRAM:
   896                           	callstack 0
   897   000047                     stoa@F1170:
   898                           	callstack 0
   899   000047                     	ds	7
   900                           
   901                           	psect	bssBANK0
   902   000060                     __pbssBANK0:
   903                           	callstack 0
   904   000060                     _dbuf:
   905                           	callstack 0
   906   000060                     	ds	80
   907   0000B0                     _event_queue:
   908                           	callstack 0
   909   0000B0                     	ds	34
   910   0000D2                     _msg:
   911                           	callstack 0
   912   0000D2                     	ds	33
   913                           
   914                           	psect	cstackBANK0
   915   0000F3                     __pcstackBANK0:
   916                           	callstack 0
   917   0000F3                     ??_LOW_ISR:
   918                           
   919                           ; 1 bytes @ 0x0
   920   0000F3                     	ds	11
   921                           
   922                           	psect	cstackCOMRAM
   923   00003C                     __pcstackCOMRAM:
   924                           	callstack 0
   925   00003C                     ??_HIGH_ISR:
   926   00003C                     
   927                           ; 1 bytes @ 0x0
   928   00003C                     	ds	11
   929                           
   930 ;;
   931 ;;Main: autosize = 3, tempsize = 0, incstack = 0, save=0
   932 ;;
   933 ;; *************** function _main *****************
   934 ;; Defined at:
   935 ;;		line 37 in file "main_menu.c"
   936 ;; Parameters:    Size  Location     Type
   937 ;;		None
   938 ;; Auto vars:     Size  Location     Type
   939 ;;  fsm             2  [STACK] struct fsm_t
   940 ;;  event           1  [STACK] unsigned char 
   941 ;; Return value:  Size  Location     Type
   942 ;;                  2  [STACK] int 
   943 ;; Registers used:
   944 ;;		wreg, fsr0l, fsr0h, fsr1l, fsr1h, fsr2l, fsr2h, bsr, status,2, status,0, pcl, pclath, pclatu, btemp, btemp+1, btemp+
      +2, btemp+3, btemp+4, btemp+5, btemp+6, btemp+7, btemp+8, btemp+9, btemp+10, btemp+11, btemp+12, btemp+13, btemp+14, btem
      +p+15, btemp+16, btemp+17, btemp+18, btemp+19, btemp+20, btemp+21, btemp+22, btemp+23, btemp+24, btemp+25, btemp+26, btem
      +p+27, btemp+28, btemp+29, btemp+30, btemp+31, tosl, structret, tblptrl, tblptrh, tblptru, prodl, prodh, cstack
   945 ;; Tracked objects:
   946 ;;		On entry : 0/0
   947 ;;		On exit  : 0/0
   948 ;;		Unchanged: 0/0
   949 ;; Data sizes:     COMRAM   BANK0   BANK1   BANK2   BANK3   BANK4   BANK5   BANK6   BANK7   BANK8   BANK9  BANK10  BANK1
      +1  BANK12  BANK13  BANK14  BANK15
   950 ;;      Params:         0       0       0       0       0       0       0       0       0       0       0       0       
      +0       0       0       0       0
   951 ;;      Locals:         0       0       0       0       0       0       0       0       0       0       0       0       
      +0       0       0       0       0
   952 ;;      Temps:          0       0       0       0       0       0       0       0       0       0       0       0       
      +0       0       0       0       0
   953 ;;      Totals:         0       0       0       0       0       0       0       0       0       0       0       0       
      +0       0       0       0       0
   954 ;;Total ram usage:        0 bytes
   955 ;; Hardware stack levels required when called: unknown (due to recursion)
   956 ;; This function calls:
   957 ;;		_LCD_Init
   958 ;;		_adc_init
   959 ;;		_bsp_init
   960 ;;		_bsp_reg_RC_cb
   961 ;;		_fsm_dispatch
   962 ;;		_fsm_get_event
   963 ;;		_fsm_init
   964 ;;		_uart_init
   965 ;; This function is called by:
   966 ;;		Startup code after reset
   967 ;; This function uses a reentrant model
   968 ;;
   969                           
   970                           	psect	text0
   971   004B26                     __ptext0:
   972                           	callstack 0
   973   004B26                     _main:
   974                           	callstack 0
   975                           
   976                           ; autosize = 3, savesize = 0, parsavesize = 0, tempsize = 0 parsize = 0, argsize = 0 var
      +                          gsize = 0, retsize = 0 argfudge = 0
   977   004B26  52E6               	movf	postinc1,f,c
   978   004B28  52E6               	movf	postinc1,f,c
   979   004B2A  52E6               	movf	postinc1,f,c
   980   004B2C                     
   981                           ;main_menu.c: 38:     _delay((unsigned long)((100)*(32e6/4000.0)));
   982   004B2C  0E05               	movlw	5
   983   004B2E  6E02               	movwf	(wtemp0+1)^0,c
   984   004B30  0E0F               	movlw	15
   985   004B32  6E01               	movwf	wtemp0^0,c
   986   004B34  0EF1               	movlw	241
   987   004B36                     u5237:
   988   004B36  2EE8               	decfsz	wreg,f,c
   989   004B38  D7FE               	bra	u5237
   990   004B3A  2E01               	decfsz	wtemp0^0,f,c
   991   004B3C  D7FC               	bra	u5237
   992   004B3E  2E02               	decfsz	(wtemp0+1)^0,f,c
   993   004B40  D7FA               	bra	u5237
   994   004B42  F000               	nop	
   995   004B44                     
   996                           ;main_menu.c: 39:     bsp_init();
   997   004B44  EC20  F028         	call	_bsp_init	;wreg free
   998   004B48                     
   999                           ; BSR set to: 15
  1000                           ;main_menu.c: 40:     uart_init();
  1001   004B48  ECDF  F029         	call	_uart_init	;wreg free
  1002   004B4C                     
  1003                           ; BSR set to: 15
  1004                           ;main_menu.c: 41:     adc_init();
  1005   004B4C  ECC2  F029         	call	_adc_init	;wreg free
  1006   004B50                     
  1007                           ; BSR set to: 15
  1008                           ;main_menu.c: 42:     LCD_Init();
  1009   004B50  EC77  F020         	call	_LCD_Init	;wreg free
  1010   004B54                     
  1011                           ;main_menu.c: 45:     GIEL = 1;
  1012   004B54  8CF2               	bsf	4082,6,c	;volatile
  1013   004B56                     
  1014                           ;main_menu.c: 46:     GIEH = 1;
  1015   004B56  8EF2               	bsf	4082,7,c	;volatile
  1016   004B58                     
  1017                           ;main_menu.c: 48:     TMR2ON = 1;
  1018   004B58  84BA               	bsf	4026,2,c	;volatile
  1019   004B5A                     
  1020                           ;main_menu.c: 49:     TMR1ON = 1;
  1021   004B5A  80CD               	bsf	4045,0,c	;volatile
  1022   004B5C                     
  1023                           ;main_menu.c: 51:     bsp_reg_RC_cb(rc_isr_handle);
  1024   004B5C  0ED6               	movlw	low _rc_isr_handle
  1025   004B5E  6EE6               	movwf	postinc1,c
  1026   004B60  0E4F               	movlw	high _rc_isr_handle
  1027   004B62  6EE6               	movwf	postinc1,c
  1028   004B64  EC02  F02A         	call	_bsp_reg_RC_cb	;wreg free
  1029   004B68                     
  1030                           ;main_menu.c: 53:  fsm_t fsm;;main_menu.c: 54:     uint8_t event = 0;
  1031                           ;stkvar	_event @ sp[(-3)+2]
  1032   004B68  0EFF               	movlw	-1
  1033   004B6A  6AE3               	clrf	plusw1,c
  1034   004B6C                     
  1035                           ;main_menu.c: 56:     fsm_init(&fsm, &init);
  1036   004B6C  0E2C               	movlw	low _init
  1037   004B6E  6EE6               	movwf	postinc1,c
  1038   004B70  0E4D               	movlw	high _init
  1039   004B72  6EE6               	movwf	postinc1,c
  1040                           
  1041                           ;stkvar	_fsm @ sp[(-5)+0]
  1042   004B74  0EFB               	movlw	251
  1043   004B76  24E1               	addwf	fsr1l,w,c
  1044   004B78  6E01               	movwf	btemp^0,c
  1045   004B7A  0EFF               	movlw	255
  1046   004B7C  20E2               	addwfc	fsr1h,w,c
  1047   004B7E  6E02               	movwf	(btemp+1)^0,c
  1048   004B80  C001  FFE6         	movff	btemp,postinc1
  1049   004B84  C002  FFE6         	movff	btemp+1,postinc1
  1050   004B88  EC5D  F029         	call	_fsm_init	;wreg free
  1051   004B8C                     l4830:
  1052                           
  1053                           ;main_menu.c: 59:         if (fsm_get_event(&event)){
  1054                           ;stkvar	_event @ sp[(-3)+2]
  1055   004B8C  0EFF               	movlw	255
  1056   004B8E  24E1               	addwf	fsr1l,w,c
  1057   004B90  6E01               	movwf	btemp^0,c
  1058   004B92  0EFF               	movlw	255
  1059   004B94  20E2               	addwfc	fsr1h,w,c
  1060   004B96  6E02               	movwf	(btemp+1)^0,c
  1061   004B98  C001  FFE6         	movff	btemp,postinc1
  1062   004B9C  C002  FFE6         	movff	btemp+1,postinc1
  1063   004BA0  ECD1  F029         	call	_fsm_get_event	;wreg free
  1064   004BA4  5001               	movf	btemp^0,w,c
  1065   004BA6  B4D8               	btfsc	status,2,c
  1066   004BA8  EFD8  F025         	goto	u5121
  1067   004BAC  EFDA  F025         	goto	u5120
  1068   004BB0                     u5121:
  1069   004BB0  EFC6  F025         	goto	l4830
  1070   004BB4                     u5120:
  1071   004BB4                     
  1072                           ;main_menu.c: 61:             fsm_dispatch(&fsm, event);
  1073                           ;stkvar	_event @ sp[(-3)+2]
  1074   004BB4  0EFF               	movlw	-1
  1075   004BB6  50E3               	movf	plusw1,w,c
  1076   004BB8  6EE6               	movwf	postinc1,c
  1077                           
  1078                           ;stkvar	_fsm @ sp[(-4)+0]
  1079   004BBA  0EFC               	movlw	252
  1080   004BBC  24E1               	addwf	fsr1l,w,c
  1081   004BBE  6E01               	movwf	btemp^0,c
  1082   004BC0  0EFF               	movlw	255
  1083   004BC2  20E2               	addwfc	fsr1h,w,c
  1084   004BC4  6E02               	movwf	(btemp+1)^0,c
  1085   004BC6  C001  FFE6         	movff	btemp,postinc1
  1086   004BCA  C002  FFE6         	movff	btemp+1,postinc1
  1087   004BCE  EC1C  F029         	call	_fsm_dispatch	;wreg free
  1088   004BD2  EFC6  F025         	goto	l4830
  1089   004BD6  EFAE  F000         	goto	start
  1090   004BDA                     __end_of_main:
  1091                           	callstack 0
  1092                           
  1093 ;; *************** function _uart_init *****************
  1094 ;; Defined at:
  1095 ;;		line 4 in file "uart.c"
  1096 ;; Parameters:    Size  Location     Type
  1097 ;;		None
  1098 ;; Auto vars:     Size  Location     Type
  1099 ;;		None
  1100 ;; Return value:  Size  Location     Type
  1101 ;;                  1  [STACK] void 
  1102 ;; Registers used:
  1103 ;;		wreg, status,2
  1104 ;; Tracked objects:
  1105 ;;		On entry : 3F/F
  1106 ;;		On exit  : 3F/F
  1107 ;;		Unchanged: 0/0
  1108 ;; Data sizes:     COMRAM   BANK0   BANK1   BANK2   BANK3   BANK4   BANK5   BANK6   BANK7   BANK8   BANK9  BANK10  BANK1
      +1  BANK12  BANK13  BANK14  BANK15
  1109 ;;      Params:         0       0       0       0       0       0       0       0       0       0       0       0       
      +0       0       0       0       0
  1110 ;;      Locals:         0       0       0       0       0       0       0       0       0       0       0       0       
      +0       0       0       0       0
  1111 ;;      Temps:          0       0       0       0       0       0       0       0       0       0       0       0       
      +0       0       0       0       0
  1112 ;;      Totals:         0       0       0       0       0       0       0       0       0       0       0       0       
      +0       0       0       0       0
  1113 ;;Total ram usage:        0 bytes
  1114 ;; Hardware stack levels used: 1
  1115 ;; Hardware stack levels required when called: 7
  1116 ;; This function calls:
  1117 ;;		Nothing
  1118 ;; This function is called by:
  1119 ;;		_main
  1120 ;; This function uses a reentrant model
  1121 ;;
  1122                           
  1123                           	psect	text1
  1124   0053BE                     __ptext1:
  1125                           	callstack 0
  1126   0053BE                     _uart_init:
  1127                           	callstack 23
  1128   0053BE                     
  1129                           ;uart.c: 6:     TRISCbits.TRISC6 = 1;
  1130   0053BE  8C94               	bsf	148,6,c	;volatile
  1131                           
  1132                           ;uart.c: 7:     TRISCbits.TRISC7 = 1;
  1133   0053C0  8E94               	bsf	148,7,c	;volatile
  1134                           
  1135                           ;uart.c: 9:     ANSELCbits.ANSC7 = 0;
  1136   0053C2  010F               	movlb	15	; () banked
  1137   0053C4  9F3A               	bcf	58,7,b	;volatile
  1138   0053C6                     
  1139                           ; BSR set to: 15
  1140                           ;uart.c: 12:     SPBRG1 = 51;
  1141   0053C6  0E33               	movlw	51
  1142   0053C8  6EAF               	movwf	175,c	;volatile
  1143   0053CA                     
  1144                           ; BSR set to: 15
  1145                           ;uart.c: 14:     TXSTA1bits.SYNC = 0;
  1146   0053CA  98AC               	bcf	172,4,c	;volatile
  1147   0053CC                     
  1148                           ; BSR set to: 15
  1149                           ;uart.c: 15:     RCSTA1bits.SPEN = 1;
  1150   0053CC  8EAB               	bsf	171,7,c	;volatile
  1151   0053CE                     
  1152                           ; BSR set to: 15
  1153                           ;uart.c: 16:     TXSTA1bits.TXEN = 1;
  1154   0053CE  8AAC               	bsf	172,5,c	;volatile
  1155   0053D0                     
  1156                           ; BSR set to: 15
  1157                           ;uart.c: 17:     RCSTA1bits.CREN = 1;
  1158   0053D0  88AB               	bsf	171,4,c	;volatile
  1159   0053D2                     
  1160                           ; BSR set to: 15
  1161                           ;uart.c: 19:     RC1IE = 1;
  1162   0053D2  8A9D               	bsf	3997,5,c	;volatile
  1163   0053D4                     
  1164                           ; BSR set to: 15
  1165                           ; _uart_init: autosize = 0, savesize = 0, parsavesize = 0, tempsize = 0 parsize = 0, arg
      +                          size = 0, vargsize = 0
  1166   0053D4  0012               	return		;funcret
  1167   0053D6                     __end_of_uart_init:
  1168                           	callstack 0
  1169                           
  1170 ;; *************** function _fsm_init *****************
  1171 ;; Defined at:
  1172 ;;		line 15 in file "fsm.c"
  1173 ;; Parameters:    Size  Location     Type
  1174 ;;  fsm             2  [STACK] PTR struct fsm_t
  1175 ;;		 -> fsm(2), 
  1176 ;;  init_state      2  [STACK] PTR FTN(PTR struct fsm_t
  1177 ;;		 -> init(1), 
  1178 ;; Auto vars:     Size  Location     Type
  1179 ;;		None
  1180 ;; Return value:  Size  Location     Type
  1181 ;;                  1  [STACK] void 
  1182 ;; Registers used:
  1183 ;;		wreg, fsr0l, fsr0h, fsr1l, fsr1h, fsr2l, fsr2h, bsr, status,2, status,0, pcl, pclath, pclatu, btemp, btemp+1, btemp+
      +2, btemp+3, btemp+4, btemp+5, btemp+6, btemp+7, btemp+8, btemp+9, btemp+10, btemp+11, btemp+12, btemp+13, btemp+14, btem
      +p+15, btemp+16, btemp+17, btemp+18, btemp+19, btemp+20, btemp+21, btemp+22, btemp+23, btemp+24, btemp+25, btemp+26, btem
      +p+27, btemp+28, btemp+29, btemp+30, btemp+31, tosl, structret, tblptrl, tblptrh, tblptru, prodl, prodh, cstack
  1184 ;; Tracked objects:
  1185 ;;		On entry : 0/F
  1186 ;;		On exit  : 0/0
  1187 ;;		Unchanged: 0/0
  1188 ;; Data sizes:     COMRAM   BANK0   BANK1   BANK2   BANK3   BANK4   BANK5   BANK6   BANK7   BANK8   BANK9  BANK10  BANK1
      +1  BANK12  BANK13  BANK14  BANK15
  1189 ;;      Params:         0       0       0       0       0       0       0       0       0       0       0       0       
      +0       0       0       0       0
  1190 ;;      Locals:         0       0       0       0       0       0       0       0       0       0       0       0       
      +0       0       0       0       0
  1191 ;;      Temps:          0       0       0       0       0       0       0       0       0       0       0       0       
      +0       0       0       0       0
  1192 ;;      Totals:         0       0       0       0       0       0       0       0       0       0       0       0       
      +0       0       0       0       0
  1193 ;;Total ram usage:        0 bytes
  1194 ;; Hardware stack levels used: 1
  1195 ;; Hardware stack levels required when called: unknown (due to recursion)
  1196 ;; This function calls:
  1197 ;;		_fsm_dispatch
  1198 ;; This function is called by:
  1199 ;;		_main
  1200 ;; This function uses a reentrant model
  1201 ;;
  1202                           
  1203                           	psect	text2
  1204   0052BA                     __ptext2:
  1205                           	callstack 0
  1206   0052BA                     _fsm_init:
  1207                           	callstack 31
  1208   0052BA                     
  1209                           ;fsm.c: 16:     fsm->state = init_state;
  1210                           ;stkvar	_init_state @ sp[(0)+-4]
  1211   0052BA  50E1               	movf	fsr1l,w,c
  1212   0052BC  0FFC               	addlw	-4
  1213   0052BE  6ED9               	movwf	fsr2l,c
  1214   0052C0  50E2               	movf	fsr1h,w,c
  1215   0052C2  6EDA               	movwf	fsr2h,c
  1216   0052C4  0EFF               	movlw	255
  1217   0052C6  22DA               	addwfc	fsr2h,f,c
  1218                           
  1219                           ;stkvar	_fsm @ sp[(0)+-2]
  1220   0052C8  0EFE               	movlw	-2
  1221   0052CA  CFE3 FFE9          	movff	plusw1,fsr0l
  1222   0052CE  0EFF               	movlw	-1
  1223   0052D0  CFE3 FFEA          	movff	plusw1,fsr0h
  1224   0052D4  CFDE FFEE          	movff	postinc2,postinc0
  1225   0052D8  CFDD FFED          	movff	postdec2,postdec0
  1226   0052DC                     
  1227                           ;fsm.c: 17:     fsm_dispatch(fsm, 1U);
  1228   0052DC  0E01               	movlw	1
  1229   0052DE  6EE6               	movwf	postinc1,c
  1230                           
  1231                           ;stkvar	_fsm @ sp[(-1)+-2]
  1232   0052E0  0EFD               	movlw	-3
  1233   0052E2  CFE3 FFE6          	movff	plusw1,postinc1
  1234   0052E6  CFE3 FFE6          	movff	plusw1,postinc1
  1235   0052EA  EC1C  F029         	call	_fsm_dispatch	;wreg free
  1236   0052EE                     
  1237                           ; _fsm_init: autosize = 0, savesize = 0, parsavesize = 0, tempsize = 0 parsize = 4, args
      +                          ize = 4, vargsize = 0
  1238   0052EE  52E5               	movf	postdec1,f,c
  1239   0052F0  52E5               	movf	postdec1,f,c
  1240   0052F2  52E5               	movf	postdec1,f,c
  1241   0052F4  52E5               	movf	postdec1,f,c
  1242   0052F6  0012               	return		;funcret
  1243   0052F8                     __end_of_fsm_init:
  1244                           	callstack 0
  1245                           
  1246 ;; *************** function _fsm_get_event *****************
  1247 ;; Defined at:
  1248 ;;		line 10 in file "fsm.c"
  1249 ;; Parameters:    Size  Location     Type
  1250 ;;  out             2  [STACK] PTR unsigned char 
  1251 ;;		 -> event(1), 
  1252 ;; Auto vars:     Size  Location     Type
  1253 ;;		None
  1254 ;; Return value:  Size  Location     Type
  1255 ;;                  1  [STACK] unsigned char 
  1256 ;; Registers used:
  1257 ;;		wreg, fsr0l, fsr0h, fsr1l, fsr1h, fsr2l, fsr2h, status,2, status,0, btemp, btemp+8, btemp+9, btemp+10, btemp+11
  1258 ;; Tracked objects:
  1259 ;;		On entry : 0/F
  1260 ;;		On exit  : 0/0
  1261 ;;		Unchanged: 0/0
  1262 ;; Data sizes:     COMRAM   BANK0   BANK1   BANK2   BANK3   BANK4   BANK5   BANK6   BANK7   BANK8   BANK9  BANK10  BANK1
      +1  BANK12  BANK13  BANK14  BANK15
  1263 ;;      Params:         0       0       0       0       0       0       0       0       0       0       0       0       
      +0       0       0       0       0
  1264 ;;      Locals:         0       0       0       0       0       0       0       0       0       0       0       0       
      +0       0       0       0       0
  1265 ;;      Temps:          0       0       0       0       0       0       0       0       0       0       0       0       
      +0       0       0       0       0
  1266 ;;      Totals:         0       0       0       0       0       0       0       0       0       0       0       0       
      +0       0       0       0       0
  1267 ;;Total ram usage:        0 bytes
  1268 ;; Hardware stack levels used: 1
  1269 ;; Hardware stack levels required when called: 8
  1270 ;; This function calls:
  1271 ;;		_get_evt
  1272 ;; This function is called by:
  1273 ;;		_main
  1274 ;; This function uses a reentrant model
  1275 ;;
  1276                           
  1277                           	psect	text3
  1278   0053A2                     __ptext3:
  1279                           	callstack 0
  1280   0053A2                     _fsm_get_event:
  1281                           	callstack 22
  1282   0053A2                     
  1283                           ;fsm.c: 11:  return get_evt(&event_queue, out);
  1284                           ;stkvar	_out @ sp[(0)+-2]
  1285   0053A2  0EFE               	movlw	-2
  1286   0053A4  CFE3 FFE6          	movff	plusw1,postinc1
  1287   0053A8  CFE3 FFE6          	movff	plusw1,postinc1
  1288   0053AC  0EB0               	movlw	low _event_queue
  1289   0053AE  6EE6               	movwf	postinc1,c
  1290   0053B0  0E00               	movlw	high _event_queue
  1291   0053B2  6EE6               	movwf	postinc1,c
  1292   0053B4  ECEF  F01F         	call	_get_evt	;wreg free
  1293   0053B8                     
  1294                           ; _fsm_get_event: autosize = 0, savesize = 0, parsavesize = 0, tempsize = 0 parsize = 2,
      +                           argsize = 2, vargsize = 0
  1295   0053B8  52E5               	movf	postdec1,f,c
  1296   0053BA  52E5               	movf	postdec1,f,c
  1297   0053BC  0012               	return		;funcret
  1298   0053BE                     __end_of_fsm_get_event:
  1299                           	callstack 0
  1300                           
  1301 ;; *************** function _get_evt *****************
  1302 ;; Defined at:
  1303 ;;		line 9 in file "evt_queue.c"
  1304 ;; Parameters:    Size  Location     Type
  1305 ;;  queue           2  [STACK] PTR volatile struct .
  1306 ;;		 -> event_queue(34), 
  1307 ;;  out             2  [STACK] PTR unsigned char 
  1308 ;;		 -> event(1), 
  1309 ;; Auto vars:     Size  Location     Type
  1310 ;;  tmp             1  [STACK] unsigned char 
  1311 ;; Return value:  Size  Location     Type
  1312 ;;                  1  [STACK] unsigned char 
  1313 ;; Registers used:
  1314 ;;		wreg, fsr0l, fsr0h, fsr1l, fsr1h, fsr2l, fsr2h, status,2, status,0, btemp, btemp+8, btemp+9, btemp+10, btemp+11
  1315 ;; Tracked objects:
  1316 ;;		On entry : 0/F
  1317 ;;		On exit  : 0/0
  1318 ;;		Unchanged: 0/0
  1319 ;; Data sizes:     COMRAM   BANK0   BANK1   BANK2   BANK3   BANK4   BANK5   BANK6   BANK7   BANK8   BANK9  BANK10  BANK1
      +1  BANK12  BANK13  BANK14  BANK15
  1320 ;;      Params:         0       0       0       0       0       0       0       0       0       0       0       0       
      +0       0       0       0       0
  1321 ;;      Locals:         0       0       0       0       0       0       0       0       0       0       0       0       
      +0       0       0       0       0
  1322 ;;      Temps:          0       0       0       0       0       0       0       0       0       0       0       0       
      +0       0       0       0       0
  1323 ;;      Totals:         0       0       0       0       0       0       0       0       0       0       0       0       
      +0       0       0       0       0
  1324 ;;Total ram usage:        0 bytes
  1325 ;; Hardware stack levels used: 1
  1326 ;; Hardware stack levels required when called: 7
  1327 ;; This function calls:
  1328 ;;		Nothing
  1329 ;; This function is called by:
  1330 ;;		_fsm_get_event
  1331 ;; This function uses a reentrant model
  1332 ;;
  1333                           
  1334                           	psect	text4
  1335   003FDE                     __ptext4:
  1336                           	callstack 0
  1337   003FDE                     _get_evt:
  1338                           	callstack 0
  1339                           
  1340                           ; autosize = 1, savesize = 0, parsavesize = 0, tempsize = 0 parsize = 4, argsize = 4 var
      +                          gsize = 0, retsize = 0 argfudge = 0
  1341   003FDE  52E6               	movf	postinc1,f,c
  1342   003FE0                     
  1343                           ;evt_queue.c: 10:     while(queue->head == queue->tail){
  1344   003FE0  EFF6  F01F         	goto	l4692
  1345   003FE4                     l4688:
  1346                           
  1347                           ;evt_queue.c: 11:      return 0;
  1348   003FE4  0E00               	movlw	0
  1349   003FE6  6E01               	movwf	btemp^0,c
  1350   003FE8  EF72  F020         	goto	l10
  1351   003FEC                     l4692:
  1352                           
  1353                           ;evt_queue.c: 10:     while(queue->head == queue->tail){
  1354                           ;stkvar	_queue @ sp[(-1)+-2]
  1355   003FEC  0EFD               	movlw	-3
  1356   003FEE  CFE3 F00B          	movff	plusw1,btemp+10
  1357   003FF2  0EFE               	movlw	-2
  1358   003FF4  CFE3 F00C          	movff	plusw1,btemp+11
  1359   003FF8  0E20               	movlw	32
  1360   003FFA  240B               	addwf	(btemp+10)^0,w,c
  1361   003FFC  6ED9               	movwf	fsr2l,c
  1362   003FFE  0E00               	movlw	0
  1363   004000  200C               	addwfc	(btemp+11)^0,w,c
  1364   004002  6EDA               	movwf	fsr2h,c
  1365   004004  50DF               	movf	223,w,c
  1366   004006  0B1F               	andlw	31
  1367   004008  6E0C               	movwf	(btemp+11)^0,c
  1368                           
  1369                           ;stkvar	_queue @ sp[(-1)+-2]
  1370   00400A  0EFD               	movlw	-3
  1371   00400C  CFE3 F009          	movff	plusw1,btemp+8
  1372   004010  0EFE               	movlw	-2
  1373   004012  CFE3 F00A          	movff	plusw1,btemp+9
  1374   004016  0E21               	movlw	33
  1375   004018  2409               	addwf	(btemp+8)^0,w,c
  1376   00401A  6ED9               	movwf	fsr2l,c
  1377   00401C  0E00               	movlw	0
  1378   00401E  200A               	addwfc	(btemp+9)^0,w,c
  1379   004020  6EDA               	movwf	fsr2h,c
  1380   004022  50DF               	movf	223,w,c
  1381   004024  0B1F               	andlw	31
  1382   004026  180C               	xorwf	(btemp+11)^0,w,c
  1383   004028  B4D8               	btfsc	status,2,c
  1384   00402A  EF19  F020         	goto	u4841
  1385   00402E  EF1B  F020         	goto	u4840
  1386   004032                     u4841:
  1387   004032  EFF2  F01F         	goto	l4688
  1388   004036                     u4840:
  1389   004036                     
  1390                           ;evt_queue.c: 14:  char tmp = (GIE & 0b1); GIE=0;;
  1391   004036  BEF2               	btfsc	4082,7,c	;volatile
  1392   004038  EF20  F020         	goto	u4851
  1393   00403C  EF24  F020         	goto	u4850
  1394   004040                     u4851:
  1395   004040  6A0C               	clrf	(btemp+11)^0,c
  1396   004042  2A0C               	incf	(btemp+11)^0,f,c
  1397   004044  EF25  F020         	goto	u4868
  1398   004048                     u4850:
  1399   004048  6A0C               	clrf	(btemp+11)^0,c
  1400   00404A                     u4868:
  1401   00404A  0E01               	movlw	1
  1402   00404C  160C               	andwf	(btemp+11)^0,f,c
  1403                           
  1404                           ;stkvar	_tmp @ sp[(-1)+0]
  1405   00404E  0EFF               	movlw	-1
  1406   004050  C00C  FFE3         	movff	btemp+11,plusw1
  1407   004054  9EF2               	bcf	4082,7,c	;volatile
  1408   004056                     
  1409                           ;evt_queue.c: 15:     *out = queue->fifo[queue->tail++];
  1410                           ;stkvar	_queue @ sp[(-1)+-2]
  1411   004056  0EFD               	movlw	-3
  1412   004058  CFE3 F00B          	movff	plusw1,btemp+10
  1413   00405C  0EFE               	movlw	-2
  1414   00405E  CFE3 F00C          	movff	plusw1,btemp+11
  1415   004062  0E21               	movlw	33
  1416   004064  240B               	addwf	(btemp+10)^0,w,c
  1417   004066  6ED9               	movwf	fsr2l,c
  1418   004068  0E00               	movlw	0
  1419   00406A  200C               	addwfc	(btemp+11)^0,w,c
  1420   00406C  6EDA               	movwf	fsr2h,c
  1421   00406E  50DF               	movf	223,w,c
  1422   004070  0B1F               	andlw	31
  1423   004072  6E0C               	movwf	(btemp+11)^0,c
  1424                           
  1425                           ;stkvar	_queue @ sp[(-1)+-2]
  1426   004074  0EFD               	movlw	-3
  1427   004076  CFE3 F009          	movff	plusw1,btemp+8
  1428   00407A  0EFE               	movlw	-2
  1429   00407C  CFE3 F00A          	movff	plusw1,btemp+9
  1430   004080  500C               	movf	(btemp+11)^0,w,c
  1431   004082  2409               	addwf	(btemp+8)^0,w,c
  1432   004084  6ED9               	movwf	fsr2l,c
  1433   004086  0E00               	movlw	0
  1434   004088  200A               	addwfc	(btemp+9)^0,w,c
  1435   00408A  6EDA               	movwf	fsr2h,c
  1436                           
  1437                           ;stkvar	_out @ sp[(-1)+-4]
  1438   00408C  0EFB               	movlw	-5
  1439   00408E  CFE3 FFE9          	movff	plusw1,fsr0l
  1440   004092  0EFC               	movlw	-4
  1441   004094  CFE3 FFEA          	movff	plusw1,fsr0h
  1442   004098  CFDF FFEF          	movff	indf2,indf0
  1443   00409C                     
  1444                           ;stkvar	_queue @ sp[(-1)+-2]
  1445   00409C  0EFD               	movlw	-3
  1446   00409E  CFE3 F00B          	movff	plusw1,btemp+10
  1447   0040A2  0EFE               	movlw	-2
  1448   0040A4  CFE3 F00C          	movff	plusw1,btemp+11
  1449   0040A8  0E21               	movlw	33
  1450   0040AA  240B               	addwf	(btemp+10)^0,w,c
  1451   0040AC  6ED9               	movwf	fsr2l,c
  1452   0040AE  0E00               	movlw	0
  1453   0040B0  200C               	addwfc	(btemp+11)^0,w,c
  1454   0040B2  6EDA               	movwf	fsr2h,c
  1455   0040B4  50DF               	movf	223,w,c
  1456   0040B6  0B1F               	andlw	31
  1457   0040B8  6E0C               	movwf	(btemp+11)^0,c
  1458   0040BA  2A0C               	incf	(btemp+11)^0,f,c
  1459   0040BC  50DF               	movf	223,w,c
  1460   0040BE  180C               	xorwf	(btemp+11)^0,w,c
  1461   0040C0  0BE0               	andlw	-32
  1462   0040C2  180C               	xorwf	(btemp+11)^0,w,c
  1463   0040C4  6EDF               	movwf	223,c
  1464   0040C6                     
  1465                           ;evt_queue.c: 16:  GIE = (tmp & 0b1);;
  1466                           ;stkvar	_tmp @ sp[(-1)+0]
  1467   0040C6  0EFF               	movlw	-1
  1468   0040C8  CFE3 F00C          	movff	plusw1,btemp+11
  1469   0040CC  300C               	rrcf	(btemp+11)^0,w,c
  1470   0040CE  B0D8               	btfsc	status,0,c
  1471   0040D0  EF6C  F020         	goto	u4871
  1472   0040D4  EF6F  F020         	goto	u4870
  1473   0040D8                     u4871:
  1474   0040D8  8EF2               	bsf	4082,7,c	;volatile
  1475   0040DA  EF70  F020         	goto	u4885
  1476   0040DE                     u4870:
  1477   0040DE  9EF2               	bcf	4082,7,c	;volatile
  1478   0040E0                     u4885:
  1479   0040E0                     
  1480                           ;evt_queue.c: 17:  return 1;
  1481   0040E0  0E01               	movlw	1
  1482   0040E2  6E01               	movwf	btemp^0,c
  1483   0040E4                     l10:
  1484                           
  1485                           ; _get_evt: autosize = 1, savesize = 0, parsavesize = 0, tempsize = 0 parsize = 4, argsi
      +                          ze = 4, vargsize = 0
  1486   0040E4  0EFB               	movlw	251
  1487   0040E6  26E1               	addwf	fsr1l,f,c
  1488   0040E8  0EFF               	movlw	255
  1489   0040EA  22E2               	addwfc	fsr1h,f,c
  1490   0040EC  0012               	return		;funcret
  1491   0040EE                     __end_of_get_evt:
  1492                           	callstack 0
  1493                           
  1494 ;; *************** function _bsp_reg_RC_cb *****************
  1495 ;; Defined at:
  1496 ;;		line 82 in file "bsp.c"
  1497 ;; Parameters:    Size  Location     Type
  1498 ;;  cb              2  [STACK] PTR FTN()void 
  1499 ;;		 -> rc_isr_handle(1), 
  1500 ;; Auto vars:     Size  Location     Type
  1501 ;;		None
  1502 ;; Return value:  Size  Location     Type
  1503 ;;                  1  [STACK] void 
  1504 ;; Registers used:
  1505 ;;		wreg, fsr1l, fsr1h
  1506 ;; Tracked objects:
  1507 ;;		On entry : 0/F
  1508 ;;		On exit  : 0/0
  1509 ;;		Unchanged: 0/0
  1510 ;; Data sizes:     COMRAM   BANK0   BANK1   BANK2   BANK3   BANK4   BANK5   BANK6   BANK7   BANK8   BANK9  BANK10  BANK1
      +1  BANK12  BANK13  BANK14  BANK15
  1511 ;;      Params:         0       0       0       0       0       0       0       0       0       0       0       0       
      +0       0       0       0       0
  1512 ;;      Locals:         0       0       0       0       0       0       0       0       0       0       0       0       
      +0       0       0       0       0
  1513 ;;      Temps:          0       0       0       0       0       0       0       0       0       0       0       0       
      +0       0       0       0       0
  1514 ;;      Totals:         0       0       0       0       0       0       0       0       0       0       0       0       
      +0       0       0       0       0
  1515 ;;Total ram usage:        0 bytes
  1516 ;; Hardware stack levels used: 1
  1517 ;; Hardware stack levels required when called: 7
  1518 ;; This function calls:
  1519 ;;		Nothing
  1520 ;; This function is called by:
  1521 ;;		_main
  1522 ;; This function uses a reentrant model
  1523 ;;
  1524                           
  1525                           	psect	text5
  1526   005404                     __ptext5:
  1527                           	callstack 0
  1528   005404                     _bsp_reg_RC_cb:
  1529                           	callstack 23
  1530   005404                     
  1531                           ;bsp.c: 84:     RC_isr_cb = cb;
  1532                           ;stkvar	_cb @ sp[(0)+-2]
  1533   005404  0EFE               	movlw	-2
  1534   005406  CFE3 F039          	movff	plusw1,_RC_isr_cb
  1535   00540A  0EFF               	movlw	-1
  1536   00540C  CFE3 F03A          	movff	plusw1,_RC_isr_cb+1
  1537   005410                     
  1538                           ; _bsp_reg_RC_cb: autosize = 0, savesize = 0, parsavesize = 0, tempsize = 0 parsize = 2,
      +                           argsize = 2, vargsize = 0
  1539   005410  52E5               	movf	postdec1,f,c
  1540   005412  52E5               	movf	postdec1,f,c
  1541   005414  0012               	return		;funcret
  1542   005416                     __end_of_bsp_reg_RC_cb:
  1543                           	callstack 0
  1544                           
  1545 ;; *************** function _bsp_init *****************
  1546 ;; Defined at:
  1547 ;;		line 9 in file "bsp.c"
  1548 ;; Parameters:    Size  Location     Type
  1549 ;;		None
  1550 ;; Auto vars:     Size  Location     Type
  1551 ;;		None
  1552 ;; Return value:  Size  Location     Type
  1553 ;;                  1  [STACK] void 
  1554 ;; Registers used:
  1555 ;;		wreg, status,2
  1556 ;; Tracked objects:
  1557 ;;		On entry : 0/0
  1558 ;;		On exit  : 3F/F
  1559 ;;		Unchanged: 0/0
  1560 ;; Data sizes:     COMRAM   BANK0   BANK1   BANK2   BANK3   BANK4   BANK5   BANK6   BANK7   BANK8   BANK9  BANK10  BANK1
      +1  BANK12  BANK13  BANK14  BANK15
  1561 ;;      Params:         0       0       0       0       0       0       0       0       0       0       0       0       
      +0       0       0       0       0
  1562 ;;      Locals:         0       0       0       0       0       0       0       0       0       0       0       0       
      +0       0       0       0       0
  1563 ;;      Temps:          0       0       0       0       0       0       0       0       0       0       0       0       
      +0       0       0       0       0
  1564 ;;      Totals:         0       0       0       0       0       0       0       0       0       0       0       0       
      +0       0       0       0       0
  1565 ;;Total ram usage:        0 bytes
  1566 ;; Hardware stack levels used: 1
  1567 ;; Hardware stack levels required when called: 7
  1568 ;; This function calls:
  1569 ;;		Nothing
  1570 ;; This function is called by:
  1571 ;;		_main
  1572 ;; This function uses a reentrant model
  1573 ;;
  1574                           
  1575                           	psect	text6
  1576   005040                     __ptext6:
  1577                           	callstack 0
  1578   005040                     _bsp_init:
  1579                           	callstack 23
  1580   005040                     
  1581                           ;bsp.c: 11:     TRISCbits.RC0 = 1;
  1582   005040  8094               	bsf	148,0,c	;volatile
  1583                           
  1584                           ;bsp.c: 12:     TRISAbits.RA4 = 1;
  1585   005042  8892               	bsf	146,4,c	;volatile
  1586                           
  1587                           ;bsp.c: 13:     TRISAbits.RA3 = 1;
  1588   005044  8692               	bsf	146,3,c	;volatile
  1589                           
  1590                           ;bsp.c: 14:     TRISAbits.RA2 = 1;
  1591   005046  8492               	bsf	146,2,c	;volatile
  1592                           
  1593                           ;bsp.c: 17:     TRISDbits.RD2 = 0;
  1594   005048  9495               	bcf	149,2,c	;volatile
  1595                           
  1596                           ;bsp.c: 18:     TRISDbits.RD3 = 0;
  1597   00504A  9695               	bcf	149,3,c	;volatile
  1598                           
  1599                           ;bsp.c: 19:     TRISCbits.RC4 = 0;
  1600   00504C  9894               	bcf	148,4,c	;volatile
  1601                           
  1602                           ;bsp.c: 20:     TRISDbits.RD4 = 0;
  1603   00504E  9895               	bcf	149,4,c	;volatile
  1604                           
  1605                           ;bsp.c: 21:     TRISDbits.RD5 = 0;
  1606   005050  9A95               	bcf	149,5,c	;volatile
  1607                           
  1608                           ;bsp.c: 22:     TRISDbits.RD6 = 0;
  1609   005052  9C95               	bcf	149,6,c	;volatile
  1610                           
  1611                           ;bsp.c: 25:     TRISBbits.TRISB5 = 0;
  1612   005054  9A93               	bcf	147,5,c	;volatile
  1613                           
  1614                           ;bsp.c: 27:     ANSELA = 0;
  1615   005056  010F               	movlb	15	; () banked
  1616   005058  6B38               	clrf	56,b	;volatile
  1617                           
  1618                           ;bsp.c: 29:     LATDbits.LD2 = 1;
  1619   00505A  848C               	bsf	140,2,c	;volatile
  1620                           
  1621                           ;bsp.c: 30:     LATDbits.LD3 = 1;
  1622   00505C  868C               	bsf	140,3,c	;volatile
  1623                           
  1624                           ;bsp.c: 31:     LATCbits.LC4 = 1;
  1625   00505E  888B               	bsf	139,4,c	;volatile
  1626                           
  1627                           ;bsp.c: 32:     LATDbits.LD4 = 1;
  1628   005060  888C               	bsf	140,4,c	;volatile
  1629                           
  1630                           ;bsp.c: 33:     LATDbits.LD5 = 1;
  1631   005062  8A8C               	bsf	140,5,c	;volatile
  1632                           
  1633                           ;bsp.c: 34:     LATDbits.LD6 = 1;
  1634   005064  8C8C               	bsf	140,6,c	;volatile
  1635   005066                     
  1636                           ; BSR set to: 15
  1637                           ;bsp.c: 36:     T2CONbits.T2CKPS = 0b11;
  1638   005066  0E03               	movlw	3
  1639   005068  12BA               	iorwf	186,f,c	;volatile
  1640                           
  1641                           ;bsp.c: 37:     T2CONbits.T2OUTPS = 0b1001;
  1642   00506A  50BA               	movf	186,w,c	;volatile
  1643   00506C  0B87               	andlw	-121
  1644   00506E  0948               	iorlw	72
  1645   005070  6EBA               	movwf	186,c	;volatile
  1646                           
  1647                           ;bsp.c: 38:     PR2 = 250;
  1648   005072  0EFA               	movlw	250
  1649   005074  6EBB               	movwf	187,c	;volatile
  1650   005076                     
  1651                           ; BSR set to: 15
  1652                           ;bsp.c: 39:     IPR1bits.TMR2IP = 0;
  1653   005076  929F               	bcf	159,1,c	;volatile
  1654   005078                     
  1655                           ; BSR set to: 15
  1656                           ;bsp.c: 40:     TMR2IE = 1;
  1657   005078  829D               	bsf	3997,1,c	;volatile
  1658   00507A                     
  1659                           ; BSR set to: 15
  1660                           ;bsp.c: 41:     TMR2IF = 0;
  1661   00507A  929E               	bcf	3998,1,c	;volatile
  1662                           
  1663                           ;bsp.c: 43:     T6CONbits.T6CKPS = 0b11;
  1664   00507C  0E03               	movlw	3
  1665   00507E  134A               	iorwf	74,f,b	;volatile
  1666                           
  1667                           ;bsp.c: 44:     T6CONbits.T6OUTPS = 0b0100;
  1668   005080  514A               	movf	74,w,b	;volatile
  1669   005082  0B87               	andlw	-121
  1670   005084  0920               	iorlw	32
  1671   005086  6F4A               	movwf	74,b	;volatile
  1672                           
  1673                           ;bsp.c: 45:     PR6 = 100;
  1674   005088  0E64               	movlw	100
  1675   00508A  6F4B               	movwf	75,b	;volatile
  1676   00508C                     
  1677                           ; BSR set to: 15
  1678                           ;bsp.c: 46:     TMR6IE = 1;
  1679   00508C  847D               	bsf	3965,2,c	;volatile
  1680   00508E                     
  1681                           ; BSR set to: 15
  1682                           ;bsp.c: 47:     TMR6IF = 0;
  1683   00508E  947E               	bcf	3966,2,c	;volatile
  1684                           
  1685                           ;bsp.c: 50:     T1CONbits.TMR1CS = 0b00;
  1686   005090  0E3F               	movlw	-193
  1687   005092  16CD               	andwf	205,f,c	;volatile
  1688                           
  1689                           ;bsp.c: 51:     T1CONbits.T1CKPS = 0b11;
  1690   005094  0E30               	movlw	48
  1691   005096  12CD               	iorwf	205,f,c	;volatile
  1692   005098                     
  1693                           ; BSR set to: 15
  1694                           ;bsp.c: 52:     TMR1IE = 1;
  1695   005098  809D               	bsf	3997,0,c	;volatile
  1696   00509A                     
  1697                           ; BSR set to: 15
  1698                           ;bsp.c: 53:     TMR1IF = 0;
  1699   00509A  909E               	bcf	3998,0,c	;volatile
  1700   00509C                     
  1701                           ; BSR set to: 15
  1702                           ;bsp.c: 55:     IPEN = 1;
  1703   00509C  8ED0               	bsf	4048,7,c	;volatile
  1704   00509E                     
  1705                           ; BSR set to: 15
  1706                           ; _bsp_init: autosize = 0, savesize = 0, parsavesize = 0, tempsize = 0 parsize = 0, args
      +                          ize = 0, vargsize = 0
  1707   00509E  0012               	return		;funcret
  1708   0050A0                     __end_of_bsp_init:
  1709                           	callstack 0
  1710                           
  1711 ;; *************** function _adc_init *****************
  1712 ;; Defined at:
  1713 ;;		line 3 in file "adc.c"
  1714 ;; Parameters:    Size  Location     Type
  1715 ;;		None
  1716 ;; Auto vars:     Size  Location     Type
  1717 ;;		None
  1718 ;; Return value:  Size  Location     Type
  1719 ;;                  1  [STACK] void 
  1720 ;; Registers used:
  1721 ;;		wreg, status,2, status,0
  1722 ;; Tracked objects:
  1723 ;;		On entry : 3F/F
  1724 ;;		On exit  : 3F/F
  1725 ;;		Unchanged: 0/0
  1726 ;; Data sizes:     COMRAM   BANK0   BANK1   BANK2   BANK3   BANK4   BANK5   BANK6   BANK7   BANK8   BANK9  BANK10  BANK1
      +1  BANK12  BANK13  BANK14  BANK15
  1727 ;;      Params:         0       0       0       0       0       0       0       0       0       0       0       0       
      +0       0       0       0       0
  1728 ;;      Locals:         0       0       0       0       0       0       0       0       0       0       0       0       
      +0       0       0       0       0
  1729 ;;      Temps:          0       0       0       0       0       0       0       0       0       0       0       0       
      +0       0       0       0       0
  1730 ;;      Totals:         0       0       0       0       0       0       0       0       0       0       0       0       
      +0       0       0       0       0
  1731 ;;Total ram usage:        0 bytes
  1732 ;; Hardware stack levels used: 1
  1733 ;; Hardware stack levels required when called: 7
  1734 ;; This function calls:
  1735 ;;		Nothing
  1736 ;; This function is called by:
  1737 ;;		_main
  1738 ;; This function uses a reentrant model
  1739 ;;
  1740                           
  1741                           	psect	text7
  1742   005384                     __ptext7:
  1743                           	callstack 0
  1744   005384                     _adc_init:
  1745                           	callstack 23
  1746   005384                     
  1747                           ;adc.c: 5:     ANSELA |= (1 << 5);
  1748   005384  010F               	movlb	15	; () banked
  1749   005386  8B38               	bsf	56,5,b	;volatile
  1750   005388                     
  1751                           ; BSR set to: 15
  1752                           ;adc.c: 6:     ANSELE = 0b1;
  1753   005388  0E01               	movlw	1
  1754   00538A  6F3C               	movwf	60,b	;volatile
  1755   00538C                     
  1756                           ; BSR set to: 15
  1757                           ;adc.c: 8:     ADCON2bits.ADFM = 1;
  1758   00538C  8EC0               	bsf	192,7,c	;volatile
  1759   00538E                     
  1760                           ; BSR set to: 15
  1761                           ;adc.c: 9:     ADCON2bits.ADCS = 0b110;
  1762   00538E  50C0               	movf	192,w,c	;volatile
  1763   005390  0BF8               	andlw	-8
  1764   005392  0906               	iorlw	6
  1765   005394  6EC0               	movwf	192,c	;volatile
  1766   005396                     
  1767                           ; BSR set to: 15
  1768                           ;adc.c: 10:     ADCON2bits.ACQT = 0b110;
  1769   005396  50C0               	movf	192,w,c	;volatile
  1770   005398  0BC7               	andlw	-57
  1771   00539A  0930               	iorlw	48
  1772   00539C  6EC0               	movwf	192,c	;volatile
  1773   00539E                     
  1774                           ; BSR set to: 15
  1775                           ;adc.c: 11:     ADCON0bits.ADON = 1;
  1776   00539E  80C2               	bsf	194,0,c	;volatile
  1777   0053A0                     
  1778                           ; BSR set to: 15
  1779                           ; _adc_init: autosize = 0, savesize = 0, parsavesize = 0, tempsize = 0 parsize = 0, args
      +                          ize = 0, vargsize = 0
  1780   0053A0  0012               	return		;funcret
  1781   0053A2                     __end_of_adc_init:
  1782                           	callstack 0
  1783                           
  1784 ;; *************** function _LCD_Init *****************
  1785 ;; Defined at:
  1786 ;;		line 6 in file "lcd.c"
  1787 ;; Parameters:    Size  Location     Type
  1788 ;;		None
  1789 ;; Auto vars:     Size  Location     Type
  1790 ;;		None
  1791 ;; Return value:  Size  Location     Type
  1792 ;;                  1  [STACK] void 
  1793 ;; Registers used:
  1794 ;;		wreg, fsr1l, fsr1h, status,2, btemp
  1795 ;; Tracked objects:
  1796 ;;		On entry : 3F/F
  1797 ;;		On exit  : 0/0
  1798 ;;		Unchanged: 0/0
  1799 ;; Data sizes:     COMRAM   BANK0   BANK1   BANK2   BANK3   BANK4   BANK5   BANK6   BANK7   BANK8   BANK9  BANK10  BANK1
      +1  BANK12  BANK13  BANK14  BANK15
  1800 ;;      Params:         0       0       0       0       0       0       0       0       0       0       0       0       
      +0       0       0       0       0
  1801 ;;      Locals:         0       0       0       0       0       0       0       0       0       0       0       0       
      +0       0       0       0       0
  1802 ;;      Temps:          0       0       0       0       0       0       0       0       0       0       0       0       
      +0       0       0       0       0
  1803 ;;      Totals:         0       0       0       0       0       0       0       0       0       0       0       0       
      +0       0       0       0       0
  1804 ;;Total ram usage:        0 bytes
  1805 ;; Hardware stack levels used: 1
  1806 ;; Hardware stack levels required when called: 8
  1807 ;; This function calls:
  1808 ;;		_LCD_Send
  1809 ;; This function is called by:
  1810 ;;		_main
  1811 ;; This function uses a reentrant model
  1812 ;;
  1813                           
  1814                           	psect	text8
  1815   0040EE                     __ptext8:
  1816                           	callstack 0
  1817   0040EE                     _LCD_Init:
  1818                           	callstack 22
  1819   0040EE                     
  1820                           ;lcd.c: 8:     ANSELDbits.ANSD0 = 0;
  1821   0040EE  010F               	movlb	15	; () banked
  1822   0040F0  913B               	bcf	59,0,b	;volatile
  1823                           
  1824                           ;lcd.c: 9:     ANSELDbits.ANSD1 = 0;
  1825   0040F2  933B               	bcf	59,1,b	;volatile
  1826                           
  1827                           ;lcd.c: 11:     TRISDbits.TRISD0 = 1;
  1828   0040F4  8095               	bsf	149,0,c	;volatile
  1829                           
  1830                           ;lcd.c: 12:     TRISDbits.TRISD1 = 1;
  1831   0040F6  8295               	bsf	149,1,c	;volatile
  1832                           
  1833                           ;lcd.c: 13:     TRISAbits.TRISA0 = 0;
  1834   0040F8  9092               	bcf	146,0,c	;volatile
  1835                           
  1836                           ;lcd.c: 14:     LATAbits.LATA0 = 1;
  1837   0040FA  8089               	bsf	137,0,c	;volatile
  1838   0040FC                     
  1839                           ; BSR set to: 15
  1840                           ;lcd.c: 17:     SSP2CON1bits.SSPM = 0b1000;
  1841   0040FC  506C               	movf	108,w,c	;volatile
  1842   0040FE  0BF0               	andlw	-16
  1843   004100  0908               	iorlw	8
  1844   004102  6E6C               	movwf	108,c	;volatile
  1845                           
  1846                           ;lcd.c: 18:     SSP2ADD = 19;
  1847   004104  0E13               	movlw	19
  1848   004106  6E6E               	movwf	110,c	;volatile
  1849   004108                     
  1850                           ; BSR set to: 15
  1851                           ;lcd.c: 19:     SSP2CON1bits.SSPEN = 1;
  1852   004108  8A6C               	bsf	108,5,c	;volatile
  1853   00410A                     
  1854                           ; BSR set to: 15
  1855                           ;lcd.c: 21:     _delay((unsigned long)((5)*(32E6/4000.0)));
  1856   00410A  0E34               	movlw	52
  1857   00410C  6E01               	movwf	btemp^0,c
  1858   00410E  0EF2               	movlw	242
  1859   004110                     u5247:
  1860   004110  2EE8               	decfsz	wreg,f,c
  1861   004112  D7FE               	bra	u5247
  1862   004114  2E01               	decfsz	btemp^0,f,c
  1863   004116  D7FC               	bra	u5247
  1864   004118                     
  1865                           ;lcd.c: 23:     SSP2CON2bits.SEN = 1;
  1866   004118  806B               	bsf	107,0,c	;volatile
  1867   00411A                     l86:
  1868   00411A  B06B               	btfsc	107,0,c	;volatile
  1869   00411C  EF92  F020         	goto	u4891
  1870   004120  EF94  F020         	goto	u4890
  1871   004124                     u4891:
  1872   004124  EF8D  F020         	goto	l86
  1873   004128                     u4890:
  1874   004128                     
  1875                           ;lcd.c: 25:     SSP2IF = 0;
  1876   004128  9EA4               	bcf	4004,7,c	;volatile
  1877   00412A                     
  1878                           ;lcd.c: 30:     LCD_Send(0x7C);
  1879   00412A  0E7C               	movlw	124
  1880   00412C  6EE6               	movwf	postinc1,c
  1881   00412E  ECAE  F029         	call	_LCD_Send	;wreg free
  1882                           
  1883                           ;lcd.c: 31:     LCD_Send(0x80);
  1884   004132  0E80               	movlw	128
  1885   004134  6EE6               	movwf	postinc1,c
  1886   004136  ECAE  F029         	call	_LCD_Send	;wreg free
  1887                           
  1888                           ;lcd.c: 32:     LCD_Send(0x38);
  1889   00413A  0E38               	movlw	56
  1890   00413C  6EE6               	movwf	postinc1,c
  1891   00413E  ECAE  F029         	call	_LCD_Send	;wreg free
  1892                           
  1893                           ;lcd.c: 33:     LCD_Send(0x80);
  1894   004142  0E80               	movlw	128
  1895   004144  6EE6               	movwf	postinc1,c
  1896   004146  ECAE  F029         	call	_LCD_Send	;wreg free
  1897                           
  1898                           ;lcd.c: 34:     LCD_Send(0x39);
  1899   00414A  0E39               	movlw	57
  1900   00414C  6EE6               	movwf	postinc1,c
  1901   00414E  ECAE  F029         	call	_LCD_Send	;wreg free
  1902                           
  1903                           ;lcd.c: 35:     LCD_Send(0x80);
  1904   004152  0E80               	movlw	128
  1905   004154  6EE6               	movwf	postinc1,c
  1906   004156  ECAE  F029         	call	_LCD_Send	;wreg free
  1907                           
  1908                           ;lcd.c: 36:     LCD_Send(0x17);
  1909   00415A  0E17               	movlw	23
  1910   00415C  6EE6               	movwf	postinc1,c
  1911   00415E  ECAE  F029         	call	_LCD_Send	;wreg free
  1912                           
  1913                           ;lcd.c: 37:     LCD_Send(0x80);
  1914   004162  0E80               	movlw	128
  1915   004164  6EE6               	movwf	postinc1,c
  1916   004166  ECAE  F029         	call	_LCD_Send	;wreg free
  1917                           
  1918                           ;lcd.c: 38:     LCD_Send(0x7A);
  1919   00416A  0E7A               	movlw	122
  1920   00416C  6EE6               	movwf	postinc1,c
  1921   00416E  ECAE  F029         	call	_LCD_Send	;wreg free
  1922                           
  1923                           ;lcd.c: 39:     LCD_Send(0x80);
  1924   004172  0E80               	movlw	128
  1925   004174  6EE6               	movwf	postinc1,c
  1926   004176  ECAE  F029         	call	_LCD_Send	;wreg free
  1927                           
  1928                           ;lcd.c: 40:     LCD_Send(0x5E);
  1929   00417A  0E5E               	movlw	94
  1930   00417C  6EE6               	movwf	postinc1,c
  1931   00417E  ECAE  F029         	call	_LCD_Send	;wreg free
  1932                           
  1933                           ;lcd.c: 41:     LCD_Send(0x80);
  1934   004182  0E80               	movlw	128
  1935   004184  6EE6               	movwf	postinc1,c
  1936   004186  ECAE  F029         	call	_LCD_Send	;wreg free
  1937                           
  1938                           ;lcd.c: 42:     LCD_Send(0x6B);
  1939   00418A  0E6B               	movlw	107
  1940   00418C  6EE6               	movwf	postinc1,c
  1941   00418E  ECAE  F029         	call	_LCD_Send	;wreg free
  1942                           
  1943                           ;lcd.c: 43:     LCD_Send(0x80);
  1944   004192  0E80               	movlw	128
  1945   004194  6EE6               	movwf	postinc1,c
  1946   004196  ECAE  F029         	call	_LCD_Send	;wreg free
  1947                           
  1948                           ;lcd.c: 44:     LCD_Send(0x0C);
  1949   00419A  0E0C               	movlw	12
  1950   00419C  6EE6               	movwf	postinc1,c
  1951   00419E  ECAE  F029         	call	_LCD_Send	;wreg free
  1952                           
  1953                           ;lcd.c: 45:     LCD_Send(0x80);
  1954   0041A2  0E80               	movlw	128
  1955   0041A4  6EE6               	movwf	postinc1,c
  1956   0041A6  ECAE  F029         	call	_LCD_Send	;wreg free
  1957                           
  1958                           ;lcd.c: 46:     LCD_Send(0x01);
  1959   0041AA  0E01               	movlw	1
  1960   0041AC  6EE6               	movwf	postinc1,c
  1961   0041AE  ECAE  F029         	call	_LCD_Send	;wreg free
  1962                           
  1963                           ;lcd.c: 47:     LCD_Send(0x80);
  1964   0041B2  0E80               	movlw	128
  1965   0041B4  6EE6               	movwf	postinc1,c
  1966   0041B6  ECAE  F029         	call	_LCD_Send	;wreg free
  1967                           
  1968                           ;lcd.c: 48:     LCD_Send(0x06);
  1969   0041BA  0E06               	movlw	6
  1970   0041BC  6EE6               	movwf	postinc1,c
  1971   0041BE  ECAE  F029         	call	_LCD_Send	;wreg free
  1972                           
  1973                           ;lcd.c: 49:     LCD_Send(0x80);
  1974   0041C2  0E80               	movlw	128
  1975   0041C4  6EE6               	movwf	postinc1,c
  1976   0041C6  ECAE  F029         	call	_LCD_Send	;wreg free
  1977                           
  1978                           ;lcd.c: 50:     LCD_Send(0x02);
  1979   0041CA  0E02               	movlw	2
  1980   0041CC  6EE6               	movwf	postinc1,c
  1981   0041CE  ECAE  F029         	call	_LCD_Send	;wreg free
  1982   0041D2                     
  1983                           ;lcd.c: 52:     SSP2CON2bits.PEN = 1;
  1984   0041D2  846B               	bsf	107,2,c	;volatile
  1985   0041D4                     l89:
  1986   0041D4  B46B               	btfsc	107,2,c	;volatile
  1987   0041D6  EFEF  F020         	goto	u4901
  1988   0041DA  EFF1  F020         	goto	u4900
  1989   0041DE                     u4901:
  1990   0041DE  EFEA  F020         	goto	l89
  1991   0041E2                     u4900:
  1992   0041E2                     
  1993                           ;lcd.c: 55:     _delay((unsigned long)((5)*(32E6/4000.0)));
  1994   0041E2  0E34               	movlw	52
  1995   0041E4  6E01               	movwf	btemp^0,c
  1996   0041E6  0EF2               	movlw	242
  1997   0041E8                     u5257:
  1998   0041E8  2EE8               	decfsz	wreg,f,c
  1999   0041EA  D7FE               	bra	u5257
  2000   0041EC  2E01               	decfsz	btemp^0,f,c
  2001   0041EE  D7FC               	bra	u5257
  2002   0041F0                     
  2003                           ; _LCD_Init: autosize = 0, savesize = 0, parsavesize = 0, tempsize = 0 parsize = 0, args
      +                          ize = 0, vargsize = 0
  2004   0041F0  0012               	return		;funcret
  2005   0041F2                     __end_of_LCD_Init:
  2006                           	callstack 0
  2007                           
  2008 ;; *************** function _fsm_transition *****************
  2009 ;; Defined at:
  2010 ;;		line 24 in file "fsm.c"
  2011 ;; Parameters:    Size  Location     Type
  2012 ;;  fsm             2  [STACK] PTR struct fsm_t
  2013 ;;		 -> fsm(2), 
  2014 ;;  new_state       2  [STACK] PTR FTN(PTR struct fsm_t
  2015 ;;		 -> uart_state(1), pot_state(1), state4(1), state3(1), 
  2016 ;;		 -> state2(1), state1(1), 
  2017 ;; Auto vars:     Size  Location     Type
  2018 ;;		None
  2019 ;; Return value:  Size  Location     Type
  2020 ;;                  1  [STACK] void 
  2021 ;; Registers used:
  2022 ;;		wreg, fsr0l, fsr0h, fsr1l, fsr1h, fsr2l, fsr2h, bsr, status,2, status,0, pcl, pclath, pclatu, btemp, btemp+1, btemp+
      +2, btemp+3, btemp+4, btemp+5, btemp+6, btemp+7, btemp+8, btemp+9, btemp+10, btemp+11, btemp+12, btemp+13, btemp+14, btem
      +p+15, btemp+16, btemp+17, btemp+18, btemp+19, btemp+20, btemp+21, btemp+22, btemp+23, btemp+24, btemp+25, btemp+26, btem
      +p+27, btemp+28, btemp+29, btemp+30, btemp+31, tosl, structret, tblptrl, tblptrh, tblptru, prodl, prodh, cstack
  2023 ;; Tracked objects:
  2024 ;;		On entry : 0/F
  2025 ;;		On exit  : 0/0
  2026 ;;		Unchanged: 0/0
  2027 ;; Data sizes:     COMRAM   BANK0   BANK1   BANK2   BANK3   BANK4   BANK5   BANK6   BANK7   BANK8   BANK9  BANK10  BANK1
      +1  BANK12  BANK13  BANK14  BANK15
  2028 ;;      Params:         0       0       0       0       0       0       0       0       0       0       0       0       
      +0       0       0       0       0
  2029 ;;      Locals:         0       0       0       0       0       0       0       0       0       0       0       0       
      +0       0       0       0       0
  2030 ;;      Temps:          0       0       0       0       0       0       0       0       0       0       0       0       
      +0       0       0       0       0
  2031 ;;      Totals:         0       0       0       0       0       0       0       0       0       0       0       0       
      +0       0       0       0       0
  2032 ;;Total ram usage:        0 bytes
  2033 ;; Hardware stack levels used: 1
  2034 ;; Hardware stack levels required when called: 7
  2035 ;; This function calls:
  2036 ;;		_fsm_dispatch
  2037 ;; This function is called by:
  2038 ;;		_init
  2039 ;;		_state1
  2040 ;;		_state2
  2041 ;;		_state3
  2042 ;;		_state4
  2043 ;;		_uart_state
  2044 ;;		_pot_state
  2045 ;; This function uses a reentrant model (it is recursive)
  2046 ;;
  2047                           
  2048                           	psect	text9
  2049   005152                     __ptext9:
  2050                           	callstack 0
  2051   005152                     _fsm_transition:
  2052                           	callstack 0
  2053   005152                     
  2054                           ;fsm.c: 25:     fsm_dispatch(fsm, 2U);
  2055   005152  0E02               	movlw	2
  2056   005154  6EE6               	movwf	postinc1,c
  2057                           
  2058                           ;stkvar	_fsm @ sp[(-1)+-2]
  2059   005156  0EFD               	movlw	-3
  2060   005158  CFE3 FFE6          	movff	plusw1,postinc1
  2061   00515C  CFE3 FFE6          	movff	plusw1,postinc1
  2062   005160  EC1C  F029         	call	_fsm_dispatch	;wreg free
  2063   005164                     
  2064                           ;fsm.c: 26:     fsm->state = new_state;
  2065                           ;stkvar	_new_state @ sp[(0)+-4]
  2066   005164  50E1               	movf	fsr1l,w,c
  2067   005166  0FFC               	addlw	-4
  2068   005168  6ED9               	movwf	fsr2l,c
  2069   00516A  50E2               	movf	fsr1h,w,c
  2070   00516C  6EDA               	movwf	fsr2h,c
  2071   00516E  0EFF               	movlw	255
  2072   005170  22DA               	addwfc	fsr2h,f,c
  2073                           
  2074                           ;stkvar	_fsm @ sp[(0)+-2]
  2075   005172  0EFE               	movlw	-2
  2076   005174  CFE3 FFE9          	movff	plusw1,fsr0l
  2077   005178  0EFF               	movlw	-1
  2078   00517A  CFE3 FFEA          	movff	plusw1,fsr0h
  2079   00517E  CFDE FFEE          	movff	postinc2,postinc0
  2080   005182  CFDD FFED          	movff	postdec2,postdec0
  2081   005186                     
  2082                           ;fsm.c: 27:     fsm_dispatch(fsm, 1U);
  2083   005186  0E01               	movlw	1
  2084   005188  6EE6               	movwf	postinc1,c
  2085                           
  2086                           ;stkvar	_fsm @ sp[(-1)+-2]
  2087   00518A  0EFD               	movlw	-3
  2088   00518C  CFE3 FFE6          	movff	plusw1,postinc1
  2089   005190  CFE3 FFE6          	movff	plusw1,postinc1
  2090   005194  EC1C  F029         	call	_fsm_dispatch	;wreg free
  2091   005198                     
  2092                           ; _fsm_transition: autosize = 0, savesize = 0, parsavesize = 0, tempsize = 0 parsize = 4
      +                          , argsize = 4, vargsize = 0
  2093   005198  52E5               	movf	postdec1,f,c
  2094   00519A  52E5               	movf	postdec1,f,c
  2095   00519C  52E5               	movf	postdec1,f,c
  2096   00519E  52E5               	movf	postdec1,f,c
  2097   0051A0  0012               	return		;funcret
  2098   0051A2                     __end_of_fsm_transition:
  2099                           	callstack 0
  2100                           
  2101 ;; *************** function _fsm_dispatch *****************
  2102 ;; Defined at:
  2103 ;;		line 20 in file "fsm.c"
  2104 ;; Parameters:    Size  Location     Type
  2105 ;;  fsm             2  [STACK] PTR struct fsm_t
  2106 ;;		 -> fsm(2), 
  2107 ;;  event           1  [STACK] unsigned char 
  2108 ;; Auto vars:     Size  Location     Type
  2109 ;;		None
  2110 ;; Return value:  Size  Location     Type
  2111 ;;                  1  [STACK] void 
  2112 ;; Registers used:
  2113 ;;		wreg, fsr0l, fsr0h, fsr1l, fsr1h, fsr2l, fsr2h, bsr, status,2, status,0, pcl, pclath, pclatu, btemp, btemp+1, btemp+
      +2, btemp+3, btemp+4, btemp+5, btemp+6, btemp+7, btemp+8, btemp+9, btemp+10, btemp+11, btemp+12, btemp+13, btemp+14, btem
      +p+15, btemp+16, btemp+17, btemp+18, btemp+19, btemp+20, btemp+21, btemp+22, btemp+23, btemp+24, btemp+25, btemp+26, btem
      +p+27, btemp+28, btemp+29, btemp+30, btemp+31, tosl, structret, tblptrl, tblptrh, tblptru, prodl, prodh, cstack
  2114 ;; Tracked objects:
  2115 ;;		On entry : 0/F
  2116 ;;		On exit  : 0/0
  2117 ;;		Unchanged: 0/0
  2118 ;; Data sizes:     COMRAM   BANK0   BANK1   BANK2   BANK3   BANK4   BANK5   BANK6   BANK7   BANK8   BANK9  BANK10  BANK1
      +1  BANK12  BANK13  BANK14  BANK15
  2119 ;;      Params:         0       0       0       0       0       0       0       0       0       0       0       0       
      +0       0       0       0       0
  2120 ;;      Locals:         0       0       0       0       0       0       0       0       0       0       0       0       
      +0       0       0       0       0
  2121 ;;      Temps:          0       0       0       0       0       0       0       0       0       0       0       0       
      +0       0       0       0       0
  2122 ;;      Totals:         0       0       0       0       0       0       0       0       0       0       0       0       
      +0       0       0       0       0
  2123 ;;Total ram usage:        0 bytes
  2124 ;; Hardware stack levels used: 1
  2125 ;; Hardware stack levels required when called: 16
  2126 ;; This function calls:
  2127 ;;		_init
  2128 ;;		_pot_state
  2129 ;;		_state1
  2130 ;;		_state2
  2131 ;;		_state3
  2132 ;;		_state4
  2133 ;;		_uart_state
  2134 ;; This function is called by:
  2135 ;;		_fsm_init
  2136 ;;		_fsm_transition
  2137 ;;		_main
  2138 ;; This function uses a reentrant model (it is recursive)
  2139 ;;
  2140                           
  2141                           	psect	text10
  2142   005238                     __ptext10:
  2143                           	callstack 0
  2144   005238                     _fsm_dispatch:
  2145                           	callstack 0
  2146   005238                     
  2147                           ;fsm.c: 21:     (*(fsm)->state)(fsm, event);
  2148                           ;stkvar	_event @ sp[(0)+-3]
  2149   005238  0EFD               	movlw	-3
  2150   00523A  50E3               	movf	plusw1,w,c
  2151   00523C  6EE6               	movwf	postinc1,c
  2152                           
  2153                           ;stkvar	_fsm @ sp[(-1)+-2]
  2154   00523E  0EFD               	movlw	-3
  2155   005240  CFE3 FFE6          	movff	plusw1,postinc1
  2156   005244  CFE3 FFE6          	movff	plusw1,postinc1
  2157                           
  2158                           ;stkvar	_fsm @ sp[(-3)+-2]
  2159   005248  0EFB               	movlw	-5
  2160   00524A  CFE3 FFD9          	movff	plusw1,fsr2l
  2161   00524E  0EFC               	movlw	-4
  2162   005250  CFE3 FFDA          	movff	plusw1,fsr2h
  2163   005254  CFDE F00B          	movff	postinc2,btemp+10
  2164   005258  CFDD F00C          	movff	postdec2,btemp+11
  2165   00525C  D802               	call	u4798
  2166   00525E  EF3A  F029         	goto	u4799
  2167   005262                     u4798:
  2168   005262  0005               	push	
  2169   005264  6EFA               	movwf	pclath,c
  2170   005266  500B               	movf	(btemp+10)^0,w,c
  2171   005268  6EFD               	movwf	tosl,c
  2172   00526A  500C               	movf	(btemp+11)^0,w,c
  2173   00526C  6EFE               	movwf	tosh,c
  2174   00526E  6AFF               	clrf	tosu,c
  2175   005270  50FA               	movf	pclath,w,c
  2176   005272  0012               	return		;indir
  2177   005274                     u4799:
  2178   005274                     
  2179                           ; _fsm_dispatch: autosize = 0, savesize = 0, parsavesize = 0, tempsize = 0 parsize = 3, 
      +                          argsize = 3, vargsize = 0
  2180   005274  52E5               	movf	postdec1,f,c
  2181   005276  52E5               	movf	postdec1,f,c
  2182   005278  52E5               	movf	postdec1,f,c
  2183   00527A  0012               	return		;funcret
  2184   00527C                     __end_of_fsm_dispatch:
  2185                           	callstack 0
  2186                           
  2187 ;; *************** function _pot_state *****************
  2188 ;; Defined at:
  2189 ;;		line 204 in file "main_menu.c"
  2190 ;; Parameters:    Size  Location     Type
  2191 ;;  fsm             2  [STACK] PTR struct fsm_t
  2192 ;;		 -> fsm(2), 
  2193 ;;  event           1  [STACK] unsigned char 
  2194 ;; Auto vars:     Size  Location     Type
  2195 ;;  str            17  [STACK] unsigned char [17]
  2196 ;; Return value:  Size  Location     Type
  2197 ;;                  1  [STACK] void 
  2198 ;; Registers used:
  2199 ;;		wreg, fsr0l, fsr0h, fsr1l, fsr1h, fsr2l, fsr2h, bsr, status,2, status,0, pcl, pclath, pclatu, btemp, btemp+1, btemp+
      +2, btemp+3, btemp+4, btemp+5, btemp+6, btemp+7, btemp+8, btemp+9, btemp+10, btemp+11, btemp+12, btemp+13, btemp+14, btem
      +p+15, btemp+16, btemp+17, btemp+18, btemp+19, btemp+20, btemp+21, btemp+22, btemp+23, btemp+24, btemp+25, btemp+26, btem
      +p+27, btemp+28, btemp+29, btemp+30, btemp+31, tosl, structret, tblptrl, tblptrh, tblptru, prodl, prodh, cstack
  2200 ;; Tracked objects:
  2201 ;;		On entry : 0/F
  2202 ;;		On exit  : 0/0
  2203 ;;		Unchanged: 0/0
  2204 ;; Data sizes:     COMRAM   BANK0   BANK1   BANK2   BANK3   BANK4   BANK5   BANK6   BANK7   BANK8   BANK9  BANK10  BANK1
      +1  BANK12  BANK13  BANK14  BANK15
  2205 ;;      Params:         0       0       0       0       0       0       0       0       0       0       0       0       
      +0       0       0       0       0
  2206 ;;      Locals:         0       0       0       0       0       0       0       0       0       0       0       0       
      +0       0       0       0       0
  2207 ;;      Temps:          0       0       0       0       0       0       0       0       0       0       0       0       
      +0       0       0       0       0
  2208 ;;      Totals:         0       0       0       0       0       0       0       0       0       0       0       0       
      +0       0       0       0       0
  2209 ;;Total ram usage:        0 bytes
  2210 ;; Hardware stack levels used: 1
  2211 ;; Hardware stack levels required when called: 15
  2212 ;; This function calls:
  2213 ;;		_LCD_Clear
  2214 ;;		_LCD_ShowString
  2215 ;;		___flmul
  2216 ;;		___xxtofl
  2217 ;;		_adc_read
  2218 ;;		_fsm_transition
  2219 ;;		_printf
  2220 ;;		_sprintf
  2221 ;; This function is called by:
  2222 ;;		_state3
  2223 ;;		_fsm_dispatch
  2224 ;; This function uses a reentrant model (it is recursive)
  2225 ;;
  2226                           
  2227                           	psect	text11
  2228   003B18                     __ptext11:
  2229                           	callstack 0
  2230   003B18                     _pot_state:
  2231                           	callstack 0
  2232                           
  2233                           ; autosize = 17, savesize = 0, parsavesize = 0, tempsize = 0 parsize = 3, argsize = 3 va
      +                          rgsize = 0, retsize = 0 argfudge = 0
  2234   003B18  0E11               	movlw	17
  2235   003B1A  26E1               	addwf	fsr1l,f,c
  2236   003B1C  0E00               	movlw	0
  2237   003B1E  22E2               	addwfc	fsr1h,f,c
  2238   003B20                     
  2239                           ;main_menu.c: 206:  switch(event){
  2240   003B20  EF13  F01E         	goto	l4650
  2241   003B24                     l4634:
  2242                           
  2243                           ;main_menu.c: 208:             LCD_ShowString(1, "Potenciometr:           ");
  2244   003B24  0E4B               	movlw	low STR_21
  2245   003B26  6EE6               	movwf	postinc1,c
  2246   003B28  0EFE               	movlw	high STR_21
  2247   003B2A  6EE6               	movwf	postinc1,c
  2248   003B2C  0E01               	movlw	1
  2249   003B2E  6EE6               	movwf	postinc1,c
  2250   003B30  ECDC  F021         	call	_LCD_ShowString	;wreg free
  2251   003B34                     
  2252                           ;main_menu.c: 209:             printf("Enter state POT\n");
  2253   003B34  0E3D               	movlw	low STR_22
  2254   003B36  6EE6               	movwf	postinc1,c
  2255   003B38  0EFF               	movlw	high STR_22
  2256   003B3A  6EE6               	movwf	postinc1,c
  2257   003B3C  0E02               	movlw	2
  2258   003B3E  6EE6               	movwf	postinc1,c
  2259   003B40  EC7E  F028         	call	_printf	;wreg free
  2260                           
  2261                           ;main_menu.c: 210:             break;
  2262   003B44  EF31  F01E         	goto	l394
  2263   003B48                     l4638:
  2264                           
  2265                           ;main_menu.c: 212:             printf("Exit state POT\n");
  2266   003B48  0E81               	movlw	low STR_23
  2267   003B4A  6EE6               	movwf	postinc1,c
  2268   003B4C  0EFF               	movlw	high STR_23
  2269   003B4E  6EE6               	movwf	postinc1,c
  2270   003B50  0E02               	movlw	2
  2271   003B52  6EE6               	movwf	postinc1,c
  2272   003B54  EC7E  F028         	call	_printf	;wreg free
  2273   003B58                     
  2274                           ;main_menu.c: 213:             LCD_Clear();
  2275   003B58  ECD1  F028         	call	_LCD_Clear	;wreg free
  2276                           
  2277                           ;main_menu.c: 214:             break;
  2278   003B5C  EF31  F01E         	goto	l394
  2279   003B60                     l4642:
  2280                           
  2281                           ;main_menu.c: 216:             fsm_transition(fsm, &state3);
  2282   003B60  0E4E               	movlw	low _state3
  2283   003B62  6EE6               	movwf	postinc1,c
  2284   003B64  0E46               	movlw	high _state3
  2285   003B66  6EE6               	movwf	postinc1,c
  2286                           
  2287                           ;stkvar	_fsm @ sp[(-19)+-2]
  2288   003B68  0EEB               	movlw	-21
  2289   003B6A  CFE3 FFE6          	movff	plusw1,postinc1
  2290   003B6E  CFE3 FFE6          	movff	plusw1,postinc1
  2291   003B72  ECA9  F028         	call	_fsm_transition	;wreg free
  2292                           
  2293                           ;main_menu.c: 217:             break;
  2294   003B76  EF31  F01E         	goto	l394
  2295   003B7A                     l4644:
  2296                           
  2297                           ;main_menu.c: 219:         {;main_menu.c: 220:             char str[17];;main_menu.c: 22
      +                          1:             sprintf(str, "POT: %.1f mV          ", (float)adc_read(5)*3.22265625);
  2298   003B7A  0E00               	movlw	0
  2299   003B7C  6EE6               	movwf	postinc1,c
  2300   003B7E  0E40               	movlw	64
  2301   003B80  6EE6               	movwf	postinc1,c
  2302   003B82  0E4E               	movlw	78
  2303   003B84  6EE6               	movwf	postinc1,c
  2304   003B86  0E40               	movlw	64
  2305   003B88  6EE6               	movwf	postinc1,c
  2306   003B8A  0E05               	movlw	5
  2307   003B8C  6EE6               	movwf	postinc1,c
  2308   003B8E  EC50  F028         	call	_adc_read	;wreg free
  2309   003B92  C001  F00B         	movff	btemp,btemp+10
  2310   003B96  C002  F00C         	movff	btemp+1,btemp+11
  2311   003B9A  500B               	movf	(btemp+10)^0,w,c
  2312   003B9C  6E05               	movwf	(btemp+4)^0,c
  2313   003B9E  500C               	movf	(btemp+11)^0,w,c
  2314   003BA0  6E06               	movwf	(btemp+5)^0,c
  2315   003BA2  6A07               	clrf	(btemp+6)^0,c
  2316   003BA4  6A08               	clrf	(btemp+7)^0,c
  2317   003BA6  C005  FFE6         	movff	btemp+4,postinc1
  2318   003BAA  C006  FFE6         	movff	btemp+5,postinc1
  2319   003BAE  C007  FFE6         	movff	btemp+6,postinc1
  2320   003BB2  C008  FFE6         	movff	btemp+7,postinc1
  2321   003BB6  0E00               	movlw	0
  2322   003BB8  6EE6               	movwf	postinc1,c
  2323   003BBA  EC00  F018         	call	___xxtofl	;wreg free
  2324   003BBE  C001  FFE6         	movff	btemp,postinc1
  2325   003BC2  C002  FFE6         	movff	btemp+1,postinc1
  2326   003BC6  C003  FFE6         	movff	btemp+2,postinc1
  2327   003BCA  C004  FFE6         	movff	btemp+3,postinc1
  2328   003BCE  ECE9  F00C         	call	___flmul	;wreg free
  2329   003BD2  C001  FFE6         	movff	btemp,postinc1
  2330   003BD6  C002  FFE6         	movff	btemp+1,postinc1
  2331   003BDA  C003  FFE6         	movff	btemp+2,postinc1
  2332   003BDE  C004  FFE6         	movff	btemp+3,postinc1
  2333   003BE2  0E64               	movlw	low STR_24
  2334   003BE4  6EE6               	movwf	postinc1,c
  2335   003BE6  0EFE               	movlw	high STR_24
  2336   003BE8  6EE6               	movwf	postinc1,c
  2337                           
  2338                           ;stkvar	_str @ sp[(-23)+0]
  2339   003BEA  0EE9               	movlw	233
  2340   003BEC  24E1               	addwf	fsr1l,w,c
  2341   003BEE  6E01               	movwf	btemp^0,c
  2342   003BF0  0EFF               	movlw	255
  2343   003BF2  20E2               	addwfc	fsr1h,w,c
  2344   003BF4  6E02               	movwf	(btemp+1)^0,c
  2345   003BF6  C001  FFE6         	movff	btemp,postinc1
  2346   003BFA  C002  FFE6         	movff	btemp+1,postinc1
  2347   003BFE  0E08               	movlw	8
  2348   003C00  6EE6               	movwf	postinc1,c
  2349   003C02  EC94  F023         	call	_sprintf	;wreg free
  2350   003C06                     
  2351                           ;main_menu.c: 222:             LCD_ShowString(2, str);
  2352                           ;stkvar	_str @ sp[(-17)+0]
  2353   003C06  0EEF               	movlw	239
  2354   003C08  24E1               	addwf	fsr1l,w,c
  2355   003C0A  6E01               	movwf	btemp^0,c
  2356   003C0C  0EFF               	movlw	255
  2357   003C0E  20E2               	addwfc	fsr1h,w,c
  2358   003C10  6E02               	movwf	(btemp+1)^0,c
  2359   003C12  C001  FFE6         	movff	btemp,postinc1
  2360   003C16  C002  FFE6         	movff	btemp+1,postinc1
  2361   003C1A  0E02               	movlw	2
  2362   003C1C  6EE6               	movwf	postinc1,c
  2363   003C1E  ECDC  F021         	call	_LCD_ShowString	;wreg free
  2364                           
  2365                           ;main_menu.c: 223:             break;
  2366   003C22  EF31  F01E         	goto	l394
  2367   003C26                     l4650:
  2368                           
  2369                           ;stkvar	_event @ sp[(-17)+-3]
  2370   003C26  0EEC               	movlw	-20
  2371   003C28  50E3               	movf	plusw1,w,c
  2372   003C2A  6E0B               	movwf	(btemp+10)^0,c
  2373   003C2C  6A0C               	clrf	(btemp+11)^0,c
  2374                           
  2375                           ; Switch on 2 bytes has been partitioned into a top level switch of size 1, and 1 sub-sw
      +                          itches
  2376                           ; Switch size 1, requested type "simple"
  2377                           ; Number of cases is 1, Range of values is 0 to 0
  2378                           ; switch strategies available:
  2379                           ; Name         Instructions Cycles
  2380                           ; simple_byte            4     3 (average)
  2381                           ;	Chosen strategy is simple_byte
  2382   003C2E  500C               	movf	(btemp+11)^0,w,c
  2383   003C30  0A00               	xorlw	0	; case 0
  2384   003C32  B4D8               	btfsc	status,2,c
  2385   003C34  EF1E  F01E         	goto	l5256
  2386   003C38  EF31  F01E         	goto	l394
  2387   003C3C                     l5256:
  2388                           
  2389                           ; Switch size 1, requested type "simple"
  2390                           ; Number of cases is 4, Range of values is 1 to 8
  2391                           ; switch strategies available:
  2392                           ; Name         Instructions Cycles
  2393                           ; simple_byte           13     7 (average)
  2394                           ;	Chosen strategy is simple_byte
  2395   003C3C  500B               	movf	(btemp+10)^0,w,c
  2396   003C3E  0A01               	xorlw	1	; case 1
  2397   003C40  B4D8               	btfsc	status,2,c
  2398   003C42  EF92  F01D         	goto	l4634
  2399   003C46  0A03               	xorlw	3	; case 2
  2400   003C48  B4D8               	btfsc	status,2,c
  2401   003C4A  EFA4  F01D         	goto	l4638
  2402   003C4E  0A04               	xorlw	4	; case 6
  2403   003C50  B4D8               	btfsc	status,2,c
  2404   003C52  EFB0  F01D         	goto	l4642
  2405   003C56  0A0E               	xorlw	14	; case 8
  2406   003C58  B4D8               	btfsc	status,2,c
  2407   003C5A  EFBD  F01D         	goto	l4644
  2408   003C5E  EF31  F01E         	goto	l394
  2409   003C62                     l394:
  2410                           
  2411                           ; _pot_state: autosize = 17, savesize = 0, parsavesize = 0, tempsize = 0 parsize = 3, ar
      +                          gsize = 3, vargsize = 0
  2412   003C62  0EEC               	movlw	236
  2413   003C64  26E1               	addwf	fsr1l,f,c
  2414   003C66  0EFF               	movlw	255
  2415   003C68  22E2               	addwfc	fsr1h,f,c
  2416   003C6A  0012               	return		;funcret
  2417   003C6C                     __end_of_pot_state:
  2418                           	callstack 0
  2419                           
  2420 ;; *************** function _state4 *****************
  2421 ;; Defined at:
  2422 ;;		line 163 in file "main_menu.c"
  2423 ;; Parameters:    Size  Location     Type
  2424 ;;  fsm             2  [STACK] PTR struct fsm_t
  2425 ;;		 -> fsm(2), 
  2426 ;;  event           1  [STACK] unsigned char 
  2427 ;; Auto vars:     Size  Location     Type
  2428 ;;		None
  2429 ;; Return value:  Size  Location     Type
  2430 ;;                  1  [STACK] void 
  2431 ;; Registers used:
  2432 ;;		wreg, fsr0l, fsr0h, fsr1l, fsr1h, fsr2l, fsr2h, bsr, status,2, status,0, pcl, pclath, pclatu, btemp, btemp+1, btemp+
      +2, btemp+3, btemp+4, btemp+5, btemp+6, btemp+7, btemp+8, btemp+9, btemp+10, btemp+11, btemp+12, btemp+13, btemp+14, btem
      +p+15, btemp+16, btemp+17, btemp+18, btemp+19, btemp+20, btemp+21, btemp+22, btemp+23, btemp+24, btemp+25, btemp+26, btem
      +p+27, btemp+28, btemp+29, btemp+30, btemp+31, tosl, structret, tblptrl, tblptrh, tblptru, prodl, prodh, cstack
  2433 ;; Tracked objects:
  2434 ;;		On entry : 0/F
  2435 ;;		On exit  : 0/0
  2436 ;;		Unchanged: 0/0
  2437 ;; Data sizes:     COMRAM   BANK0   BANK1   BANK2   BANK3   BANK4   BANK5   BANK6   BANK7   BANK8   BANK9  BANK10  BANK1
      +1  BANK12  BANK13  BANK14  BANK15
  2438 ;;      Params:         0       0       0       0       0       0       0       0       0       0       0       0       
      +0       0       0       0       0
  2439 ;;      Locals:         0       0       0       0       0       0       0       0       0       0       0       0       
      +0       0       0       0       0
  2440 ;;      Temps:          0       0       0       0       0       0       0       0       0       0       0       0       
      +0       0       0       0       0
  2441 ;;      Totals:         0       0       0       0       0       0       0       0       0       0       0       0       
      +0       0       0       0       0
  2442 ;;Total ram usage:        0 bytes
  2443 ;; Hardware stack levels used: 1
  2444 ;; Hardware stack levels required when called: 15
  2445 ;; This function calls:
  2446 ;;		_LCD_Clear
  2447 ;;		_LCD_ShowString
  2448 ;;		_fsm_transition
  2449 ;;		_printf
  2450 ;; This function is called by:
  2451 ;;		_state3
  2452 ;;		_uart_state
  2453 ;;		_fsm_dispatch
  2454 ;; This function uses a reentrant model (it is recursive)
  2455 ;;
  2456                           
  2457                           	psect	text12
  2458   004A5E                     __ptext12:
  2459                           	callstack 0
  2460   004A5E                     _state4:
  2461                           	callstack 0
  2462   004A5E                     
  2463                           ;main_menu.c: 165:  switch(event){
  2464   004A5E  EF71  F025         	goto	l4604
  2465   004A62                     l4588:
  2466                           
  2467                           ;main_menu.c: 167:             printf("Enter state 4\n");
  2468   004A62  0E91               	movlw	low STR_12
  2469   004A64  6EE6               	movwf	postinc1,c
  2470   004A66  0EFF               	movlw	high STR_12
  2471   004A68  6EE6               	movwf	postinc1,c
  2472   004A6A  0E02               	movlw	2
  2473   004A6C  6EE6               	movwf	postinc1,c
  2474   004A6E  EC7E  F028         	call	_printf	;wreg free
  2475   004A72                     
  2476                           ;main_menu.c: 168:             LCD_ShowString(1, "    State3           ");
  2477   004A72  0EBE               	movlw	low STR_7
  2478   004A74  6EE6               	movwf	postinc1,c
  2479   004A76  0EFE               	movlw	high STR_7
  2480   004A78  6EE6               	movwf	postinc1,c
  2481   004A7A  0E01               	movlw	1
  2482   004A7C  6EE6               	movwf	postinc1,c
  2483   004A7E  ECDC  F021         	call	_LCD_ShowString	;wreg free
  2484   004A82                     
  2485                           ;main_menu.c: 169:             LCD_ShowString(2, ">>> State4           ");
  2486   004A82  0E00               	movlw	low STR_14
  2487   004A84  6EE6               	movwf	postinc1,c
  2488   004A86  0EFF               	movlw	high STR_14
  2489   004A88  6EE6               	movwf	postinc1,c
  2490   004A8A  0E02               	movlw	2
  2491   004A8C  6EE6               	movwf	postinc1,c
  2492   004A8E  ECDC  F021         	call	_LCD_ShowString	;wreg free
  2493                           
  2494                           ;main_menu.c: 170:             break;
  2495   004A92  EF8F  F025         	goto	l376
  2496   004A96                     l4594:
  2497                           
  2498                           ;main_menu.c: 172:             printf("Exit state 4\n");
  2499   004A96  0ED9               	movlw	low STR_15
  2500   004A98  6EE6               	movwf	postinc1,c
  2501   004A9A  0EFF               	movlw	high STR_15
  2502   004A9C  6EE6               	movwf	postinc1,c
  2503   004A9E  0E02               	movlw	2
  2504   004AA0  6EE6               	movwf	postinc1,c
  2505   004AA2  EC7E  F028         	call	_printf	;wreg free
  2506   004AA6                     
  2507                           ;main_menu.c: 173:             LCD_Clear();
  2508   004AA6  ECD1  F028         	call	_LCD_Clear	;wreg free
  2509                           
  2510                           ;main_menu.c: 174:             break;
  2511   004AAA  EF8F  F025         	goto	l376
  2512   004AAE                     l4598:
  2513                           
  2514                           ;main_menu.c: 176:             fsm_transition(fsm, &state3);
  2515   004AAE  0E4E               	movlw	low _state3
  2516   004AB0  6EE6               	movwf	postinc1,c
  2517   004AB2  0E46               	movlw	high _state3
  2518   004AB4  6EE6               	movwf	postinc1,c
  2519                           
  2520                           ;stkvar	_fsm @ sp[(-2)+-2]
  2521   004AB6  0EFC               	movlw	-4
  2522   004AB8  CFE3 FFE6          	movff	plusw1,postinc1
  2523   004ABC  CFE3 FFE6          	movff	plusw1,postinc1
  2524   004AC0  ECA9  F028         	call	_fsm_transition	;wreg free
  2525                           
  2526                           ;main_menu.c: 177:             break;
  2527   004AC4  EF8F  F025         	goto	l376
  2528   004AC8                     l4600:
  2529                           
  2530                           ;main_menu.c: 179:             fsm_transition(fsm, &uart_state);
  2531   004AC8  0E94               	movlw	low _uart_state
  2532   004ACA  6EE6               	movwf	postinc1,c
  2533   004ACC  0E49               	movlw	high _uart_state
  2534   004ACE  6EE6               	movwf	postinc1,c
  2535                           
  2536                           ;stkvar	_fsm @ sp[(-2)+-2]
  2537   004AD0  0EFC               	movlw	-4
  2538   004AD2  CFE3 FFE6          	movff	plusw1,postinc1
  2539   004AD6  CFE3 FFE6          	movff	plusw1,postinc1
  2540   004ADA  ECA9  F028         	call	_fsm_transition	;wreg free
  2541                           
  2542                           ;main_menu.c: 180:             break;
  2543   004ADE  EF8F  F025         	goto	l376
  2544   004AE2                     l4604:
  2545                           
  2546                           ;stkvar	_event @ sp[(0)+-3]
  2547   004AE2  0EFD               	movlw	-3
  2548   004AE4  50E3               	movf	plusw1,w,c
  2549   004AE6  6E0B               	movwf	(btemp+10)^0,c
  2550   004AE8  6A0C               	clrf	(btemp+11)^0,c
  2551                           
  2552                           ; Switch on 2 bytes has been partitioned into a top level switch of size 1, and 1 sub-sw
      +                          itches
  2553                           ; Switch size 1, requested type "simple"
  2554                           ; Number of cases is 1, Range of values is 0 to 0
  2555                           ; switch strategies available:
  2556                           ; Name         Instructions Cycles
  2557                           ; simple_byte            4     3 (average)
  2558                           ;	Chosen strategy is simple_byte
  2559   004AEA  500C               	movf	(btemp+11)^0,w,c
  2560   004AEC  0A00               	xorlw	0	; case 0
  2561   004AEE  B4D8               	btfsc	status,2,c
  2562   004AF0  EF7C  F025         	goto	l5258
  2563   004AF4  EF8F  F025         	goto	l376
  2564   004AF8                     l5258:
  2565                           
  2566                           ; Switch size 1, requested type "simple"
  2567                           ; Number of cases is 4, Range of values is 1 to 5
  2568                           ; switch strategies available:
  2569                           ; Name         Instructions Cycles
  2570                           ; simple_byte           13     7 (average)
  2571                           ;	Chosen strategy is simple_byte
  2572   004AF8  500B               	movf	(btemp+10)^0,w,c
  2573   004AFA  0A01               	xorlw	1	; case 1
  2574   004AFC  B4D8               	btfsc	status,2,c
  2575   004AFE  EF31  F025         	goto	l4588
  2576   004B02  0A03               	xorlw	3	; case 2
  2577   004B04  B4D8               	btfsc	status,2,c
  2578   004B06  EF4B  F025         	goto	l4594
  2579   004B0A  0A06               	xorlw	6	; case 4
  2580   004B0C  B4D8               	btfsc	status,2,c
  2581   004B0E  EF57  F025         	goto	l4598
  2582   004B12  0A01               	xorlw	1	; case 5
  2583   004B14  B4D8               	btfsc	status,2,c
  2584   004B16  EF64  F025         	goto	l4600
  2585   004B1A  EF8F  F025         	goto	l376
  2586   004B1E                     l376:
  2587                           
  2588                           ; _state4: autosize = 0, savesize = 0, parsavesize = 0, tempsize = 0 parsize = 3, argsiz
      +                          e = 3, vargsize = 0
  2589   004B1E  52E5               	movf	postdec1,f,c
  2590   004B20  52E5               	movf	postdec1,f,c
  2591   004B22  52E5               	movf	postdec1,f,c
  2592   004B24  0012               	return		;funcret
  2593   004B26                     __end_of_state4:
  2594                           	callstack 0
  2595                           
  2596 ;; *************** function _state3 *****************
  2597 ;; Defined at:
  2598 ;;		line 140 in file "main_menu.c"
  2599 ;; Parameters:    Size  Location     Type
  2600 ;;  fsm             2  [STACK] PTR struct fsm_t
  2601 ;;		 -> fsm(2), 
  2602 ;;  event           1  [STACK] unsigned char 
  2603 ;; Auto vars:     Size  Location     Type
  2604 ;;		None
  2605 ;; Return value:  Size  Location     Type
  2606 ;;                  1  [STACK] void 
  2607 ;; Registers used:
  2608 ;;		wreg, fsr0l, fsr0h, fsr1l, fsr1h, fsr2l, fsr2h, bsr, status,2, status,0, pcl, pclath, pclatu, btemp, btemp+1, btemp+
      +2, btemp+3, btemp+4, btemp+5, btemp+6, btemp+7, btemp+8, btemp+9, btemp+10, btemp+11, btemp+12, btemp+13, btemp+14, btem
      +p+15, btemp+16, btemp+17, btemp+18, btemp+19, btemp+20, btemp+21, btemp+22, btemp+23, btemp+24, btemp+25, btemp+26, btem
      +p+27, btemp+28, btemp+29, btemp+30, btemp+31, tosl, structret, tblptrl, tblptrh, tblptru, prodl, prodh, cstack
  2609 ;; Tracked objects:
  2610 ;;		On entry : 0/F
  2611 ;;		On exit  : 0/0
  2612 ;;		Unchanged: 0/0
  2613 ;; Data sizes:     COMRAM   BANK0   BANK1   BANK2   BANK3   BANK4   BANK5   BANK6   BANK7   BANK8   BANK9  BANK10  BANK1
      +1  BANK12  BANK13  BANK14  BANK15
  2614 ;;      Params:         0       0       0       0       0       0       0       0       0       0       0       0       
      +0       0       0       0       0
  2615 ;;      Locals:         0       0       0       0       0       0       0       0       0       0       0       0       
      +0       0       0       0       0
  2616 ;;      Temps:          0       0       0       0       0       0       0       0       0       0       0       0       
      +0       0       0       0       0
  2617 ;;      Totals:         0       0       0       0       0       0       0       0       0       0       0       0       
      +0       0       0       0       0
  2618 ;;Total ram usage:        0 bytes
  2619 ;; Hardware stack levels used: 1
  2620 ;; Hardware stack levels required when called: 15
  2621 ;; This function calls:
  2622 ;;		_LCD_Clear
  2623 ;;		_LCD_ShowString
  2624 ;;		_fsm_transition
  2625 ;;		_printf
  2626 ;; This function is called by:
  2627 ;;		_state2
  2628 ;;		_state4
  2629 ;;		_pot_state
  2630 ;;		_fsm_dispatch
  2631 ;; This function uses a reentrant model (it is recursive)
  2632 ;;
  2633                           
  2634                           	psect	text13
  2635   00464E                     __ptext13:
  2636                           	callstack 0
  2637   00464E                     _state3:
  2638                           	callstack 0
  2639   00464E                     
  2640                           ;main_menu.c: 142:  switch(event){
  2641   00464E  EF6E  F023         	goto	l4580
  2642   004652                     l4566:
  2643                           
  2644                           ;main_menu.c: 144:             LCD_ShowString(1, ">>> State3           ");
  2645   004652  0ED4               	movlw	low STR_9
  2646   004654  6EE6               	movwf	postinc1,c
  2647   004656  0EFE               	movlw	high STR_9
  2648   004658  6EE6               	movwf	postinc1,c
  2649   00465A  0E01               	movlw	1
  2650   00465C  6EE6               	movwf	postinc1,c
  2651   00465E  ECDC  F021         	call	_LCD_ShowString	;wreg free
  2652                           
  2653                           ;main_menu.c: 145:             LCD_ShowString(2, "    State4           ");
  2654   004662  0EEA               	movlw	low STR_10
  2655   004664  6EE6               	movwf	postinc1,c
  2656   004666  0EFE               	movlw	high STR_10
  2657   004668  6EE6               	movwf	postinc1,c
  2658   00466A  0E02               	movlw	2
  2659   00466C  6EE6               	movwf	postinc1,c
  2660   00466E  ECDC  F021         	call	_LCD_ShowString	;wreg free
  2661                           
  2662                           ;main_menu.c: 146:             break;
  2663   004672  EF90  F023         	goto	l367
  2664   004676                     l4568:
  2665                           
  2666                           ;main_menu.c: 148:             printf("Exit state 3\n");
  2667   004676  0ECB               	movlw	low STR_11
  2668   004678  6EE6               	movwf	postinc1,c
  2669   00467A  0EFF               	movlw	high STR_11
  2670   00467C  6EE6               	movwf	postinc1,c
  2671   00467E  0E02               	movlw	2
  2672   004680  6EE6               	movwf	postinc1,c
  2673   004682  EC7E  F028         	call	_printf	;wreg free
  2674   004686                     
  2675                           ;main_menu.c: 149:             LCD_Clear();
  2676   004686  ECD1  F028         	call	_LCD_Clear	;wreg free
  2677                           
  2678                           ;main_menu.c: 150:             break;
  2679   00468A  EF90  F023         	goto	l367
  2680   00468E                     l4572:
  2681                           
  2682                           ;main_menu.c: 152:             fsm_transition(fsm, &state4);
  2683   00468E  0E5E               	movlw	low _state4
  2684   004690  6EE6               	movwf	postinc1,c
  2685   004692  0E4A               	movlw	high _state4
  2686   004694  6EE6               	movwf	postinc1,c
  2687                           
  2688                           ;stkvar	_fsm @ sp[(-2)+-2]
  2689   004696  0EFC               	movlw	-4
  2690   004698  CFE3 FFE6          	movff	plusw1,postinc1
  2691   00469C  CFE3 FFE6          	movff	plusw1,postinc1
  2692   0046A0  ECA9  F028         	call	_fsm_transition	;wreg free
  2693                           
  2694                           ;main_menu.c: 153:             break;
  2695   0046A4  EF90  F023         	goto	l367
  2696   0046A8                     l4574:
  2697                           
  2698                           ;main_menu.c: 155:             fsm_transition(fsm, &state2);
  2699   0046A8  0E96               	movlw	low _state2
  2700   0046AA  6EE6               	movwf	postinc1,c
  2701   0046AC  0E44               	movlw	high _state2
  2702   0046AE  6EE6               	movwf	postinc1,c
  2703                           
  2704                           ;stkvar	_fsm @ sp[(-2)+-2]
  2705   0046B0  0EFC               	movlw	-4
  2706   0046B2  CFE3 FFE6          	movff	plusw1,postinc1
  2707   0046B6  CFE3 FFE6          	movff	plusw1,postinc1
  2708   0046BA  ECA9  F028         	call	_fsm_transition	;wreg free
  2709                           
  2710                           ;main_menu.c: 156:             break;
  2711   0046BE  EF90  F023         	goto	l367
  2712   0046C2                     l4576:
  2713                           
  2714                           ;main_menu.c: 158:             fsm_transition(fsm, &pot_state);
  2715   0046C2  0E18               	movlw	low _pot_state
  2716   0046C4  6EE6               	movwf	postinc1,c
  2717   0046C6  0E3B               	movlw	high _pot_state
  2718   0046C8  6EE6               	movwf	postinc1,c
  2719                           
  2720                           ;stkvar	_fsm @ sp[(-2)+-2]
  2721   0046CA  0EFC               	movlw	-4
  2722   0046CC  CFE3 FFE6          	movff	plusw1,postinc1
  2723   0046D0  CFE3 FFE6          	movff	plusw1,postinc1
  2724   0046D4  ECA9  F028         	call	_fsm_transition	;wreg free
  2725                           
  2726                           ;main_menu.c: 159:             break;
  2727   0046D8  EF90  F023         	goto	l367
  2728   0046DC                     l4580:
  2729                           
  2730                           ;stkvar	_event @ sp[(0)+-3]
  2731   0046DC  0EFD               	movlw	-3
  2732   0046DE  50E3               	movf	plusw1,w,c
  2733   0046E0  6E0B               	movwf	(btemp+10)^0,c
  2734   0046E2  6A0C               	clrf	(btemp+11)^0,c
  2735                           
  2736                           ; Switch on 2 bytes has been partitioned into a top level switch of size 1, and 1 sub-sw
      +                          itches
  2737                           ; Switch size 1, requested type "simple"
  2738                           ; Number of cases is 1, Range of values is 0 to 0
  2739                           ; switch strategies available:
  2740                           ; Name         Instructions Cycles
  2741                           ; simple_byte            4     3 (average)
  2742                           ;	Chosen strategy is simple_byte
  2743   0046E4  500C               	movf	(btemp+11)^0,w,c
  2744   0046E6  0A00               	xorlw	0	; case 0
  2745   0046E8  B4D8               	btfsc	status,2,c
  2746   0046EA  EF79  F023         	goto	l5260
  2747   0046EE  EF90  F023         	goto	l367
  2748   0046F2                     l5260:
  2749                           
  2750                           ; Switch size 1, requested type "simple"
  2751                           ; Number of cases is 5, Range of values is 1 to 5
  2752                           ; switch strategies available:
  2753                           ; Name         Instructions Cycles
  2754                           ; simple_byte           16     9 (average)
  2755                           ;	Chosen strategy is simple_byte
  2756   0046F2  500B               	movf	(btemp+10)^0,w,c
  2757   0046F4  0A01               	xorlw	1	; case 1
  2758   0046F6  B4D8               	btfsc	status,2,c
  2759   0046F8  EF29  F023         	goto	l4566
  2760   0046FC  0A03               	xorlw	3	; case 2
  2761   0046FE  B4D8               	btfsc	status,2,c
  2762   004700  EF3B  F023         	goto	l4568
  2763   004704  0A01               	xorlw	1	; case 3
  2764   004706  B4D8               	btfsc	status,2,c
  2765   004708  EF47  F023         	goto	l4572
  2766   00470C  0A07               	xorlw	7	; case 4
  2767   00470E  B4D8               	btfsc	status,2,c
  2768   004710  EF54  F023         	goto	l4574
  2769   004714  0A01               	xorlw	1	; case 5
  2770   004716  B4D8               	btfsc	status,2,c
  2771   004718  EF61  F023         	goto	l4576
  2772   00471C  EF90  F023         	goto	l367
  2773   004720                     l367:
  2774                           
  2775                           ; _state3: autosize = 0, savesize = 0, parsavesize = 0, tempsize = 0 parsize = 3, argsiz
      +                          e = 3, vargsize = 0
  2776   004720  52E5               	movf	postdec1,f,c
  2777   004722  52E5               	movf	postdec1,f,c
  2778   004724  52E5               	movf	postdec1,f,c
  2779   004726  0012               	return		;funcret
  2780   004728                     __end_of_state3:
  2781                           	callstack 0
  2782                           
  2783 ;; *************** function _state2 *****************
  2784 ;; Defined at:
  2785 ;;		line 114 in file "main_menu.c"
  2786 ;; Parameters:    Size  Location     Type
  2787 ;;  fsm             2  [STACK] PTR struct fsm_t
  2788 ;;		 -> fsm(2), 
  2789 ;;  event           1  [STACK] unsigned char 
  2790 ;; Auto vars:     Size  Location     Type
  2791 ;;		None
  2792 ;; Return value:  Size  Location     Type
  2793 ;;                  1  [STACK] void 
  2794 ;; Registers used:
  2795 ;;		wreg, fsr0l, fsr0h, fsr1l, fsr1h, fsr2l, fsr2h, bsr, status,2, status,0, pcl, pclath, pclatu, btemp, btemp+1, btemp+
      +2, btemp+3, btemp+4, btemp+5, btemp+6, btemp+7, btemp+8, btemp+9, btemp+10, btemp+11, btemp+12, btemp+13, btemp+14, btem
      +p+15, btemp+16, btemp+17, btemp+18, btemp+19, btemp+20, btemp+21, btemp+22, btemp+23, btemp+24, btemp+25, btemp+26, btem
      +p+27, btemp+28, btemp+29, btemp+30, btemp+31, tosl, structret, tblptrl, tblptrh, tblptru, prodl, prodh, cstack
  2796 ;; Tracked objects:
  2797 ;;		On entry : 0/F
  2798 ;;		On exit  : 0/0
  2799 ;;		Unchanged: 0/0
  2800 ;; Data sizes:     COMRAM   BANK0   BANK1   BANK2   BANK3   BANK4   BANK5   BANK6   BANK7   BANK8   BANK9  BANK10  BANK1
      +1  BANK12  BANK13  BANK14  BANK15
  2801 ;;      Params:         0       0       0       0       0       0       0       0       0       0       0       0       
      +0       0       0       0       0
  2802 ;;      Locals:         0       0       0       0       0       0       0       0       0       0       0       0       
      +0       0       0       0       0
  2803 ;;      Temps:          0       0       0       0       0       0       0       0       0       0       0       0       
      +0       0       0       0       0
  2804 ;;      Totals:         0       0       0       0       0       0       0       0       0       0       0       0       
      +0       0       0       0       0
  2805 ;;Total ram usage:        0 bytes
  2806 ;; Hardware stack levels used: 1
  2807 ;; Hardware stack levels required when called: 15
  2808 ;; This function calls:
  2809 ;;		_LCD_Clear
  2810 ;;		_LCD_ShowString
  2811 ;;		_bsp_set_timeout
  2812 ;;		_fsm_transition
  2813 ;;		_printf
  2814 ;; This function is called by:
  2815 ;;		_state1
  2816 ;;		_state3
  2817 ;;		_fsm_dispatch
  2818 ;; This function uses a reentrant model (it is recursive)
  2819 ;;
  2820                           
  2821                           	psect	text14
  2822   004496                     __ptext14:
  2823                           	callstack 0
  2824   004496                     _state2:
  2825                           	callstack 0
  2826   004496                     
  2827                           ;main_menu.c: 116:  switch(event){
  2828   004496  EF93  F022         	goto	l4558
  2829   00449A                     l4538:
  2830                           
  2831                           ;main_menu.c: 118:             LCD_ShowString(1, ">>> State2           ");
  2832   00449A  0EA8               	movlw	low STR_6
  2833   00449C  6EE6               	movwf	postinc1,c
  2834   00449E  0EFE               	movlw	high STR_6
  2835   0044A0  6EE6               	movwf	postinc1,c
  2836   0044A2  0E01               	movlw	1
  2837   0044A4  6EE6               	movwf	postinc1,c
  2838   0044A6  ECDC  F021         	call	_LCD_ShowString	;wreg free
  2839                           
  2840                           ;main_menu.c: 119:             LCD_ShowString(2, "    State3           ");
  2841   0044AA  0EBE               	movlw	low STR_7
  2842   0044AC  6EE6               	movwf	postinc1,c
  2843   0044AE  0EFE               	movlw	high STR_7
  2844   0044B0  6EE6               	movwf	postinc1,c
  2845   0044B2  0E02               	movlw	2
  2846   0044B4  6EE6               	movwf	postinc1,c
  2847   0044B6  ECDC  F021         	call	_LCD_ShowString	;wreg free
  2848   0044BA                     l4540:
  2849                           
  2850                           ;main_menu.c: 120:             bsp_set_timeout(500);
  2851   0044BA  0EF4               	movlw	244
  2852   0044BC  6EE6               	movwf	postinc1,c
  2853   0044BE  0E01               	movlw	1
  2854   0044C0  6EE6               	movwf	postinc1,c
  2855   0044C2  0E00               	movlw	0
  2856   0044C4  6EE6               	movwf	postinc1,c
  2857   0044C6  0E00               	movlw	0
  2858   0044C8  6EE6               	movwf	postinc1,c
  2859   0044CA  EC97  F029         	call	_bsp_set_timeout	;wreg free
  2860                           
  2861                           ;main_menu.c: 121:             break;
  2862   0044CE  EFB5  F022         	goto	l357
  2863   0044D2                     l4542:
  2864                           
  2865                           ;main_menu.c: 123:             printf("Exit state 2\n");
  2866   0044D2  0EBD               	movlw	low STR_8
  2867   0044D4  6EE6               	movwf	postinc1,c
  2868   0044D6  0EFF               	movlw	high STR_8
  2869   0044D8  6EE6               	movwf	postinc1,c
  2870   0044DA  0E02               	movlw	2
  2871   0044DC  6EE6               	movwf	postinc1,c
  2872   0044DE  EC7E  F028         	call	_printf	;wreg free
  2873   0044E2                     
  2874                           ;main_menu.c: 124:             LATDbits.LD6 = 1;
  2875   0044E2  8C8C               	bsf	140,6,c	;volatile
  2876   0044E4                     
  2877                           ;main_menu.c: 125:             LCD_Clear();
  2878   0044E4  ECD1  F028         	call	_LCD_Clear	;wreg free
  2879                           
  2880                           ;main_menu.c: 126:             break;
  2881   0044E8  EFB5  F022         	goto	l357
  2882   0044EC                     l4548:
  2883                           
  2884                           ;main_menu.c: 128:             fsm_transition(fsm, &state3);
  2885   0044EC  0E4E               	movlw	low _state3
  2886   0044EE  6EE6               	movwf	postinc1,c
  2887   0044F0  0E46               	movlw	high _state3
  2888   0044F2  6EE6               	movwf	postinc1,c
  2889                           
  2890                           ;stkvar	_fsm @ sp[(-2)+-2]
  2891   0044F4  0EFC               	movlw	-4
  2892   0044F6  CFE3 FFE6          	movff	plusw1,postinc1
  2893   0044FA  CFE3 FFE6          	movff	plusw1,postinc1
  2894   0044FE  ECA9  F028         	call	_fsm_transition	;wreg free
  2895                           
  2896                           ;main_menu.c: 129:             break;
  2897   004502  EFB5  F022         	goto	l357
  2898   004506                     l4550:
  2899                           
  2900                           ;main_menu.c: 131:             fsm_transition(fsm, &state1);
  2901   004506  0EF8               	movlw	low _state1
  2902   004508  6EE6               	movwf	postinc1,c
  2903   00450A  0E47               	movlw	high _state1
  2904   00450C  6EE6               	movwf	postinc1,c
  2905                           
  2906                           ;stkvar	_fsm @ sp[(-2)+-2]
  2907   00450E  0EFC               	movlw	-4
  2908   004510  CFE3 FFE6          	movff	plusw1,postinc1
  2909   004514  CFE3 FFE6          	movff	plusw1,postinc1
  2910   004518  ECA9  F028         	call	_fsm_transition	;wreg free
  2911                           
  2912                           ;main_menu.c: 132:             break;
  2913   00451C  EFB5  F022         	goto	l357
  2914   004520                     l4552:
  2915                           
  2916                           ;main_menu.c: 134:             LATDbits.LD6 ^= 1;
  2917   004520  7C8C               	btg	140,6,c	;volatile
  2918   004522  EF5D  F022         	goto	l4540
  2919   004526                     l4558:
  2920                           
  2921                           ;stkvar	_event @ sp[(0)+-3]
  2922   004526  0EFD               	movlw	-3
  2923   004528  50E3               	movf	plusw1,w,c
  2924   00452A  6E0B               	movwf	(btemp+10)^0,c
  2925   00452C  6A0C               	clrf	(btemp+11)^0,c
  2926                           
  2927                           ; Switch on 2 bytes has been partitioned into a top level switch of size 1, and 1 sub-sw
      +                          itches
  2928                           ; Switch size 1, requested type "simple"
  2929                           ; Number of cases is 1, Range of values is 0 to 0
  2930                           ; switch strategies available:
  2931                           ; Name         Instructions Cycles
  2932                           ; simple_byte            4     3 (average)
  2933                           ;	Chosen strategy is simple_byte
  2934   00452E  500C               	movf	(btemp+11)^0,w,c
  2935   004530  0A00               	xorlw	0	; case 0
  2936   004532  B4D8               	btfsc	status,2,c
  2937   004534  EF9E  F022         	goto	l5262
  2938   004538  EFB5  F022         	goto	l357
  2939   00453C                     l5262:
  2940                           
  2941                           ; Switch size 1, requested type "simple"
  2942                           ; Number of cases is 5, Range of values is 1 to 7
  2943                           ; switch strategies available:
  2944                           ; Name         Instructions Cycles
  2945                           ; simple_byte           16     9 (average)
  2946                           ;	Chosen strategy is simple_byte
  2947   00453C  500B               	movf	(btemp+10)^0,w,c
  2948   00453E  0A01               	xorlw	1	; case 1
  2949   004540  B4D8               	btfsc	status,2,c
  2950   004542  EF4D  F022         	goto	l4538
  2951   004546  0A03               	xorlw	3	; case 2
  2952   004548  B4D8               	btfsc	status,2,c
  2953   00454A  EF69  F022         	goto	l4542
  2954   00454E  0A01               	xorlw	1	; case 3
  2955   004550  B4D8               	btfsc	status,2,c
  2956   004552  EF76  F022         	goto	l4548
  2957   004556  0A07               	xorlw	7	; case 4
  2958   004558  B4D8               	btfsc	status,2,c
  2959   00455A  EF83  F022         	goto	l4550
  2960   00455E  0A03               	xorlw	3	; case 7
  2961   004560  B4D8               	btfsc	status,2,c
  2962   004562  EF90  F022         	goto	l4552
  2963   004566  EFB5  F022         	goto	l357
  2964   00456A                     l357:
  2965                           
  2966                           ; _state2: autosize = 0, savesize = 0, parsavesize = 0, tempsize = 0 parsize = 3, argsiz
      +                          e = 3, vargsize = 0
  2967   00456A  52E5               	movf	postdec1,f,c
  2968   00456C  52E5               	movf	postdec1,f,c
  2969   00456E  52E5               	movf	postdec1,f,c
  2970   004570  0012               	return		;funcret
  2971   004572                     __end_of_state2:
  2972                           	callstack 0
  2973                           
  2974 ;; *************** function _state1 *****************
  2975 ;; Defined at:
  2976 ;;		line 88 in file "main_menu.c"
  2977 ;; Parameters:    Size  Location     Type
  2978 ;;  fsm             2  [STACK] PTR struct fsm_t
  2979 ;;		 -> fsm(2), 
  2980 ;;  event           1  [STACK] unsigned char 
  2981 ;; Auto vars:     Size  Location     Type
  2982 ;;		None
  2983 ;; Return value:  Size  Location     Type
  2984 ;;                  1  [STACK] void 
  2985 ;; Registers used:
  2986 ;;		wreg, fsr0l, fsr0h, fsr1l, fsr1h, fsr2l, fsr2h, bsr, status,2, status,0, pcl, pclath, pclatu, btemp, btemp+1, btemp+
      +2, btemp+3, btemp+4, btemp+5, btemp+6, btemp+7, btemp+8, btemp+9, btemp+10, btemp+11, btemp+12, btemp+13, btemp+14, btem
      +p+15, btemp+16, btemp+17, btemp+18, btemp+19, btemp+20, btemp+21, btemp+22, btemp+23, btemp+24, btemp+25, btemp+26, btem
      +p+27, btemp+28, btemp+29, btemp+30, btemp+31, tosl, structret, tblptrl, tblptrh, tblptru, prodl, prodh, cstack
  2987 ;; Tracked objects:
  2988 ;;		On entry : 0/F
  2989 ;;		On exit  : 0/0
  2990 ;;		Unchanged: 0/0
  2991 ;; Data sizes:     COMRAM   BANK0   BANK1   BANK2   BANK3   BANK4   BANK5   BANK6   BANK7   BANK8   BANK9  BANK10  BANK1
      +1  BANK12  BANK13  BANK14  BANK15
  2992 ;;      Params:         0       0       0       0       0       0       0       0       0       0       0       0       
      +0       0       0       0       0
  2993 ;;      Locals:         0       0       0       0       0       0       0       0       0       0       0       0       
      +0       0       0       0       0
  2994 ;;      Temps:          0       0       0       0       0       0       0       0       0       0       0       0       
      +0       0       0       0       0
  2995 ;;      Totals:         0       0       0       0       0       0       0       0       0       0       0       0       
      +0       0       0       0       0
  2996 ;;Total ram usage:        0 bytes
  2997 ;; Hardware stack levels used: 1
  2998 ;; Hardware stack levels required when called: 15
  2999 ;; This function calls:
  3000 ;;		_LCD_ShowString
  3001 ;;		_bsp_drive_led
  3002 ;;		_fsm_transition
  3003 ;;		_printf
  3004 ;; This function is called by:
  3005 ;;		_init
  3006 ;;		_state2
  3007 ;;		_fsm_dispatch
  3008 ;; This function uses a reentrant model (it is recursive)
  3009 ;;
  3010                           
  3011                           	psect	text15
  3012   0047F8                     __ptext15:
  3013                           	callstack 0
  3014   0047F8                     _state1:
  3015                           	callstack 0
  3016   0047F8                     
  3017                           ;main_menu.c: 90:     static uint8_t leds = 0;;main_menu.c: 92:  switch(event){
  3018   0047F8  EF41  F024         	goto	l4530
  3019   0047FC                     l4508:
  3020                           
  3021                           ;main_menu.c: 94:             LCD_ShowString(1, ">>> 0_GPIO          ");
  3022   0047FC  0E16               	movlw	low STR_3
  3023   0047FE  6EE6               	movwf	postinc1,c
  3024   004800  0EFF               	movlw	high STR_3
  3025   004802  6EE6               	movwf	postinc1,c
  3026   004804  0E01               	movlw	1
  3027   004806  6EE6               	movwf	postinc1,c
  3028   004808  ECDC  F021         	call	_LCD_ShowString	;wreg free
  3029                           
  3030                           ;main_menu.c: 95:             LCD_ShowString(2, "    State2           ");
  3031   00480C  0E92               	movlw	low STR_4
  3032   00480E  6EE6               	movwf	postinc1,c
  3033   004810  0EFE               	movlw	high STR_4
  3034   004812  6EE6               	movwf	postinc1,c
  3035   004814  0E02               	movlw	2
  3036   004816  6EE6               	movwf	postinc1,c
  3037   004818  ECDC  F021         	call	_LCD_ShowString	;wreg free
  3038   00481C                     
  3039                           ;main_menu.c: 96:             leds = 0b11000000;
  3040   00481C  0EC0               	movlw	192
  3041   00481E  6E3B               	movwf	state1@leds^0,c
  3042                           
  3043                           ;main_menu.c: 97:             break;
  3044   004820  EF5F  F024         	goto	l347
  3045   004824                     l4512:
  3046                           
  3047                           ;main_menu.c: 99:             bsp_drive_led(0);
  3048   004824  0E00               	movlw	0
  3049   004826  6EE6               	movwf	postinc1,c
  3050   004828  ECB9  F022         	call	_bsp_drive_led	;wreg free
  3051   00482C                     
  3052                           ;main_menu.c: 100:             printf("Exit state 1\n");
  3053   00482C  0EAF               	movlw	low STR_5
  3054   00482E  6EE6               	movwf	postinc1,c
  3055   004830  0EFF               	movlw	high STR_5
  3056   004832  6EE6               	movwf	postinc1,c
  3057   004834  0E02               	movlw	2
  3058   004836  6EE6               	movwf	postinc1,c
  3059   004838  EC7E  F028         	call	_printf	;wreg free
  3060                           
  3061                           ;main_menu.c: 101:             break;
  3062   00483C  EF5F  F024         	goto	l347
  3063   004840                     l4516:
  3064                           
  3065                           ;main_menu.c: 103:             fsm_transition(fsm, &state2);
  3066   004840  0E96               	movlw	low _state2
  3067   004842  6EE6               	movwf	postinc1,c
  3068   004844  0E44               	movlw	high _state2
  3069   004846  6EE6               	movwf	postinc1,c
  3070                           
  3071                           ;stkvar	_fsm @ sp[(-2)+-2]
  3072   004848  0EFC               	movlw	-4
  3073   00484A  CFE3 FFE6          	movff	plusw1,postinc1
  3074   00484E  CFE3 FFE6          	movff	plusw1,postinc1
  3075   004852  ECA9  F028         	call	_fsm_transition	;wreg free
  3076                           
  3077                           ;main_menu.c: 104:             break;
  3078   004856  EF5F  F024         	goto	l347
  3079   00485A                     l4518:
  3080                           
  3081                           ;main_menu.c: 106:             leds = (leds >> 1);
  3082   00485A  90D8               	bcf	status,0,c
  3083   00485C  323B               	rrcf	state1@leds^0,f,c
  3084   00485E                     
  3085                           ;main_menu.c: 107:             bsp_drive_led(leds);
  3086   00485E  503B               	movf	state1@leds^0,w,c
  3087   004860  6EE6               	movwf	postinc1,c
  3088   004862  ECB9  F022         	call	_bsp_drive_led	;wreg free
  3089   004866                     
  3090                           ;main_menu.c: 108:             leds += 0b10000000;
  3091   004866  0E80               	movlw	128
  3092   004868  263B               	addwf	state1@leds^0,f,c
  3093   00486A                     
  3094                           ;main_menu.c: 109:             if (leds == 0b11111111) leds = 0b10000000;
  3095   00486A  283B               	incf	state1@leds^0,w,c
  3096   00486C  A4D8               	btfss	status,2,c
  3097   00486E  EF3B  F024         	goto	u4781
  3098   004872  EF3D  F024         	goto	u4780
  3099   004876                     u4781:
  3100   004876  EF5F  F024         	goto	l347
  3101   00487A                     u4780:
  3102   00487A  0E80               	movlw	128
  3103   00487C  6E3B               	movwf	state1@leds^0,c
  3104   00487E  EF5F  F024         	goto	l347
  3105   004882                     l4530:
  3106                           
  3107                           ;stkvar	_event @ sp[(0)+-3]
  3108   004882  0EFD               	movlw	-3
  3109   004884  50E3               	movf	plusw1,w,c
  3110   004886  6E0B               	movwf	(btemp+10)^0,c
  3111   004888  6A0C               	clrf	(btemp+11)^0,c
  3112                           
  3113                           ; Switch on 2 bytes has been partitioned into a top level switch of size 1, and 1 sub-sw
      +                          itches
  3114                           ; Switch size 1, requested type "simple"
  3115                           ; Number of cases is 1, Range of values is 0 to 0
  3116                           ; switch strategies available:
  3117                           ; Name         Instructions Cycles
  3118                           ; simple_byte            4     3 (average)
  3119                           ;	Chosen strategy is simple_byte
  3120   00488A  500C               	movf	(btemp+11)^0,w,c
  3121   00488C  0A00               	xorlw	0	; case 0
  3122   00488E  B4D8               	btfsc	status,2,c
  3123   004890  EF4C  F024         	goto	l5264
  3124   004894  EF5F  F024         	goto	l347
  3125   004898                     l5264:
  3126                           
  3127                           ; Switch size 1, requested type "simple"
  3128                           ; Number of cases is 4, Range of values is 1 to 5
  3129                           ; switch strategies available:
  3130                           ; Name         Instructions Cycles
  3131                           ; simple_byte           13     7 (average)
  3132                           ;	Chosen strategy is simple_byte
  3133   004898  500B               	movf	(btemp+10)^0,w,c
  3134   00489A  0A01               	xorlw	1	; case 1
  3135   00489C  B4D8               	btfsc	status,2,c
  3136   00489E  EFFE  F023         	goto	l4508
  3137   0048A2  0A03               	xorlw	3	; case 2
  3138   0048A4  B4D8               	btfsc	status,2,c
  3139   0048A6  EF12  F024         	goto	l4512
  3140   0048AA  0A01               	xorlw	1	; case 3
  3141   0048AC  B4D8               	btfsc	status,2,c
  3142   0048AE  EF20  F024         	goto	l4516
  3143   0048B2  0A06               	xorlw	6	; case 5
  3144   0048B4  B4D8               	btfsc	status,2,c
  3145   0048B6  EF2D  F024         	goto	l4518
  3146   0048BA  EF5F  F024         	goto	l347
  3147   0048BE                     l347:
  3148                           
  3149                           ; _state1: autosize = 0, savesize = 0, parsavesize = 0, tempsize = 0 parsize = 3, argsiz
      +                          e = 3, vargsize = 0
  3150   0048BE  52E5               	movf	postdec1,f,c
  3151   0048C0  52E5               	movf	postdec1,f,c
  3152   0048C2  52E5               	movf	postdec1,f,c
  3153   0048C4  0012               	return		;funcret
  3154   0048C6                     __end_of_state1:
  3155                           	callstack 0
  3156                           
  3157 ;; *************** function _init *****************
  3158 ;; Defined at:
  3159 ;;		line 72 in file "main_menu.c"
  3160 ;; Parameters:    Size  Location     Type
  3161 ;;  fsm             2  [STACK] PTR struct fsm_t
  3162 ;;		 -> fsm(2), 
  3163 ;;  event           1  [STACK] unsigned char 
  3164 ;; Auto vars:     Size  Location     Type
  3165 ;;		None
  3166 ;; Return value:  Size  Location     Type
  3167 ;;                  1  [STACK] void 
  3168 ;; Registers used:
  3169 ;;		wreg, fsr0l, fsr0h, fsr1l, fsr1h, fsr2l, fsr2h, bsr, status,2, status,0, pcl, pclath, pclatu, btemp, btemp+1, btemp+
      +2, btemp+3, btemp+4, btemp+5, btemp+6, btemp+7, btemp+8, btemp+9, btemp+10, btemp+11, btemp+12, btemp+13, btemp+14, btem
      +p+15, btemp+16, btemp+17, btemp+18, btemp+19, btemp+20, btemp+21, btemp+22, btemp+23, btemp+24, btemp+25, btemp+26, btem
      +p+27, btemp+28, btemp+29, btemp+30, btemp+31, tosl, structret, tblptrl, tblptrh, tblptru, prodl, prodh, cstack
  3170 ;; Tracked objects:
  3171 ;;		On entry : 0/F
  3172 ;;		On exit  : 0/0
  3173 ;;		Unchanged: 0/0
  3174 ;; Data sizes:     COMRAM   BANK0   BANK1   BANK2   BANK3   BANK4   BANK5   BANK6   BANK7   BANK8   BANK9  BANK10  BANK1
      +1  BANK12  BANK13  BANK14  BANK15
  3175 ;;      Params:         0       0       0       0       0       0       0       0       0       0       0       0       
      +0       0       0       0       0
  3176 ;;      Locals:         0       0       0       0       0       0       0       0       0       0       0       0       
      +0       0       0       0       0
  3177 ;;      Temps:          0       0       0       0       0       0       0       0       0       0       0       0       
      +0       0       0       0       0
  3178 ;;      Totals:         0       0       0       0       0       0       0       0       0       0       0       0       
      +0       0       0       0       0
  3179 ;;Total ram usage:        0 bytes
  3180 ;; Hardware stack levels used: 1
  3181 ;; Hardware stack levels required when called: unknown (due to recursion)
  3182 ;; This function calls:
  3183 ;;		_LCD_ShowString
  3184 ;;		_bsp_set_timeout
  3185 ;;		_fsm_transition
  3186 ;;		_printf
  3187 ;; This function is called by:
  3188 ;;		_main
  3189 ;;		_fsm_dispatch
  3190 ;; This function uses a reentrant model (it is recursive)
  3191 ;;
  3192                           
  3193                           	psect	text16
  3194   004D2C                     __ptext16:
  3195                           	callstack 0
  3196   004D2C                     _init:
  3197                           	callstack 0
  3198   004D2C                     
  3199                           ;main_menu.c: 74:     switch(event){
  3200   004D2C  EFC3  F026         	goto	l4680
  3201   004D30                     l4670:
  3202                           
  3203                           ;main_menu.c: 76:             LCD_ShowString(1, "Welcome         ");
  3204   004D30  0E70               	movlw	low STR_1
  3205   004D32  6EE6               	movwf	postinc1,c
  3206   004D34  0EFF               	movlw	high STR_1
  3207   004D36  6EE6               	movwf	postinc1,c
  3208   004D38  0E01               	movlw	1
  3209   004D3A  6EE6               	movwf	postinc1,c
  3210   004D3C  ECDC  F021         	call	_LCD_ShowString	;wreg free
  3211   004D40                     
  3212                           ;main_menu.c: 77:             bsp_set_timeout(3000);
  3213   004D40  0EB8               	movlw	184
  3214   004D42  6EE6               	movwf	postinc1,c
  3215   004D44  0E0B               	movlw	11
  3216   004D46  6EE6               	movwf	postinc1,c
  3217   004D48  0E00               	movlw	0
  3218   004D4A  6EE6               	movwf	postinc1,c
  3219   004D4C  0E00               	movlw	0
  3220   004D4E  6EE6               	movwf	postinc1,c
  3221   004D50  EC97  F029         	call	_bsp_set_timeout	;wreg free
  3222                           
  3223                           ;main_menu.c: 78:             break;
  3224   004D54  EFDD  F026         	goto	l335
  3225   004D58                     l4674:
  3226                           
  3227                           ;main_menu.c: 80:             printf("Init state exit\n");
  3228   004D58  0E4E               	movlw	low STR_2
  3229   004D5A  6EE6               	movwf	postinc1,c
  3230   004D5C  0EFF               	movlw	high STR_2
  3231   004D5E  6EE6               	movwf	postinc1,c
  3232   004D60  0E02               	movlw	2
  3233   004D62  6EE6               	movwf	postinc1,c
  3234   004D64  EC7E  F028         	call	_printf	;wreg free
  3235                           
  3236                           ;main_menu.c: 81:             break;
  3237   004D68  EFDD  F026         	goto	l335
  3238   004D6C                     l4676:
  3239                           
  3240                           ;main_menu.c: 83:             fsm_transition(fsm, &state1);
  3241   004D6C  0EF8               	movlw	low _state1
  3242   004D6E  6EE6               	movwf	postinc1,c
  3243   004D70  0E47               	movlw	high _state1
  3244   004D72  6EE6               	movwf	postinc1,c
  3245                           
  3246                           ;stkvar	_fsm @ sp[(-2)+-2]
  3247   004D74  0EFC               	movlw	-4
  3248   004D76  CFE3 FFE6          	movff	plusw1,postinc1
  3249   004D7A  CFE3 FFE6          	movff	plusw1,postinc1
  3250   004D7E  ECA9  F028         	call	_fsm_transition	;wreg free
  3251                           
  3252                           ;main_menu.c: 84:             break;
  3253   004D82  EFDD  F026         	goto	l335
  3254   004D86                     l4680:
  3255                           
  3256                           ;stkvar	_event @ sp[(0)+-3]
  3257   004D86  0EFD               	movlw	-3
  3258   004D88  50E3               	movf	plusw1,w,c
  3259   004D8A  6E0B               	movwf	(btemp+10)^0,c
  3260   004D8C  6A0C               	clrf	(btemp+11)^0,c
  3261                           
  3262                           ; Switch on 2 bytes has been partitioned into a top level switch of size 1, and 1 sub-sw
      +                          itches
  3263                           ; Switch size 1, requested type "simple"
  3264                           ; Number of cases is 1, Range of values is 0 to 0
  3265                           ; switch strategies available:
  3266                           ; Name         Instructions Cycles
  3267                           ; simple_byte            4     3 (average)
  3268                           ;	Chosen strategy is simple_byte
  3269   004D8E  500C               	movf	(btemp+11)^0,w,c
  3270   004D90  0A00               	xorlw	0	; case 0
  3271   004D92  B4D8               	btfsc	status,2,c
  3272   004D94  EFCE  F026         	goto	l5266
  3273   004D98  EFDD  F026         	goto	l335
  3274   004D9C                     l5266:
  3275                           
  3276                           ; Switch size 1, requested type "simple"
  3277                           ; Number of cases is 3, Range of values is 1 to 7
  3278                           ; switch strategies available:
  3279                           ; Name         Instructions Cycles
  3280                           ; simple_byte           10     6 (average)
  3281                           ;	Chosen strategy is simple_byte
  3282   004D9C  500B               	movf	(btemp+10)^0,w,c
  3283   004D9E  0A01               	xorlw	1	; case 1
  3284   004DA0  B4D8               	btfsc	status,2,c
  3285   004DA2  EF98  F026         	goto	l4670
  3286   004DA6  0A03               	xorlw	3	; case 2
  3287   004DA8  B4D8               	btfsc	status,2,c
  3288   004DAA  EFAC  F026         	goto	l4674
  3289   004DAE  0A05               	xorlw	5	; case 7
  3290   004DB0  B4D8               	btfsc	status,2,c
  3291   004DB2  EFB6  F026         	goto	l4676
  3292   004DB6  EFDD  F026         	goto	l335
  3293   004DBA                     l335:
  3294                           
  3295                           ; _init: autosize = 0, savesize = 0, parsavesize = 0, tempsize = 0 parsize = 3, argsize 
      +                          = 3, vargsize = 0
  3296   004DBA  52E5               	movf	postdec1,f,c
  3297   004DBC  52E5               	movf	postdec1,f,c
  3298   004DBE  52E5               	movf	postdec1,f,c
  3299   004DC0  0012               	return		;funcret
  3300   004DC2                     __end_of_init:
  3301                           	callstack 0
  3302                           
  3303 ;; *************** function _uart_state *****************
  3304 ;; Defined at:
  3305 ;;		line 184 in file "main_menu.c"
  3306 ;; Parameters:    Size  Location     Type
  3307 ;;  fsm             2  [STACK] PTR struct fsm_t
  3308 ;;		 -> fsm(2), 
  3309 ;;  event           1  [STACK] unsigned char 
  3310 ;; Auto vars:     Size  Location     Type
  3311 ;;		None
  3312 ;; Return value:  Size  Location     Type
  3313 ;;                  1  [STACK] void 
  3314 ;; Registers used:
  3315 ;;		wreg, fsr0l, fsr0h, fsr1l, fsr1h, fsr2l, fsr2h, bsr, status,2, status,0, pcl, pclath, pclatu, btemp, btemp+1, btemp+
      +2, btemp+3, btemp+4, btemp+5, btemp+6, btemp+7, btemp+8, btemp+9, btemp+10, btemp+11, btemp+12, btemp+13, btemp+14, btem
      +p+15, btemp+16, btemp+17, btemp+18, btemp+19, btemp+20, btemp+21, btemp+22, btemp+23, btemp+24, btemp+25, btemp+26, btem
      +p+27, btemp+28, btemp+29, btemp+30, btemp+31, tosl, structret, tblptrl, tblptrh, tblptru, prodl, prodh, cstack
  3316 ;; Tracked objects:
  3317 ;;		On entry : 0/F
  3318 ;;		On exit  : 0/0
  3319 ;;		Unchanged: 0/0
  3320 ;; Data sizes:     COMRAM   BANK0   BANK1   BANK2   BANK3   BANK4   BANK5   BANK6   BANK7   BANK8   BANK9  BANK10  BANK1
      +1  BANK12  BANK13  BANK14  BANK15
  3321 ;;      Params:         0       0       0       0       0       0       0       0       0       0       0       0       
      +0       0       0       0       0
  3322 ;;      Locals:         0       0       0       0       0       0       0       0       0       0       0       0       
      +0       0       0       0       0
  3323 ;;      Temps:          0       0       0       0       0       0       0       0       0       0       0       0       
      +0       0       0       0       0
  3324 ;;      Totals:         0       0       0       0       0       0       0       0       0       0       0       0       
      +0       0       0       0       0
  3325 ;;Total ram usage:        0 bytes
  3326 ;; Hardware stack levels used: 1
  3327 ;; Hardware stack levels required when called: 15
  3328 ;; This function calls:
  3329 ;;		_LCD_Clear
  3330 ;;		_LCD_ShowString
  3331 ;;		_fsm_transition
  3332 ;;		_printf
  3333 ;; This function is called by:
  3334 ;;		_state4
  3335 ;;		_fsm_dispatch
  3336 ;; This function uses a reentrant model (it is recursive)
  3337 ;;
  3338                           
  3339                           	psect	text17
  3340   004994                     __ptext17:
  3341                           	callstack 0
  3342   004994                     _uart_state:
  3343                           	callstack 0
  3344   004994                     
  3345                           ;main_menu.c: 186:     switch(event){
  3346   004994  EF0D  F025         	goto	l4626
  3347   004998                     l4612:
  3348                           
  3349                           ;main_menu.c: 188:             printf("Enter state Uart\n");
  3350   004998  0E2B               	movlw	low STR_16
  3351   00499A  6EE6               	movwf	postinc1,c
  3352   00499C  0EFF               	movlw	high STR_16
  3353   00499E  6EE6               	movwf	postinc1,c
  3354   0049A0  0E02               	movlw	2
  3355   0049A2  6EE6               	movwf	postinc1,c
  3356   0049A4  EC7E  F028         	call	_printf	;wreg free
  3357   0049A8                     
  3358                           ;main_menu.c: 189:             LCD_ShowString(1, "Zadej zpravu:         ");
  3359   0049A8  0E7B               	movlw	low STR_17
  3360   0049AA  6EE6               	movwf	postinc1,c
  3361   0049AC  0EFE               	movlw	high STR_17
  3362   0049AE  6EE6               	movwf	postinc1,c
  3363   0049B0  0E01               	movlw	1
  3364   0049B2  6EE6               	movwf	postinc1,c
  3365   0049B4  ECDC  F021         	call	_LCD_ShowString	;wreg free
  3366   0049B8                     
  3367                           ;main_menu.c: 190:             printf("Zadej zpravu:\n");
  3368   0049B8  0EA0               	movlw	low STR_18
  3369   0049BA  6EE6               	movwf	postinc1,c
  3370   0049BC  0EFF               	movlw	high STR_18
  3371   0049BE  6EE6               	movwf	postinc1,c
  3372   0049C0  0E02               	movlw	2
  3373   0049C2  6EE6               	movwf	postinc1,c
  3374   0049C4  EC7E  F028         	call	_printf	;wreg free
  3375                           
  3376                           ;main_menu.c: 191:             break;
  3377   0049C8  EF2B  F025         	goto	l385
  3378   0049CC                     l4618:
  3379                           
  3380                           ;main_menu.c: 193:             printf("Exit state Uart\n");
  3381   0049CC  0E5F               	movlw	low STR_19
  3382   0049CE  6EE6               	movwf	postinc1,c
  3383   0049D0  0EFF               	movlw	high STR_19
  3384   0049D2  6EE6               	movwf	postinc1,c
  3385   0049D4  0E02               	movlw	2
  3386   0049D6  6EE6               	movwf	postinc1,c
  3387   0049D8  EC7E  F028         	call	_printf	;wreg free
  3388   0049DC                     
  3389                           ;main_menu.c: 194:             LCD_Clear();
  3390   0049DC  ECD1  F028         	call	_LCD_Clear	;wreg free
  3391                           
  3392                           ;main_menu.c: 195:             break;
  3393   0049E0  EF2B  F025         	goto	l385
  3394   0049E4                     l4622:
  3395                           
  3396                           ;main_menu.c: 197:             fsm_transition(fsm, &state4);
  3397   0049E4  0E5E               	movlw	low _state4
  3398   0049E6  6EE6               	movwf	postinc1,c
  3399   0049E8  0E4A               	movlw	high _state4
  3400   0049EA  6EE6               	movwf	postinc1,c
  3401                           
  3402                           ;stkvar	_fsm @ sp[(-2)+-2]
  3403   0049EC  0EFC               	movlw	-4
  3404   0049EE  CFE3 FFE6          	movff	plusw1,postinc1
  3405   0049F2  CFE3 FFE6          	movff	plusw1,postinc1
  3406   0049F6  ECA9  F028         	call	_fsm_transition	;wreg free
  3407                           
  3408                           ;main_menu.c: 198:             break;
  3409   0049FA  EF2B  F025         	goto	l385
  3410   0049FE                     l4624:
  3411                           
  3412                           ;main_menu.c: 200:             printf("Zprava: %s\n", msg.data);
  3413   0049FE  0ED2               	movlw	low _msg
  3414   004A00  6EE6               	movwf	postinc1,c
  3415   004A02  0E00               	movlw	high _msg
  3416   004A04  6EE6               	movwf	postinc1,c
  3417   004A06  0EE7               	movlw	low STR_20
  3418   004A08  6EE6               	movwf	postinc1,c
  3419   004A0A  0EFF               	movlw	high STR_20
  3420   004A0C  6EE6               	movwf	postinc1,c
  3421   004A0E  0E04               	movlw	4
  3422   004A10  6EE6               	movwf	postinc1,c
  3423   004A12  EC7E  F028         	call	_printf	;wreg free
  3424                           
  3425                           ;main_menu.c: 201:     }
  3426   004A16  EF2B  F025         	goto	l385
  3427   004A1A                     l4626:
  3428                           
  3429                           ;stkvar	_event @ sp[(0)+-3]
  3430   004A1A  0EFD               	movlw	-3
  3431   004A1C  50E3               	movf	plusw1,w,c
  3432   004A1E  6E0B               	movwf	(btemp+10)^0,c
  3433   004A20  6A0C               	clrf	(btemp+11)^0,c
  3434                           
  3435                           ; Switch on 2 bytes has been partitioned into a top level switch of size 1, and 1 sub-sw
      +                          itches
  3436                           ; Switch size 1, requested type "simple"
  3437                           ; Number of cases is 1, Range of values is 0 to 0
  3438                           ; switch strategies available:
  3439                           ; Name         Instructions Cycles
  3440                           ; simple_byte            4     3 (average)
  3441                           ;	Chosen strategy is simple_byte
  3442   004A22  500C               	movf	(btemp+11)^0,w,c
  3443   004A24  0A00               	xorlw	0	; case 0
  3444   004A26  B4D8               	btfsc	status,2,c
  3445   004A28  EF18  F025         	goto	l5268
  3446   004A2C  EF2B  F025         	goto	l385
  3447   004A30                     l5268:
  3448                           
  3449                           ; Switch size 1, requested type "simple"
  3450                           ; Number of cases is 4, Range of values is 1 to 9
  3451                           ; switch strategies available:
  3452                           ; Name         Instructions Cycles
  3453                           ; simple_byte           13     7 (average)
  3454                           ;	Chosen strategy is simple_byte
  3455   004A30  500B               	movf	(btemp+10)^0,w,c
  3456   004A32  0A01               	xorlw	1	; case 1
  3457   004A34  B4D8               	btfsc	status,2,c
  3458   004A36  EFCC  F024         	goto	l4612
  3459   004A3A  0A03               	xorlw	3	; case 2
  3460   004A3C  B4D8               	btfsc	status,2,c
  3461   004A3E  EFE6  F024         	goto	l4618
  3462   004A42  0A04               	xorlw	4	; case 6
  3463   004A44  B4D8               	btfsc	status,2,c
  3464   004A46  EFF2  F024         	goto	l4622
  3465   004A4A  0A0F               	xorlw	15	; case 9
  3466   004A4C  B4D8               	btfsc	status,2,c
  3467   004A4E  EFFF  F024         	goto	l4624
  3468   004A52  EF2B  F025         	goto	l385
  3469   004A56                     l385:
  3470                           
  3471                           ; _uart_state: autosize = 0, savesize = 0, parsavesize = 0, tempsize = 0 parsize = 3, ar
      +                          gsize = 3, vargsize = 0
  3472   004A56  52E5               	movf	postdec1,f,c
  3473   004A58  52E5               	movf	postdec1,f,c
  3474   004A5A  52E5               	movf	postdec1,f,c
  3475   004A5C  0012               	return		;funcret
  3476   004A5E                     __end_of_uart_state:
  3477                           	callstack 0
  3478                           
  3479 ;; *************** function _bsp_drive_led *****************
  3480 ;; Defined at:
  3481 ;;		line 58 in file "bsp.c"
  3482 ;; Parameters:    Size  Location     Type
  3483 ;;  input           1  [STACK] unsigned char 
  3484 ;; Auto vars:     Size  Location     Type
  3485 ;;		None
  3486 ;; Return value:  Size  Location     Type
  3487 ;;                  1  [STACK] void 
  3488 ;; Registers used:
  3489 ;;		wreg, fsr1l, fsr1h, status,2, status,0, btemp+11
  3490 ;; Tracked objects:
  3491 ;;		On entry : 0/F
  3492 ;;		On exit  : 0/0
  3493 ;;		Unchanged: 0/0
  3494 ;; Data sizes:     COMRAM   BANK0   BANK1   BANK2   BANK3   BANK4   BANK5   BANK6   BANK7   BANK8   BANK9  BANK10  BANK1
      +1  BANK12  BANK13  BANK14  BANK15
  3495 ;;      Params:         0       0       0       0       0       0       0       0       0       0       0       0       
      +0       0       0       0       0
  3496 ;;      Locals:         0       0       0       0       0       0       0       0       0       0       0       0       
      +0       0       0       0       0
  3497 ;;      Temps:          0       0       0       0       0       0       0       0       0       0       0       0       
      +0       0       0       0       0
  3498 ;;      Totals:         0       0       0       0       0       0       0       0       0       0       0       0       
      +0       0       0       0       0
  3499 ;;Total ram usage:        0 bytes
  3500 ;; Hardware stack levels used: 1
  3501 ;; Hardware stack levels required when called: 7
  3502 ;; This function calls:
  3503 ;;		Nothing
  3504 ;; This function is called by:
  3505 ;;		_state1
  3506 ;; This function uses a reentrant model
  3507 ;;
  3508                           
  3509                           	psect	text18
  3510   004572                     __ptext18:
  3511                           	callstack 0
  3512   004572                     _bsp_drive_led:
  3513                           	callstack 0
  3514   004572                     
  3515                           ;bsp.c: 59:     LATDbits.LD6 = input & 1 ? 0 : 1;
  3516                           ;stkvar	_input @ sp[(0)+-1]
  3517   004572  0EFF               	movlw	-1
  3518   004574  A0E3               	btfss	plusw1,0,c
  3519   004576  EFBF  F022         	goto	u4551
  3520   00457A  EFC3  F022         	goto	u4550
  3521   00457E                     u4551:
  3522   00457E  6A0C               	clrf	(btemp+11)^0,c
  3523   004580  2A0C               	incf	(btemp+11)^0,f,c
  3524   004582  EFC4  F022         	goto	u4568
  3525   004586                     u4550:
  3526   004586  6A0C               	clrf	(btemp+11)^0,c
  3527   004588                     u4568:
  3528   004588  3A0C               	swapf	(btemp+11)^0,f,c
  3529   00458A  460C               	rlncf	(btemp+11)^0,f,c
  3530   00458C  460C               	rlncf	(btemp+11)^0,f,c
  3531   00458E  508C               	movf	140,w,c	;volatile
  3532   004590  180C               	xorwf	(btemp+11)^0,w,c
  3533   004592  0BBF               	andlw	-65
  3534   004594  180C               	xorwf	(btemp+11)^0,w,c
  3535   004596  6E8C               	movwf	140,c	;volatile
  3536                           
  3537                           ;bsp.c: 60:     LATDbits.LD5 = input & 2 ? 0 : 1;
  3538                           ;stkvar	_input @ sp[(0)+-1]
  3539   004598  0EFF               	movlw	-1
  3540   00459A  A2E3               	btfss	plusw1,1,c
  3541   00459C  EFD2  F022         	goto	u4571
  3542   0045A0  EFD6  F022         	goto	u4570
  3543   0045A4                     u4571:
  3544   0045A4  6A0C               	clrf	(btemp+11)^0,c
  3545   0045A6  2A0C               	incf	(btemp+11)^0,f,c
  3546   0045A8  EFD7  F022         	goto	u4588
  3547   0045AC                     u4570:
  3548   0045AC  6A0C               	clrf	(btemp+11)^0,c
  3549   0045AE                     u4588:
  3550   0045AE  3A0C               	swapf	(btemp+11)^0,f,c
  3551   0045B0  460C               	rlncf	(btemp+11)^0,f,c
  3552   0045B2  508C               	movf	140,w,c	;volatile
  3553   0045B4  180C               	xorwf	(btemp+11)^0,w,c
  3554   0045B6  0BDF               	andlw	-33
  3555   0045B8  180C               	xorwf	(btemp+11)^0,w,c
  3556   0045BA  6E8C               	movwf	140,c	;volatile
  3557                           
  3558                           ;bsp.c: 61:     LATDbits.LD4 = input & 4 ? 0 : 1;
  3559                           ;stkvar	_input @ sp[(0)+-1]
  3560   0045BC  0EFF               	movlw	-1
  3561   0045BE  A4E3               	btfss	plusw1,2,c
  3562   0045C0  EFE4  F022         	goto	u4591
  3563   0045C4  EFE8  F022         	goto	u4590
  3564   0045C8                     u4591:
  3565   0045C8  6A0C               	clrf	(btemp+11)^0,c
  3566   0045CA  2A0C               	incf	(btemp+11)^0,f,c
  3567   0045CC  EFE9  F022         	goto	u4608
  3568   0045D0                     u4590:
  3569   0045D0  6A0C               	clrf	(btemp+11)^0,c
  3570   0045D2                     u4608:
  3571   0045D2  3A0C               	swapf	(btemp+11)^0,f,c
  3572   0045D4  508C               	movf	140,w,c	;volatile
  3573   0045D6  180C               	xorwf	(btemp+11)^0,w,c
  3574   0045D8  0BEF               	andlw	-17
  3575   0045DA  180C               	xorwf	(btemp+11)^0,w,c
  3576   0045DC  6E8C               	movwf	140,c	;volatile
  3577                           
  3578                           ;bsp.c: 62:     LATCbits.LC4 = input & 8 ? 0 : 1;
  3579                           ;stkvar	_input @ sp[(0)+-1]
  3580   0045DE  0EFF               	movlw	-1
  3581   0045E0  A6E3               	btfss	plusw1,3,c
  3582   0045E2  EFF5  F022         	goto	u4611
  3583   0045E6  EFF9  F022         	goto	u4610
  3584   0045EA                     u4611:
  3585   0045EA  6A0C               	clrf	(btemp+11)^0,c
  3586   0045EC  2A0C               	incf	(btemp+11)^0,f,c
  3587   0045EE  EFFA  F022         	goto	u4628
  3588   0045F2                     u4610:
  3589   0045F2  6A0C               	clrf	(btemp+11)^0,c
  3590   0045F4                     u4628:
  3591   0045F4  3A0C               	swapf	(btemp+11)^0,f,c
  3592   0045F6  508B               	movf	139,w,c	;volatile
  3593   0045F8  180C               	xorwf	(btemp+11)^0,w,c
  3594   0045FA  0BEF               	andlw	-17
  3595   0045FC  180C               	xorwf	(btemp+11)^0,w,c
  3596   0045FE  6E8B               	movwf	139,c	;volatile
  3597                           
  3598                           ;bsp.c: 63:     LATDbits.LD3 = input & 16 ? 0 : 1;
  3599                           ;stkvar	_input @ sp[(0)+-1]
  3600   004600  0EFF               	movlw	-1
  3601   004602  A8E3               	btfss	plusw1,4,c
  3602   004604  EF06  F023         	goto	u4631
  3603   004608  EF0A  F023         	goto	u4630
  3604   00460C                     u4631:
  3605   00460C  6A0C               	clrf	(btemp+11)^0,c
  3606   00460E  2A0C               	incf	(btemp+11)^0,f,c
  3607   004610  EF0B  F023         	goto	u4648
  3608   004614                     u4630:
  3609   004614  6A0C               	clrf	(btemp+11)^0,c
  3610   004616                     u4648:
  3611   004616  460C               	rlncf	(btemp+11)^0,f,c
  3612   004618  460C               	rlncf	(btemp+11)^0,f,c
  3613   00461A  460C               	rlncf	(btemp+11)^0,f,c
  3614   00461C  508C               	movf	140,w,c	;volatile
  3615   00461E  180C               	xorwf	(btemp+11)^0,w,c
  3616   004620  0BF7               	andlw	-9
  3617   004622  180C               	xorwf	(btemp+11)^0,w,c
  3618   004624  6E8C               	movwf	140,c	;volatile
  3619                           
  3620                           ;bsp.c: 64:     LATDbits.LD2 = input & 32 ? 0 : 1;
  3621                           ;stkvar	_input @ sp[(0)+-1]
  3622   004626  0EFF               	movlw	-1
  3623   004628  AAE3               	btfss	plusw1,5,c
  3624   00462A  EF19  F023         	goto	u4651
  3625   00462E  EF1D  F023         	goto	u4650
  3626   004632                     u4651:
  3627   004632  6A0C               	clrf	(btemp+11)^0,c
  3628   004634  2A0C               	incf	(btemp+11)^0,f,c
  3629   004636  EF1E  F023         	goto	u4668
  3630   00463A                     u4650:
  3631   00463A  6A0C               	clrf	(btemp+11)^0,c
  3632   00463C                     u4668:
  3633   00463C  460C               	rlncf	(btemp+11)^0,f,c
  3634   00463E  460C               	rlncf	(btemp+11)^0,f,c
  3635   004640  508C               	movf	140,w,c	;volatile
  3636   004642  180C               	xorwf	(btemp+11)^0,w,c
  3637   004644  0BFB               	andlw	-5
  3638   004646  180C               	xorwf	(btemp+11)^0,w,c
  3639   004648  6E8C               	movwf	140,c	;volatile
  3640   00464A                     
  3641                           ; _bsp_drive_led: autosize = 0, savesize = 0, parsavesize = 0, tempsize = 0 parsize = 1,
      +                           argsize = 1, vargsize = 0
  3642   00464A  52E5               	movf	postdec1,f,c
  3643   00464C  0012               	return		;funcret
  3644   00464E                     __end_of_bsp_drive_led:
  3645                           	callstack 0
  3646                           
  3647 ;; *************** function _sprintf *****************
  3648 ;; Defined at:
  3649 ;;		line 9 in file "C:\Program Files\Microchip\xc8\v2.41\pic\sources\c99\common\nf_sprintf.c"
  3650 ;; Parameters:    Size  Location     Type
  3651 ;;  s               2  [STACK] PTR unsigned char 
  3652 ;;		 -> str(17), 
  3653 ;;  fmt             2  [STACK] PTR const unsigned char 
  3654 ;;		 -> STR_24(23), 
  3655 ;; Auto vars:     Size  Location     Type
  3656 ;;  f              12  [STACK] struct _IO_FILE
  3657 ;;  ap              2  [STACK] PTR void [1]
  3658 ;;		 -> ?_printf(2), ?_sprintf(2), 
  3659 ;;  ret             2    0        int 
  3660 ;; Return value:  Size  Location     Type
  3661 ;;                  2  [STACK] int 
  3662 ;; Registers used:
  3663 ;;		wreg, fsr0l, fsr0h, fsr1l, fsr1h, fsr2l, fsr2h, status,2, status,0, btemp, btemp+1, btemp+2, btemp+3, btemp+4, btemp
      ++5, btemp+6, btemp+7, btemp+8, btemp+9, btemp+10, btemp+11, tblptrl, tblptrh, tblptru, prodl, prodh
  3664 ;; Tracked objects:
  3665 ;;		On entry : 0/F
  3666 ;;		On exit  : 0/0
  3667 ;;		Unchanged: 0/0
  3668 ;; Data sizes:     COMRAM   BANK0   BANK1   BANK2   BANK3   BANK4   BANK5   BANK6   BANK7   BANK8   BANK9  BANK10  BANK1
      +1  BANK12  BANK13  BANK14  BANK15
  3669 ;;      Params:         0       0       0       0       0       0       0       0       0       0       0       0       
      +0       0       0       0       0
  3670 ;;      Locals:         0       0       0       0       0       0       0       0       0       0       0       0       
      +0       0       0       0       0
  3671 ;;      Temps:          0       0       0       0       0       0       0       0       0       0       0       0       
      +0       0       0       0       0
  3672 ;;      Totals:         0       0       0       0       0       0       0       0       0       0       0       0       
      +0       0       0       0       0
  3673 ;;Total ram usage:        0 bytes
  3674 ;; Hardware stack levels used: 1
  3675 ;; Hardware stack levels required when called: 14
  3676 ;; This function calls:
  3677 ;;		_vfprintf
  3678 ;; This function is called by:
  3679 ;;		_pot_state
  3680 ;; This function uses a reentrant model
  3681 ;;
  3682                           
  3683                           	psect	text19
  3684   004728                     __ptext19:
  3685                           	callstack 0
  3686   004728                     _sprintf:
  3687                           	callstack 0
  3688                           
  3689                           ; autosize = 14, savesize = 0, parsavesize = 0, tempsize = 0 parsize = 8, argsize = 4 va
      +                          rgsize = 0, retsize = 0 argfudge = 0
  3690   004728  0E0E               	movlw	14
  3691   00472A  26E1               	addwf	fsr1l,f,c
  3692   00472C  0E00               	movlw	0
  3693   00472E  22E2               	addwfc	fsr1h,f,c
  3694   004730                     
  3695                           ;stkvar	?_sprintf @ sp[(-14)+-3]
  3696   004730  0EED               	movlw	237
  3697   004732  24E1               	addwf	fsr1l,w,c
  3698   004734  6E0B               	movwf	(btemp+10)^0,c
  3699   004736  0EFF               	movlw	255
  3700   004738  20E2               	addwfc	fsr1h,w,c
  3701   00473A  6E0C               	movwf	(btemp+11)^0,c
  3702                           
  3703                           ;stkvar	_ap @ sp[(-14)+12]
  3704   00473C  0EFF               	movlw	-1
  3705   00473E  C00C  FFE3         	movff	btemp+11,plusw1
  3706   004742  0EFE               	movlw	-2
  3707   004744  C00B  FFE3         	movff	btemp+10,plusw1
  3708                           
  3709                           ;stkvar	_s @ sp[(-14)+-3]
  3710   004748  0EEF               	movlw	-17
  3711   00474A  CFE3 F00B          	movff	plusw1,btemp+10
  3712   00474E  0EF0               	movlw	-16
  3713   004750  CFE3 F00C          	movff	plusw1,btemp+11
  3714                           
  3715                           ;stkvar	_f @ sp[(-14)+0]
  3716   004754  0EF3               	movlw	-13
  3717   004756  C00C  FFE3         	movff	btemp+11,plusw1
  3718   00475A  0EF2               	movlw	-14
  3719   00475C  C00B  FFE3         	movff	btemp+10,plusw1
  3720   004760                     
  3721                           ;stkvar	_f @ sp[(-14)+0]
  3722   004760  0EF5               	movlw	245
  3723   004762  24E1               	addwf	fsr1l,w,c
  3724   004764  6ED9               	movwf	fsr2l,c
  3725   004766  0EFF               	movlw	255
  3726   004768  20E2               	addwfc	fsr1h,w,c
  3727   00476A  6EDA               	movwf	fsr2h,c
  3728   00476C  6ADE               	clrf	postinc2,c
  3729   00476E  6ADD               	clrf	postdec2,c
  3730   004770                     
  3731                           ;stkvar	_f @ sp[(-14)+0]
  3732   004770  0EFC               	movlw	252
  3733   004772  24E1               	addwf	fsr1l,w,c
  3734   004774  6ED9               	movwf	fsr2l,c
  3735   004776  0EFF               	movlw	255
  3736   004778  20E2               	addwfc	fsr1h,w,c
  3737   00477A  6EDA               	movwf	fsr2h,c
  3738   00477C  6ADE               	clrf	postinc2,c
  3739   00477E  6ADD               	clrf	postdec2,c
  3740   004780                     
  3741                           ;stkvar	_ap @ sp[(-14)+12]
  3742   004780  0EFE               	movlw	254
  3743   004782  24E1               	addwf	fsr1l,w,c
  3744   004784  6E01               	movwf	btemp^0,c
  3745   004786  0EFF               	movlw	255
  3746   004788  20E2               	addwfc	fsr1h,w,c
  3747   00478A  6E02               	movwf	(btemp+1)^0,c
  3748   00478C  C001  FFE6         	movff	btemp,postinc1
  3749   004790  C002  FFE6         	movff	btemp+1,postinc1
  3750                           
  3751                           ;stkvar	_fmt @ sp[(-16)+-5]
  3752   004794  0EEB               	movlw	-21
  3753   004796  CFE3 FFE6          	movff	plusw1,postinc1
  3754   00479A  CFE3 FFE6          	movff	plusw1,postinc1
  3755                           
  3756                           ;stkvar	_f @ sp[(-18)+0]
  3757   00479E  0EEE               	movlw	238
  3758   0047A0  24E1               	addwf	fsr1l,w,c
  3759   0047A2  6E01               	movwf	btemp^0,c
  3760   0047A4  0EFF               	movlw	255
  3761   0047A6  20E2               	addwfc	fsr1h,w,c
  3762   0047A8  6E02               	movwf	(btemp+1)^0,c
  3763   0047AA  C001  FFE6         	movff	btemp,postinc1
  3764   0047AE  C002  FFE6         	movff	btemp+1,postinc1
  3765   0047B2  EC2A  F027         	call	_vfprintf	;wreg free
  3766   0047B6                     
  3767                           ;stkvar	_f @ sp[(-14)+0]
  3768   0047B6  0EF5               	movlw	245
  3769   0047B8  24E1               	addwf	fsr1l,w,c
  3770   0047BA  6ED9               	movwf	fsr2l,c
  3771   0047BC  0EFF               	movlw	255
  3772   0047BE  20E2               	addwfc	fsr1h,w,c
  3773   0047C0  6EDA               	movwf	fsr2h,c
  3774   0047C2  CFDE F00B          	movff	postinc2,btemp+10
  3775   0047C6  CFDD F00C          	movff	postdec2,btemp+11
  3776                           
  3777                           ;stkvar	_s @ sp[(-14)+-3]
  3778   0047CA  0EEF               	movlw	-17
  3779   0047CC  CFE3 F009          	movff	plusw1,btemp+8
  3780   0047D0  0EF0               	movlw	-16
  3781   0047D2  CFE3 F00A          	movff	plusw1,btemp+9
  3782   0047D6  500B               	movf	(btemp+10)^0,w,c
  3783   0047D8  2409               	addwf	(btemp+8)^0,w,c
  3784   0047DA  6ED9               	movwf	fsr2l,c
  3785   0047DC  500C               	movf	(btemp+11)^0,w,c
  3786   0047DE  200A               	addwfc	(btemp+9)^0,w,c
  3787   0047E0  6EDA               	movwf	fsr2h,c
  3788   0047E2  6ADF               	clrf	indf2,c
  3789   0047E4                     
  3790                           ; _sprintf: autosize = 14, savesize = 0, parsavesize = 0, tempsize = 0 parsize = 8, args
      +                          ize = 4, vargsize = 0
  3791   0047E4  0EF2               	movlw	242
  3792   0047E6  26E1               	addwf	fsr1l,f,c
  3793   0047E8  0EFF               	movlw	255
  3794   0047EA  22E2               	addwfc	fsr1h,f,c
  3795   0047EC  52E5               	movf	postdec1,f,c
  3796   0047EE  50E7               	movf	indf1,w,c
  3797   0047F0  5EE1               	subwf	fsr1l,f,c
  3798   0047F2  0E00               	movlw	0
  3799   0047F4  5AE2               	subwfb	fsr1h,f,c
  3800   0047F6  0012               	return		;funcret
  3801   0047F8                     __end_of_sprintf:
  3802                           	callstack 0
  3803                           
  3804 ;; *************** function _adc_read *****************
  3805 ;; Defined at:
  3806 ;;		line 15 in file "adc.c"
  3807 ;; Parameters:    Size  Location     Type
  3808 ;;  channel         1  [STACK] unsigned char 
  3809 ;; Auto vars:     Size  Location     Type
  3810 ;;  result          2  [STACK] unsigned short 
  3811 ;; Return value:  Size  Location     Type
  3812 ;;                  2  [STACK] unsigned short 
  3813 ;; Registers used:
  3814 ;;		wreg, fsr1l, fsr1h, status,2, status,0, btemp, btemp+1, btemp+11
  3815 ;; Tracked objects:
  3816 ;;		On entry : 0/F
  3817 ;;		On exit  : 0/0
  3818 ;;		Unchanged: 0/0
  3819 ;; Data sizes:     COMRAM   BANK0   BANK1   BANK2   BANK3   BANK4   BANK5   BANK6   BANK7   BANK8   BANK9  BANK10  BANK1
      +1  BANK12  BANK13  BANK14  BANK15
  3820 ;;      Params:         0       0       0       0       0       0       0       0       0       0       0       0       
      +0       0       0       0       0
  3821 ;;      Locals:         0       0       0       0       0       0       0       0       0       0       0       0       
      +0       0       0       0       0
  3822 ;;      Temps:          0       0       0       0       0       0       0       0       0       0       0       0       
      +0       0       0       0       0
  3823 ;;      Totals:         0       0       0       0       0       0       0       0       0       0       0       0       
      +0       0       0       0       0
  3824 ;;Total ram usage:        0 bytes
  3825 ;; Hardware stack levels used: 1
  3826 ;; Hardware stack levels required when called: 7
  3827 ;; This function calls:
  3828 ;;		Nothing
  3829 ;; This function is called by:
  3830 ;;		_pot_state
  3831 ;; This function uses a reentrant model
  3832 ;;
  3833                           
  3834                           	psect	text20
  3835   0050A0                     __ptext20:
  3836                           	callstack 0
  3837   0050A0                     _adc_read:
  3838                           	callstack 0
  3839                           
  3840                           ; autosize = 2, savesize = 0, parsavesize = 0, tempsize = 0 parsize = 1, argsize = 1 var
      +                          gsize = 0, retsize = 0 argfudge = 0
  3841   0050A0  52E6               	movf	postinc1,f,c
  3842   0050A2  52E6               	movf	postinc1,f,c
  3843   0050A4                     
  3844                           ;adc.c: 17:     ADCON0bits.CHS = channel;
  3845                           ;stkvar	_channel @ sp[(-2)+-1]
  3846   0050A4  0EFD               	movlw	-3
  3847   0050A6  CFE3 F00C          	movff	plusw1,btemp+11
  3848   0050AA  460C               	rlncf	(btemp+11)^0,f,c
  3849   0050AC  460C               	rlncf	(btemp+11)^0,f,c
  3850   0050AE  50C2               	movf	194,w,c	;volatile
  3851   0050B0  180C               	xorwf	(btemp+11)^0,w,c
  3852   0050B2  0B83               	andlw	-125
  3853   0050B4  180C               	xorwf	(btemp+11)^0,w,c
  3854   0050B6  6EC2               	movwf	194,c	;volatile
  3855   0050B8                     
  3856                           ;adc.c: 18:     GODONE = 1;
  3857   0050B8  82C2               	bsf	4034,1,c	;volatile
  3858   0050BA                     l249:
  3859   0050BA  B2C2               	btfsc	4034,1,c	;volatile
  3860   0050BC  EF62  F028         	goto	u4671
  3861   0050C0  EF64  F028         	goto	u4670
  3862   0050C4                     u4671:
  3863   0050C4  EF5D  F028         	goto	l249
  3864   0050C8                     u4670:
  3865   0050C8                     
  3866                           ;adc.c: 20:     uint16_t result = (uint16_t)(ADRESH<<8) | ADRESL;
  3867   0050C8  50C3               	movf	195,w,c	;volatile
  3868   0050CA  CFC4 F001          	movff	4036,btemp	;volatile
  3869   0050CE  6A02               	clrf	(btemp+1)^0,c
  3870   0050D0  C001  F002         	movff	btemp,btemp+1
  3871   0050D4  6A01               	clrf	btemp^0,c
  3872   0050D6  1201               	iorwf	btemp^0,f,c
  3873   0050D8  0E00               	movlw	0
  3874   0050DA  1202               	iorwf	(btemp+1)^0,f,c
  3875                           
  3876                           ;stkvar	_result @ sp[(-2)+0]
  3877   0050DC  0EFE               	movlw	-2
  3878   0050DE  C001  FFE3         	movff	btemp,plusw1
  3879   0050E2  0EFF               	movlw	-1
  3880   0050E4  C002  FFE3         	movff	btemp+1,plusw1
  3881   0050E8                     
  3882                           ;adc.c: 21:     return result;
  3883                           ;stkvar	_result @ sp[(-2)+0]
  3884   0050E8  0EFE               	movlw	-2
  3885   0050EA  CFE3 F001          	movff	plusw1,btemp
  3886   0050EE  0EFF               	movlw	-1
  3887   0050F0  CFE3 F002          	movff	plusw1,btemp+1
  3888   0050F4                     
  3889                           ; _adc_read: autosize = 2, savesize = 0, parsavesize = 0, tempsize = 0 parsize = 1, args
      +                          ize = 1, vargsize = 0
  3890   0050F4  52E5               	movf	postdec1,f,c
  3891   0050F6  52E5               	movf	postdec1,f,c
  3892   0050F8  52E5               	movf	postdec1,f,c
  3893   0050FA  0012               	return		;funcret
  3894   0050FC                     __end_of_adc_read:
  3895                           	callstack 0
  3896                           
  3897 ;; *************** function ___xxtofl *****************
  3898 ;; Defined at:
  3899 ;;		line 10 in file "C:\Program Files\Microchip\xc8\v2.41\pic\sources\c99\common\xxtofl.c"
  3900 ;; Parameters:    Size  Location     Type
  3901 ;;  sign            1  [STACK] unsigned char 
  3902 ;;  val             4  [STACK] long 
  3903 ;; Auto vars:     Size  Location     Type
  3904 ;;  arg             4  [STACK] unsigned long 
  3905 ;;  exp             1  [STACK] unsigned char 
  3906 ;; Return value:  Size  Location     Type
  3907 ;;                  4  [STACK] unsigned char 
  3908 ;; Registers used:
  3909 ;;		wreg, fsr1l, fsr1h, fsr2l, fsr2h, status,2, status,0, btemp, btemp+1, btemp+2, btemp+3, btemp+4, btemp+5, btemp+6, b
      +temp+7, btemp+8, btemp+9, btemp+10, btemp+11
  3910 ;; Tracked objects:
  3911 ;;		On entry : 0/F
  3912 ;;		On exit  : 0/0
  3913 ;;		Unchanged: 0/0
  3914 ;; Data sizes:     COMRAM   BANK0   BANK1   BANK2   BANK3   BANK4   BANK5   BANK6   BANK7   BANK8   BANK9  BANK10  BANK1
      +1  BANK12  BANK13  BANK14  BANK15
  3915 ;;      Params:         0       0       0       0       0       0       0       0       0       0       0       0       
      +0       0       0       0       0
  3916 ;;      Locals:         0       0       0       0       0       0       0       0       0       0       0       0       
      +0       0       0       0       0
  3917 ;;      Temps:          0       0       0       0       0       0       0       0       0       0       0       0       
      +0       0       0       0       0
  3918 ;;      Totals:         0       0       0       0       0       0       0       0       0       0       0       0       
      +0       0       0       0       0
  3919 ;;Total ram usage:        0 bytes
  3920 ;; Hardware stack levels used: 1
  3921 ;; Hardware stack levels required when called: 7
  3922 ;; This function calls:
  3923 ;;		Nothing
  3924 ;; This function is called by:
  3925 ;;		_pot_state
  3926 ;; This function uses a reentrant model
  3927 ;;
  3928                           
  3929                           	psect	text21
  3930   003000                     __ptext21:
  3931                           	callstack 0
  3932   003000                     ___xxtofl:
  3933                           	callstack 0
  3934                           
  3935                           ; autosize = 5, savesize = 0, parsavesize = 0, tempsize = 0 parsize = 5, argsize = 5 var
      +                          gsize = 0, retsize = 0 argfudge = 0
  3936   003000  0E05               	movlw	5
  3937   003002  26E1               	addwf	fsr1l,f,c
  3938   003004  0E00               	movlw	0
  3939   003006  22E2               	addwfc	fsr1h,f,c
  3940   003008                     
  3941                           ;stkvar	_sign @ sp[(-5)+-1]
  3942   003008  0EFA               	movlw	-6
  3943   00300A  50E3               	movf	plusw1,w,c
  3944   00300C  B4D8               	btfsc	status,2,c
  3945   00300E  EF0B  F018         	goto	u4681
  3946   003012  EF0D  F018         	goto	u4680
  3947   003016                     u4681:
  3948   003016  EF38  F018         	goto	l4460
  3949   00301A                     u4680:
  3950   00301A                     
  3951                           ;stkvar	_val @ sp[(-5)+-5]
  3952   00301A  0EF9               	movlw	-7
  3953   00301C  BEE3               	btfsc	plusw1,7,c
  3954   00301E  EF15  F018         	goto	u4690
  3955   003022  EF13  F018         	goto	u4691
  3956   003026                     u4691:
  3957   003026  EF38  F018         	goto	l4460
  3958   00302A                     u4690:
  3959   00302A                     
  3960                           ;stkvar	_val @ sp[(-5)+-5]
  3961   00302A  0EF6               	movlw	-10
  3962   00302C  CFE3 F009          	movff	plusw1,btemp+8
  3963   003030  0EF7               	movlw	-9
  3964   003032  CFE3 F00A          	movff	plusw1,btemp+9
  3965   003036  0EF8               	movlw	-8
  3966   003038  CFE3 F00B          	movff	plusw1,btemp+10
  3967   00303C  0EF9               	movlw	-7
  3968   00303E  CFE3 F00C          	movff	plusw1,btemp+11
  3969   003042  1E09               	comf	(btemp+8)^0,f,c
  3970   003044  1E0A               	comf	(btemp+9)^0,f,c
  3971   003046  1E0B               	comf	(btemp+10)^0,f,c
  3972   003048  1E0C               	comf	(btemp+11)^0,f,c
  3973   00304A  2A09               	incf	(btemp+8)^0,f,c
  3974   00304C  0E00               	movlw	0
  3975   00304E  220A               	addwfc	(btemp+9)^0,f,c
  3976   003050  220B               	addwfc	(btemp+10)^0,f,c
  3977   003052  220C               	addwfc	(btemp+11)^0,f,c
  3978                           
  3979                           ;stkvar	_arg @ sp[(-5)+0]
  3980   003054  0EFB               	movlw	-5
  3981   003056  C009  FFE3         	movff	btemp+8,plusw1
  3982   00305A  0EFC               	movlw	-4
  3983   00305C  C00A  FFE3         	movff	btemp+9,plusw1
  3984   003060  0EFD               	movlw	-3
  3985   003062  C00B  FFE3         	movff	btemp+10,plusw1
  3986   003066  0EFE               	movlw	-2
  3987   003068  C00C  FFE3         	movff	btemp+11,plusw1
  3988   00306C  EF50  F018         	goto	l4462
  3989   003070                     l4460:
  3990                           
  3991                           ;stkvar	_val @ sp[(-5)+-5]
  3992   003070  0EF6               	movlw	-10
  3993   003072  CFE3 F009          	movff	plusw1,btemp+8
  3994   003076  0EF7               	movlw	-9
  3995   003078  CFE3 F00A          	movff	plusw1,btemp+9
  3996   00307C  0EF8               	movlw	-8
  3997   00307E  CFE3 F00B          	movff	plusw1,btemp+10
  3998   003082  0EF9               	movlw	-7
  3999   003084  CFE3 F00C          	movff	plusw1,btemp+11
  4000                           
  4001                           ;stkvar	_arg @ sp[(-5)+0]
  4002   003088  0EFB               	movlw	-5
  4003   00308A  C009  FFE3         	movff	btemp+8,plusw1
  4004   00308E  0EFC               	movlw	-4
  4005   003090  C00A  FFE3         	movff	btemp+9,plusw1
  4006   003094  0EFD               	movlw	-3
  4007   003096  C00B  FFE3         	movff	btemp+10,plusw1
  4008   00309A  0EFE               	movlw	-2
  4009   00309C  C00C  FFE3         	movff	btemp+11,plusw1
  4010   0030A0                     l4462:
  4011                           
  4012                           ;stkvar	_val @ sp[(-5)+-5]
  4013   0030A0  0EF6               	movlw	-10
  4014   0030A2  50E3               	movf	plusw1,w,c
  4015   0030A4  E10D               	bnz	u4701
  4016   0030A6  0EF7               	movlw	-9
  4017   0030A8  50E3               	movf	plusw1,w,c
  4018   0030AA  E10A               	bnz	u4701
  4019   0030AC  0EF8               	movlw	-8
  4020   0030AE  50E3               	movf	plusw1,w,c
  4021   0030B0  E107               	bnz	u4701
  4022   0030B2  0EF9               	movlw	-7
  4023   0030B4  50E3               	movf	plusw1,w,c
  4024   0030B6  A4D8               	btfss	status,2,c
  4025   0030B8  EF60  F018         	goto	u4701
  4026   0030BC  EF62  F018         	goto	u4700
  4027   0030C0                     u4701:
  4028   0030C0  EF6C  F018         	goto	l4468
  4029   0030C4                     u4700:
  4030   0030C4  0E00               	movlw	0
  4031   0030C6  6E01               	movwf	btemp^0,c
  4032   0030C8  0E00               	movlw	0
  4033   0030CA  6E02               	movwf	(btemp+1)^0,c
  4034   0030CC  0E00               	movlw	0
  4035   0030CE  6E03               	movwf	(btemp+2)^0,c
  4036   0030D0  0E00               	movlw	0
  4037   0030D2  6E04               	movwf	(btemp+3)^0,c
  4038   0030D4  EF2B  F019         	goto	l1061
  4039   0030D8                     l4468:
  4040   0030D8  0E96               	movlw	150
  4041   0030DA  6E0C               	movwf	(btemp+11)^0,c
  4042                           
  4043                           ;stkvar	_exp @ sp[(-5)+4]
  4044   0030DC  0EFF               	movlw	-1
  4045   0030DE  C00C  FFE3         	movff	btemp+11,plusw1
  4046   0030E2  EF7E  F018         	goto	l4472
  4047   0030E6                     l4470:
  4048                           
  4049                           ;stkvar	_exp @ sp[(-5)+4]
  4050   0030E6  0EFF               	movlw	-1
  4051   0030E8  2AE3               	incf	plusw1,f,c
  4052                           
  4053                           ;stkvar	_arg @ sp[(-5)+0]
  4054   0030EA  90D8               	bcf	status,0,c
  4055   0030EC  0EFE               	movlw	-2
  4056   0030EE  32E3               	rrcf	plusw1,f,c
  4057   0030F0  0EFD               	movlw	-3
  4058   0030F2  32E3               	rrcf	plusw1,f,c
  4059   0030F4  0EFC               	movlw	-4
  4060   0030F6  32E3               	rrcf	plusw1,f,c
  4061   0030F8  0EFB               	movlw	-5
  4062   0030FA  32E3               	rrcf	plusw1,f,c
  4063   0030FC                     l4472:
  4064                           
  4065                           ;stkvar	_arg @ sp[(-5)+0]
  4066   0030FC  50E1               	movf	fsr1l,w,c
  4067   0030FE  0FFB               	addlw	-5
  4068   003100  6ED9               	movwf	fsr2l,c
  4069   003102  50E2               	movf	fsr1h,w,c
  4070   003104  6EDA               	movwf	fsr2h,c
  4071   003106  0EFF               	movlw	255
  4072   003108  22DA               	addwfc	fsr2h,f,c
  4073   00310A  52DE               	movf	postinc2,f,c
  4074   00310C  52DE               	movf	postinc2,f,c
  4075   00310E  52DE               	movf	postinc2,f,c
  4076   003110  0EFE               	movlw	254
  4077   003112  14DD               	andwf	postdec2,w,c
  4078   003114  A4D8               	btfss	status,2,c
  4079   003116  EF8F  F018         	goto	u4711
  4080   00311A  EF91  F018         	goto	u4710
  4081   00311E                     u4711:
  4082   00311E  EF73  F018         	goto	l4470
  4083   003122                     u4710:
  4084   003122  EFAA  F018         	goto	l4480
  4085   003126                     l4474:
  4086                           
  4087                           ;stkvar	_exp @ sp[(-5)+4]
  4088   003126  0EFF               	movlw	-1
  4089   003128  2AE3               	incf	plusw1,f,c
  4090   00312A                     
  4091                           ;stkvar	_arg @ sp[(-5)+0]
  4092   00312A  50E1               	movf	fsr1l,w,c
  4093   00312C  0FFB               	addlw	-5
  4094   00312E  6ED9               	movwf	fsr2l,c
  4095   003130  50E2               	movf	fsr1h,w,c
  4096   003132  6EDA               	movwf	fsr2h,c
  4097   003134  0EFF               	movlw	255
  4098   003136  22DA               	addwfc	fsr2h,f,c
  4099   003138  2ADE               	incf	postinc2,f,c
  4100   00313A  0E00               	movlw	0
  4101   00313C  22DE               	addwfc	postinc2,f,c
  4102   00313E  22DE               	addwfc	postinc2,f,c
  4103   003140  22DE               	addwfc	postinc2,f,c
  4104   003142                     
  4105                           ;stkvar	_arg @ sp[(-5)+0]
  4106   003142  90D8               	bcf	status,0,c
  4107   003144  0EFE               	movlw	-2
  4108   003146  32E3               	rrcf	plusw1,f,c
  4109   003148  0EFD               	movlw	-3
  4110   00314A  32E3               	rrcf	plusw1,f,c
  4111   00314C  0EFC               	movlw	-4
  4112   00314E  32E3               	rrcf	plusw1,f,c
  4113   003150  0EFB               	movlw	-5
  4114   003152  32E3               	rrcf	plusw1,f,c
  4115   003154                     l4480:
  4116                           
  4117                           ;stkvar	_arg @ sp[(-5)+0]
  4118   003154  50E1               	movf	fsr1l,w,c
  4119   003156  0FFB               	addlw	-5
  4120   003158  6ED9               	movwf	fsr2l,c
  4121   00315A  50E2               	movf	fsr1h,w,c
  4122   00315C  6EDA               	movwf	fsr2h,c
  4123   00315E  0EFF               	movlw	255
  4124   003160  22DA               	addwfc	fsr2h,f,c
  4125   003162  52DE               	movf	postinc2,f,c
  4126   003164  52DE               	movf	postinc2,f,c
  4127   003166  52DE               	movf	postinc2,f,c
  4128   003168  0EFF               	movlw	255
  4129   00316A  14DD               	andwf	postdec2,w,c
  4130   00316C  A4D8               	btfss	status,2,c
  4131   00316E  EFBB  F018         	goto	u4721
  4132   003172  EFBD  F018         	goto	u4720
  4133   003176                     u4721:
  4134   003176  EF93  F018         	goto	l4474
  4135   00317A                     u4720:
  4136   00317A  EFCA  F018         	goto	l4484
  4137   00317E                     l4482:
  4138                           
  4139                           ;stkvar	_exp @ sp[(-5)+4]
  4140   00317E  0EFF               	movlw	-1
  4141   003180  06E3               	decf	plusw1,f,c
  4142                           
  4143                           ;stkvar	_arg @ sp[(-5)+0]
  4144   003182  90D8               	bcf	status,0,c
  4145   003184  0EFB               	movlw	-5
  4146   003186  36E3               	rlcf	plusw1,f,c
  4147   003188  0EFC               	movlw	-4
  4148   00318A  36E3               	rlcf	plusw1,f,c
  4149   00318C  0EFD               	movlw	-3
  4150   00318E  36E3               	rlcf	plusw1,f,c
  4151   003190  0EFE               	movlw	-2
  4152   003192  36E3               	rlcf	plusw1,f,c
  4153   003194                     l4484:
  4154                           
  4155                           ;stkvar	_arg @ sp[(-5)+0]
  4156   003194  0EFD               	movlw	-3
  4157   003196  BEE3               	btfsc	plusw1,7,c
  4158   003198  EFD0  F018         	goto	u4731
  4159   00319C  EFD2  F018         	goto	u4730
  4160   0031A0                     u4731:
  4161   0031A0  EFDD  F018         	goto	l4488
  4162   0031A4                     u4730:
  4163   0031A4                     
  4164                           ;stkvar	_exp @ sp[(-5)+4]
  4165   0031A4  0EFF               	movlw	-1
  4166   0031A6  CFE3 F001          	movff	plusw1,btemp
  4167   0031AA  0E02               	movlw	2
  4168   0031AC  6001               	cpfslt	btemp^0,c
  4169   0031AE  EFDB  F018         	goto	u4741
  4170   0031B2  EFDD  F018         	goto	u4740
  4171   0031B6                     u4741:
  4172   0031B6  EFBF  F018         	goto	l4482
  4173   0031BA                     u4740:
  4174   0031BA                     l4488:
  4175                           
  4176                           ;stkvar	_exp @ sp[(-5)+4]
  4177   0031BA  0EFF               	movlw	-1
  4178   0031BC  B0E3               	btfsc	plusw1,0,c
  4179   0031BE  EFE3  F018         	goto	u4751
  4180   0031C2  EFE5  F018         	goto	u4750
  4181   0031C6                     u4751:
  4182   0031C6  EFE7  F018         	goto	l4492
  4183   0031CA                     u4750:
  4184   0031CA                     
  4185                           ;stkvar	_arg @ sp[(-5)+0]
  4186   0031CA  0EFD               	movlw	-3
  4187   0031CC  9EE3               	bcf	plusw1,7,c
  4188   0031CE                     l4492:
  4189                           
  4190                           ;stkvar	_exp @ sp[(-5)+4]
  4191   0031CE  50E1               	movf	fsr1l,w,c
  4192   0031D0  0FFF               	addlw	-1
  4193   0031D2  6ED9               	movwf	fsr2l,c
  4194   0031D4  50E2               	movf	fsr1h,w,c
  4195   0031D6  6EDA               	movwf	fsr2h,c
  4196   0031D8  0EFF               	movlw	255
  4197   0031DA  22DA               	addwfc	fsr2h,f,c
  4198   0031DC  90D8               	bcf	status,0,c
  4199   0031DE  32DF               	rrcf	indf2,f,c
  4200   0031E0                     
  4201                           ;stkvar	_exp @ sp[(-5)+4]
  4202   0031E0  0EFF               	movlw	-1
  4203   0031E2  CFE3 F00C          	movff	plusw1,btemp+11
  4204   0031E6  C00C  F005         	movff	btemp+11,btemp+4
  4205   0031EA  6A06               	clrf	(btemp+5)^0,c
  4206   0031EC  6A07               	clrf	(btemp+6)^0,c
  4207   0031EE  6A08               	clrf	(btemp+7)^0,c
  4208   0031F0  C005  F008         	movff	btemp+4,btemp+7
  4209   0031F4  6A07               	clrf	(btemp+6)^0,c
  4210   0031F6  6A06               	clrf	(btemp+5)^0,c
  4211   0031F8  6A05               	clrf	(btemp+4)^0,c
  4212                           
  4213                           ;stkvar	_arg @ sp[(-5)+0]
  4214   0031FA  50E1               	movf	fsr1l,w,c
  4215   0031FC  0FFB               	addlw	-5
  4216   0031FE  6ED9               	movwf	fsr2l,c
  4217   003200  50E2               	movf	fsr1h,w,c
  4218   003202  6EDA               	movwf	fsr2h,c
  4219   003204  0EFF               	movlw	255
  4220   003206  22DA               	addwfc	fsr2h,f,c
  4221   003208  5005               	movf	(btemp+4)^0,w,c
  4222   00320A  12DE               	iorwf	postinc2,f,c
  4223   00320C  5006               	movf	(btemp+5)^0,w,c
  4224   00320E  12DE               	iorwf	postinc2,f,c
  4225   003210  5007               	movf	(btemp+6)^0,w,c
  4226   003212  12DE               	iorwf	postinc2,f,c
  4227   003214  5008               	movf	(btemp+7)^0,w,c
  4228   003216  12DE               	iorwf	postinc2,f,c
  4229   003218                     
  4230                           ;stkvar	_sign @ sp[(-5)+-1]
  4231   003218  0EFA               	movlw	-6
  4232   00321A  50E3               	movf	plusw1,w,c
  4233   00321C  B4D8               	btfsc	status,2,c
  4234   00321E  EF13  F019         	goto	u4761
  4235   003222  EF15  F019         	goto	u4760
  4236   003226                     u4761:
  4237   003226  EF1F  F019         	goto	l4502
  4238   00322A                     u4760:
  4239   00322A                     
  4240                           ;stkvar	_val @ sp[(-5)+-5]
  4241   00322A  0EF9               	movlw	-7
  4242   00322C  BEE3               	btfsc	plusw1,7,c
  4243   00322E  EF1D  F019         	goto	u4770
  4244   003232  EF1B  F019         	goto	u4771
  4245   003236                     u4771:
  4246   003236  EF1F  F019         	goto	l4502
  4247   00323A                     u4770:
  4248   00323A                     
  4249                           ;stkvar	_arg @ sp[(-5)+0]
  4250   00323A  0EFE               	movlw	-2
  4251   00323C  8EE3               	bsf	plusw1,7,c
  4252   00323E                     l4502:
  4253                           
  4254                           ;stkvar	_arg @ sp[(-5)+0]
  4255   00323E  0EFB               	movlw	-5
  4256   003240  CFE3 F001          	movff	plusw1,btemp
  4257   003244  0EFC               	movlw	-4
  4258   003246  CFE3 F002          	movff	plusw1,btemp+1
  4259   00324A  0EFD               	movlw	-3
  4260   00324C  CFE3 F003          	movff	plusw1,btemp+2
  4261   003250  0EFE               	movlw	-2
  4262   003252  CFE3 F004          	movff	plusw1,btemp+3
  4263   003256                     l1061:
  4264                           
  4265                           ; ___xxtofl: autosize = 5, savesize = 0, parsavesize = 0, tempsize = 0 parsize = 5, args
      +                          ize = 5, vargsize = 0
  4266   003256  0EF6               	movlw	246
  4267   003258  26E1               	addwf	fsr1l,f,c
  4268   00325A  0EFF               	movlw	255
  4269   00325C  22E2               	addwfc	fsr1h,f,c
  4270   00325E  0012               	return		;funcret
  4271   003260                     __end_of___xxtofl:
  4272                           	callstack 0
  4273                           
  4274 ;; *************** function _LCD_Clear *****************
  4275 ;; Defined at:
  4276 ;;		line 97 in file "lcd.c"
  4277 ;; Parameters:    Size  Location     Type
  4278 ;;		None
  4279 ;; Auto vars:     Size  Location     Type
  4280 ;;		None
  4281 ;; Return value:  Size  Location     Type
  4282 ;;                  1  [STACK] void 
  4283 ;; Registers used:
  4284 ;;		wreg, fsr1l, fsr1h, btemp
  4285 ;; Tracked objects:
  4286 ;;		On entry : 0/F
  4287 ;;		On exit  : 0/0
  4288 ;;		Unchanged: 0/0
  4289 ;; Data sizes:     COMRAM   BANK0   BANK1   BANK2   BANK3   BANK4   BANK5   BANK6   BANK7   BANK8   BANK9  BANK10  BANK1
      +1  BANK12  BANK13  BANK14  BANK15
  4290 ;;      Params:         0       0       0       0       0       0       0       0       0       0       0       0       
      +0       0       0       0       0
  4291 ;;      Locals:         0       0       0       0       0       0       0       0       0       0       0       0       
      +0       0       0       0       0
  4292 ;;      Temps:          0       0       0       0       0       0       0       0       0       0       0       0       
      +0       0       0       0       0
  4293 ;;      Totals:         0       0       0       0       0       0       0       0       0       0       0       0       
      +0       0       0       0       0
  4294 ;;Total ram usage:        0 bytes
  4295 ;; Hardware stack levels used: 1
  4296 ;; Hardware stack levels required when called: 8
  4297 ;; This function calls:
  4298 ;;		_LCD_Send
  4299 ;; This function is called by:
  4300 ;;		_state2
  4301 ;;		_state3
  4302 ;;		_state4
  4303 ;;		_uart_state
  4304 ;;		_pot_state
  4305 ;; This function uses a reentrant model
  4306 ;;
  4307                           
  4308                           	psect	text22
  4309   0051A2                     __ptext22:
  4310                           	callstack 0
  4311   0051A2                     _LCD_Clear:
  4312                           	callstack 0
  4313   0051A2                     
  4314                           ;lcd.c: 98:     SSP2CON2bits.SEN = 1;
  4315   0051A2  806B               	bsf	107,0,c	;volatile
  4316   0051A4                     l118:
  4317   0051A4  B06B               	btfsc	107,0,c	;volatile
  4318   0051A6  EFD7  F028         	goto	u4531
  4319   0051AA  EFD9  F028         	goto	u4530
  4320   0051AE                     u4531:
  4321   0051AE  EFD2  F028         	goto	l118
  4322   0051B2                     u4530:
  4323   0051B2                     
  4324                           ;lcd.c: 100:     SSP2IF = 0;
  4325   0051B2  9EA4               	bcf	4004,7,c	;volatile
  4326   0051B4                     
  4327                           ;lcd.c: 102:     LCD_Send(0x7C);
  4328   0051B4  0E7C               	movlw	124
  4329   0051B6  6EE6               	movwf	postinc1,c
  4330   0051B8  ECAE  F029         	call	_LCD_Send	;wreg free
  4331                           
  4332                           ;lcd.c: 103:     LCD_Send(0x80);
  4333   0051BC  0E80               	movlw	128
  4334   0051BE  6EE6               	movwf	postinc1,c
  4335   0051C0  ECAE  F029         	call	_LCD_Send	;wreg free
  4336                           
  4337                           ;lcd.c: 104:     LCD_Send(0x01);
  4338   0051C4  0E01               	movlw	1
  4339   0051C6  6EE6               	movwf	postinc1,c
  4340   0051C8  ECAE  F029         	call	_LCD_Send	;wreg free
  4341   0051CC                     
  4342                           ;lcd.c: 106:     SSP2CON2bits.PEN = 1;
  4343   0051CC  846B               	bsf	107,2,c	;volatile
  4344   0051CE                     l121:
  4345   0051CE  B46B               	btfsc	107,2,c	;volatile
  4346   0051D0  EFEC  F028         	goto	u4541
  4347   0051D4  EFEE  F028         	goto	u4540
  4348   0051D8                     u4541:
  4349   0051D8  EFE7  F028         	goto	l121
  4350   0051DC                     u4540:
  4351   0051DC                     
  4352                           ;lcd.c: 108:     _delay((unsigned long)((500)*(32E6/4000000.0)));
  4353   0051DC  0E06               	movlw	6
  4354   0051DE  6E01               	movwf	btemp^0,c
  4355   0051E0  0E30               	movlw	48
  4356   0051E2                     u5267:
  4357   0051E2  2EE8               	decfsz	wreg,f,c
  4358   0051E4  D7FE               	bra	u5267
  4359   0051E6  2E01               	decfsz	btemp^0,f,c
  4360   0051E8  D7FC               	bra	u5267
  4361   0051EA  D000               	nop2	
  4362   0051EC                     
  4363                           ; _LCD_Clear: autosize = 0, savesize = 0, parsavesize = 0, tempsize = 0 parsize = 0, arg
      +                          size = 0, vargsize = 0
  4364   0051EC  0012               	return		;funcret
  4365   0051EE                     __end_of_LCD_Clear:
  4366                           	callstack 0
  4367                           
  4368 ;; *************** function _printf *****************
  4369 ;; Defined at:
  4370 ;;		line 5 in file "C:\Program Files\Microchip\xc8\v2.41\pic\sources\c99\common\printf.c"
  4371 ;; Parameters:    Size  Location     Type
  4372 ;;  fmt             2  [STACK] PTR const unsigned char 
  4373 ;;		 -> STR_23(16), STR_22(17), STR_20(12), STR_19(17), 
  4374 ;;		 -> STR_18(15), STR_16(18), STR_15(14), STR_12(15), 
  4375 ;;		 -> STR_11(14), STR_8(14), STR_5(14), STR_2(17), 
  4376 ;; Auto vars:     Size  Location     Type
  4377 ;;  ap              2  [STACK] PTR void [1]
  4378 ;;		 -> ?_printf(2), ?_sprintf(2), 
  4379 ;;  ret             2    0        int 
  4380 ;; Return value:  Size  Location     Type
  4381 ;;                  2  [STACK] int 
  4382 ;; Registers used:
  4383 ;;		wreg, fsr0l, fsr0h, fsr1l, fsr1h, fsr2l, fsr2h, status,2, status,0, btemp, btemp+1, btemp+2, btemp+3, btemp+4, btemp
      ++5, btemp+6, btemp+7, btemp+8, btemp+9, btemp+10, btemp+11, tblptrl, tblptrh, tblptru, prodl, prodh
  4384 ;; Tracked objects:
  4385 ;;		On entry : 0/F
  4386 ;;		On exit  : 0/0
  4387 ;;		Unchanged: 0/0
  4388 ;; Data sizes:     COMRAM   BANK0   BANK1   BANK2   BANK3   BANK4   BANK5   BANK6   BANK7   BANK8   BANK9  BANK10  BANK1
      +1  BANK12  BANK13  BANK14  BANK15
  4389 ;;      Params:         0       0       0       0       0       0       0       0       0       0       0       0       
      +0       0       0       0       0
  4390 ;;      Locals:         0       0       0       0       0       0       0       0       0       0       0       0       
      +0       0       0       0       0
  4391 ;;      Temps:          0       0       0       0       0       0       0       0       0       0       0       0       
      +0       0       0       0       0
  4392 ;;      Totals:         0       0       0       0       0       0       0       0       0       0       0       0       
      +0       0       0       0       0
  4393 ;;Total ram usage:        0 bytes
  4394 ;; Hardware stack levels used: 1
  4395 ;; Hardware stack levels required when called: 14
  4396 ;; This function calls:
  4397 ;;		_vfprintf
  4398 ;; This function is called by:
  4399 ;;		_init
  4400 ;;		_state1
  4401 ;;		_state2
  4402 ;;		_state3
  4403 ;;		_state4
  4404 ;;		_uart_state
  4405 ;;		_pot_state
  4406 ;; This function uses a reentrant model
  4407 ;;
  4408                           
  4409                           	psect	text23
  4410   0050FC                     __ptext23:
  4411                           	callstack 0
  4412   0050FC                     _printf:
  4413                           	callstack 0
  4414                           
  4415                           ; autosize = 2, savesize = 0, parsavesize = 0, tempsize = 0 parsize = 4, argsize = 2 var
      +                          gsize = 0, retsize = 0 argfudge = 0
  4416   0050FC  52E6               	movf	postinc1,f,c
  4417   0050FE  52E6               	movf	postinc1,f,c
  4418   005100                     
  4419                           ;stkvar	?_printf @ sp[(-2)+-3]
  4420   005100  0EFB               	movlw	251
  4421   005102  24E1               	addwf	fsr1l,w,c
  4422   005104  6E0B               	movwf	(btemp+10)^0,c
  4423   005106  0EFF               	movlw	255
  4424   005108  20E2               	addwfc	fsr1h,w,c
  4425   00510A  6E0C               	movwf	(btemp+11)^0,c
  4426                           
  4427                           ;stkvar	_ap @ sp[(-2)+0]
  4428   00510C  0EFF               	movlw	-1
  4429   00510E  C00C  FFE3         	movff	btemp+11,plusw1
  4430   005112  0EFE               	movlw	-2
  4431   005114  C00B  FFE3         	movff	btemp+10,plusw1
  4432   005118                     
  4433                           ;stkvar	_ap @ sp[(-2)+0]
  4434   005118  0EFE               	movlw	254
  4435   00511A  24E1               	addwf	fsr1l,w,c
  4436   00511C  6E01               	movwf	btemp^0,c
  4437   00511E  0EFF               	movlw	255
  4438   005120  20E2               	addwfc	fsr1h,w,c
  4439   005122  6E02               	movwf	(btemp+1)^0,c
  4440   005124  C001  FFE6         	movff	btemp,postinc1
  4441   005128  C002  FFE6         	movff	btemp+1,postinc1
  4442                           
  4443                           ;stkvar	_fmt @ sp[(-4)+-3]
  4444   00512C  0EF9               	movlw	-7
  4445   00512E  CFE3 FFE6          	movff	plusw1,postinc1
  4446   005132  CFE3 FFE6          	movff	plusw1,postinc1
  4447   005136  0E00               	movlw	0
  4448   005138  6EE6               	movwf	postinc1,c
  4449   00513A  0E00               	movlw	0
  4450   00513C  6EE6               	movwf	postinc1,c
  4451   00513E  EC2A  F027         	call	_vfprintf	;wreg free
  4452   005142                     
  4453                           ; _printf: autosize = 2, savesize = 0, parsavesize = 0, tempsize = 0 parsize = 4, argsiz
      +                          e = 2, vargsize = 0
  4454   005142  52E5               	movf	postdec1,f,c
  4455   005144  52E5               	movf	postdec1,f,c
  4456   005146  52E5               	movf	postdec1,f,c
  4457   005148  50E7               	movf	indf1,w,c
  4458   00514A  5EE1               	subwf	fsr1l,f,c
  4459   00514C  0E00               	movlw	0
  4460   00514E  5AE2               	subwfb	fsr1h,f,c
  4461   005150  0012               	return		;funcret
  4462   005152                     __end_of_printf:
  4463                           	callstack 0
  4464                           
  4465 ;; *************** function _vfprintf *****************
  4466 ;; Defined at:
  4467 ;;		line 1546 in file "C:\Program Files\Microchip\xc8\v2.41\pic\sources\c99\common\doprnt.c"
  4468 ;; Parameters:    Size  Location     Type
  4469 ;;  fp              2  [STACK] PTR struct _IO_FILE
  4470 ;;		 -> f(12), NULL(0), 
  4471 ;;  fmt             2  [STACK] PTR const unsigned char 
  4472 ;;		 -> STR_24(23), STR_23(16), STR_22(17), STR_20(12), 
  4473 ;;		 -> STR_19(17), STR_18(15), STR_16(18), STR_15(14), 
  4474 ;;		 -> STR_12(15), STR_11(14), STR_8(14), STR_5(14), 
  4475 ;;		 -> STR_2(17), 
  4476 ;;  ap              2  [STACK] PTR PTR void 
  4477 ;;		 -> ap(2), ap(2), 
  4478 ;; Auto vars:     Size  Location     Type
  4479 ;;  cfmt            2  [STACK] PTR unsigned char 
  4480 ;;		 -> STR_24(23), STR_23(16), STR_22(17), STR_20(12), 
  4481 ;;		 -> STR_19(17), STR_18(15), STR_16(18), STR_15(14), 
  4482 ;;		 -> STR_12(15), STR_11(14), STR_8(14), STR_5(14), 
  4483 ;;		 -> STR_2(17), 
  4484 ;; Return value:  Size  Location     Type
  4485 ;;                  2  [STACK] int 
  4486 ;; Registers used:
  4487 ;;		wreg, fsr0l, fsr0h, fsr1l, fsr1h, fsr2l, fsr2h, status,2, status,0, btemp, btemp+1, btemp+2, btemp+3, btemp+4, btemp
      ++5, btemp+6, btemp+7, btemp+8, btemp+9, btemp+10, btemp+11, tblptrl, tblptrh, tblptru, prodl, prodh
  4488 ;; Tracked objects:
  4489 ;;		On entry : 0/F
  4490 ;;		On exit  : 0/0
  4491 ;;		Unchanged: 0/0
  4492 ;; Data sizes:     COMRAM   BANK0   BANK1   BANK2   BANK3   BANK4   BANK5   BANK6   BANK7   BANK8   BANK9  BANK10  BANK1
      +1  BANK12  BANK13  BANK14  BANK15
  4493 ;;      Params:         0       0       0       0       0       0       0       0       0       0       0       0       
      +0       0       0       0       0
  4494 ;;      Locals:         0       0       0       0       0       0       0       0       0       0       0       0       
      +0       0       0       0       0
  4495 ;;      Temps:          0       0       0       0       0       0       0       0       0       0       0       0       
      +0       0       0       0       0
  4496 ;;      Totals:         0       0       0       0       0       0       0       0       0       0       0       0       
      +0       0       0       0       0
  4497 ;;Total ram usage:        0 bytes
  4498 ;; Hardware stack levels used: 1
  4499 ;; Hardware stack levels required when called: 13
  4500 ;; This function calls:
  4501 ;;		_vfpfcnvrt
  4502 ;; This function is called by:
  4503 ;;		_sprintf
  4504 ;;		_printf
  4505 ;; This function uses a reentrant model
  4506 ;;
  4507                           
  4508                           	psect	text24
  4509   004E54                     __ptext24:
  4510                           	callstack 0
  4511   004E54                     _vfprintf:
  4512                           	callstack 0
  4513                           
  4514                           ; autosize = 2, savesize = 0, parsavesize = 0, tempsize = 0 parsize = 6, argsize = 6 var
      +                          gsize = 0, retsize = 0 argfudge = 0
  4515   004E54  52E6               	movf	postinc1,f,c
  4516   004E56  52E6               	movf	postinc1,f,c
  4517   004E58                     
  4518                           ;C:\Program Files\Microchip\xc8\v2.41\pic\sources\c99\common\doprnt.c: 1546: int vfprint
      +                          f(FILE *fp, const char *fmt, va_list ap);C:\Program Files\Microchip\xc8\v2.41\pic\source
      +                          s\c99\common\doprnt.c: 1547: {;C:\Program Files\Microchip\xc8\v2.41\pic\sources\c99\comm
      +                          on\doprnt.c: 1549:     char *cfmt;;C:\Program Files\Microchip\xc8\v2.41\pic\sources\c99\
      +                          common\doprnt.c: 1551:     cfmt = (char *)fmt;
  4519                           ;stkvar	_fmt @ sp[(-2)+-4]
  4520   004E58  0EFA               	movlw	-6
  4521   004E5A  CFE3 F00B          	movff	plusw1,btemp+10
  4522   004E5E  0EFB               	movlw	-5
  4523   004E60  CFE3 F00C          	movff	plusw1,btemp+11
  4524                           
  4525                           ;stkvar	_cfmt @ sp[(-2)+0]
  4526   004E64  0EFF               	movlw	-1
  4527   004E66  C00C  FFE3         	movff	btemp+11,plusw1
  4528   004E6A  0EFE               	movlw	-2
  4529   004E6C  C00B  FFE3         	movff	btemp+10,plusw1
  4530                           
  4531                           ;C:\Program Files\Microchip\xc8\v2.41\pic\sources\c99\common\doprnt.c: 1555:     while (
      +                          *cfmt) {
  4532   004E70  EF50  F027         	goto	l4372
  4533   004E74                     l4370:
  4534                           
  4535                           ;C:\Program Files\Microchip\xc8\v2.41\pic\sources\c99\common\doprnt.c: 1559:    vfpfcnvr
      +                          t(fp, &cfmt, ap);
  4536                           ;stkvar	_ap @ sp[(-2)+-6]
  4537   004E74  0EF8               	movlw	-8
  4538   004E76  CFE3 FFE6          	movff	plusw1,postinc1
  4539   004E7A  CFE3 FFE6          	movff	plusw1,postinc1
  4540                           
  4541                           ;stkvar	_cfmt @ sp[(-4)+0]
  4542   004E7E  0EFC               	movlw	252
  4543   004E80  24E1               	addwf	fsr1l,w,c
  4544   004E82  6E01               	movwf	btemp^0,c
  4545   004E84  0EFF               	movlw	255
  4546   004E86  20E2               	addwfc	fsr1h,w,c
  4547   004E88  6E02               	movwf	(btemp+1)^0,c
  4548   004E8A  C001  FFE6         	movff	btemp,postinc1
  4549   004E8E  C002  FFE6         	movff	btemp+1,postinc1
  4550                           
  4551                           ;stkvar	_fp @ sp[(-6)+-2]
  4552   004E92  0EF8               	movlw	-8
  4553   004E94  CFE3 FFE6          	movff	plusw1,postinc1
  4554   004E98  CFE3 FFE6          	movff	plusw1,postinc1
  4555   004E9C  EC27  F014         	call	_vfpfcnvrt	;wreg free
  4556   004EA0                     l4372:
  4557                           
  4558                           ;C:\Program Files\Microchip\xc8\v2.41\pic\sources\c99\common\doprnt.c: 1555:     while (
      +                          *cfmt) {
  4559                           ;stkvar	_cfmt @ sp[(-2)+0]
  4560   004EA0  50E1               	movf	fsr1l,w,c
  4561   004EA2  0FFE               	addlw	-2
  4562   004EA4  6ED9               	movwf	fsr2l,c
  4563   004EA6  50E2               	movf	fsr1h,w,c
  4564   004EA8  6EDA               	movwf	fsr2h,c
  4565   004EAA  0EFF               	movlw	255
  4566   004EAC  22DA               	addwfc	fsr2h,f,c
  4567   004EAE  CFDE FFF6          	movff	postinc2,tblptrl
  4568   004EB2  CFDD FFF7          	movff	postdec2,tblptrh
  4569   004EB6                     	if	1	;Program memory is < 0x10000, tblptru is always zero
  4570   004EB6  6AF8               	clrf	tblptru,c
  4571   004EB8                     	endif
  4572   004EB8                     	if	0	;tblptru may be non-zero
  4573   004EB8                     	endif
  4574   004EB8  0008               	tblrd		*
  4575   004EBA  50F5               	movf	tablat,w,c
  4576   004EBC  0900               	iorlw	0
  4577   004EBE  A4D8               	btfss	status,2,c
  4578   004EC0  EF64  F027         	goto	u4461
  4579   004EC4  EF66  F027         	goto	u4460
  4580   004EC8                     u4461:
  4581   004EC8  EF3A  F027         	goto	l4370
  4582   004ECC                     u4460:
  4583   004ECC                     
  4584                           ;C:\Program Files\Microchip\xc8\v2.41\pic\sources\c99\common\doprnt.c: 1564:  return 0;
  4585   004ECC  0E00               	movlw	0
  4586   004ECE  6E01               	movwf	btemp^0,c
  4587   004ED0  0E00               	movlw	0
  4588   004ED2  6E02               	movwf	(btemp+1)^0,c
  4589   004ED4                     
  4590                           ; _vfprintf: autosize = 2, savesize = 0, parsavesize = 0, tempsize = 0 parsize = 6, args
      +                          ize = 6, vargsize = 0
  4591   004ED4  0EF8               	movlw	248
  4592   004ED6  26E1               	addwf	fsr1l,f,c
  4593   004ED8  0EFF               	movlw	255
  4594   004EDA  22E2               	addwfc	fsr1h,f,c
  4595   004EDC  0012               	return		;funcret
  4596   004EDE                     __end_of_vfprintf:
  4597                           	callstack 0
  4598                           
  4599 ;; *************** function _vfpfcnvrt *****************
  4600 ;; Defined at:
  4601 ;;		line 1048 in file "C:\Program Files\Microchip\xc8\v2.41\pic\sources\c99\common\doprnt.c"
  4602 ;; Parameters:    Size  Location     Type
  4603 ;;  fp              2  [STACK] PTR struct _IO_FILE
  4604 ;;		 -> f(12), NULL(0), 
  4605 ;;  fmt             2  [STACK] PTR PTR unsigned char 
  4606 ;;		 -> cfmt(2), 
  4607 ;;  ap              2  [STACK] PTR PTR void 
  4608 ;;		 -> ap(2), ap(2), 
  4609 ;; Auto vars:     Size  Location     Type
  4610 ;;  convarg         4  [STACK] struct .
  4611 ;;  cp              2  [STACK] PTR unsigned char 
  4612 ;;		 -> STR_24(23), STR_23(16), STR_22(17), STR_20(12), 
  4613 ;;		 -> STR_19(17), STR_18(15), STR_16(18), STR_15(14), 
  4614 ;;		 -> STR_12(15), STR_11(14), STR_8(14), STR_5(14), 
  4615 ;;		 -> STR_2(17), 
  4616 ;;  i               2    0        int 
  4617 ;;  done            2    0        int 
  4618 ;;  c               1  [STACK] unsigned char 
  4619 ;; Return value:  Size  Location     Type
  4620 ;;                  1  [STACK] void 
  4621 ;; Registers used:
  4622 ;;		wreg, fsr0l, fsr0h, fsr1l, fsr1h, fsr2l, fsr2h, status,2, status,0, btemp, btemp+1, btemp+2, btemp+3, btemp+4, btemp
      ++5, btemp+6, btemp+7, btemp+8, btemp+9, btemp+10, btemp+11, tblptrl, tblptrh, tblptru, prodl, prodh
  4623 ;; Tracked objects:
  4624 ;;		On entry : 0/F
  4625 ;;		On exit  : 0/0
  4626 ;;		Unchanged: 0/0
  4627 ;; Data sizes:     COMRAM   BANK0   BANK1   BANK2   BANK3   BANK4   BANK5   BANK6   BANK7   BANK8   BANK9  BANK10  BANK1
      +1  BANK12  BANK13  BANK14  BANK15
  4628 ;;      Params:         0       0       0       0       0       0       0       0       0       0       0       0       
      +0       0       0       0       0
  4629 ;;      Locals:         0       0       0       0       0       0       0       0       0       0       0       0       
      +0       0       0       0       0
  4630 ;;      Temps:          0       0       0       0       0       0       0       0       0       0       0       0       
      +0       0       0       0       0
  4631 ;;      Totals:         0       0       0       0       0       0       0       0       0       0       0       0       
      +0       0       0       0       0
  4632 ;;Total ram usage:        0 bytes
  4633 ;; Hardware stack levels used: 1
  4634 ;; Hardware stack levels required when called: 12
  4635 ;; This function calls:
  4636 ;;		_efgtoa
  4637 ;;		_fputc
  4638 ;;		_read_prec_or_width
  4639 ;;		_stoa
  4640 ;;		_strncmp
  4641 ;; This function is called by:
  4642 ;;		_vfprintf
  4643 ;; This function uses a reentrant model
  4644 ;;
  4645                           
  4646                           	psect	text25
  4647   00284E                     __ptext25:
  4648                           	callstack 0
  4649   00284E                     _vfpfcnvrt:
  4650                           	callstack 0
  4651                           
  4652                           ; autosize = 9, savesize = 0, parsavesize = 0, tempsize = 0 parsize = 6, argsize = 6 var
      +                          gsize = 0, retsize = 0 argfudge = 0
  4653   00284E  0E09               	movlw	9
  4654   002850  26E1               	addwf	fsr1l,f,c
  4655   002852  0E00               	movlw	0
  4656   002854  22E2               	addwfc	fsr1h,f,c
  4657   002856                     
  4658                           ;C:\Program Files\Microchip\xc8\v2.41\pic\sources\c99\common\doprnt.c: 1048: vfpfcnvrt(F
      +                          ILE *fp, char *fmt[], va_list ap);C:\Program Files\Microchip\xc8\v2.41\pic\sources\c99\c
      +                          ommon\doprnt.c: 1049: {;C:\Program Files\Microchip\xc8\v2.41\pic\sources\c99\common\dopr
      +                          nt.c: 1050:     char c, *cp;;C:\Program Files\Microchip\xc8\v2.41\pic\sources\c99\common
      +                          \doprnt.c: 1051:     int done, i;;C:\Program Files\Microchip\xc8\v2.41\pic\sources\c99\c
      +                          ommon\doprnt.c: 1059:  } convarg;;C:\Program Files\Microchip\xc8\v2.41\pic\sources\c99\c
      +                          ommon\doprnt.c: 1062:     if ((*fmt)[0] == '%') {
  4659                           ;stkvar	_fmt @ sp[(-9)+-4]
  4660   002856  0EF3               	movlw	-13
  4661   002858  CFE3 FFD9          	movff	plusw1,fsr2l
  4662   00285C  0EF4               	movlw	-12
  4663   00285E  CFE3 FFDA          	movff	plusw1,fsr2h
  4664   002862  CFDE FFF6          	movff	postinc2,tblptrl
  4665   002866  CFDD FFF7          	movff	postdec2,tblptrh
  4666   00286A                     	if	1	;Program memory is < 0x10000, tblptru is always zero
  4667   00286A  6AF8               	clrf	tblptru,c
  4668   00286C                     	endif
  4669   00286C                     	if	0	;tblptru may be non-zero
  4670   00286C                     	endif
  4671   00286C  0008               	tblrd		*
  4672   00286E  50F5               	movf	tablat,w,c
  4673   002870  0A25               	xorlw	37
  4674   002872  A4D8               	btfss	status,2,c
  4675   002874  EF3E  F014         	goto	u4381
  4676   002878  EF40  F014         	goto	u4380
  4677   00287C                     u4381:
  4678   00287C  EF44  F016         	goto	l4348
  4679   002880                     u4380:
  4680   002880                     
  4681                           ;C:\Program Files\Microchip\xc8\v2.41\pic\sources\c99\common\doprnt.c: 1063:         ++*
      +                          fmt;
  4682                           ;stkvar	_fmt @ sp[(-9)+-4]
  4683   002880  0EF3               	movlw	-13
  4684   002882  CFE3 FFD9          	movff	plusw1,fsr2l
  4685   002886  0EF4               	movlw	-12
  4686   002888  CFE3 FFDA          	movff	plusw1,fsr2h
  4687   00288C  2ADE               	incf	postinc2,f,c
  4688   00288E  0E00               	movlw	0
  4689   002890  22DD               	addwfc	postdec2,f,c
  4690   002892                     
  4691                           ;C:\Program Files\Microchip\xc8\v2.41\pic\sources\c99\common\doprnt.c: 1065:         fla
      +                          gs = width = 0;
  4692   002892  6A35               	clrf	_width^0,c
  4693   002894  6A36               	clrf	(_width+1)^0,c
  4694   002896                     
  4695                           ;C:\Program Files\Microchip\xc8\v2.41\pic\sources\c99\common\doprnt.c: 1066:         pre
      +                          c = -1;
  4696   002896  6837               	setf	_prec^0,c
  4697   002898  6838               	setf	(_prec+1)^0,c
  4698   00289A                     
  4699                           ;C:\Program Files\Microchip\xc8\v2.41\pic\sources\c99\common\doprnt.c: 1126:         if 
      +                          ((*fmt)[0] == '.') {
  4700                           ;stkvar	_fmt @ sp[(-9)+-4]
  4701   00289A  0EF3               	movlw	-13
  4702   00289C  CFE3 FFD9          	movff	plusw1,fsr2l
  4703   0028A0  0EF4               	movlw	-12
  4704   0028A2  CFE3 FFDA          	movff	plusw1,fsr2h
  4705   0028A6  CFDE FFF6          	movff	postinc2,tblptrl
  4706   0028AA  CFDD FFF7          	movff	postdec2,tblptrh
  4707   0028AE                     	if	1	;Program memory is < 0x10000, tblptru is always zero
  4708   0028AE  6AF8               	clrf	tblptru,c
  4709   0028B0                     	endif
  4710   0028B0                     	if	0	;tblptru may be non-zero
  4711   0028B0                     	endif
  4712   0028B0  0008               	tblrd		*
  4713   0028B2  50F5               	movf	tablat,w,c
  4714   0028B4  0A2E               	xorlw	46
  4715   0028B6  A4D8               	btfss	status,2,c
  4716   0028B8  EF60  F014         	goto	u4391
  4717   0028BC  EF62  F014         	goto	u4390
  4718   0028C0                     u4391:
  4719   0028C0  EF7B  F014         	goto	l4294
  4720   0028C4                     u4390:
  4721   0028C4                     
  4722                           ;C:\Program Files\Microchip\xc8\v2.41\pic\sources\c99\common\doprnt.c: 1127:            
      +                           ++*fmt;
  4723                           ;stkvar	_fmt @ sp[(-9)+-4]
  4724   0028C4  0EF3               	movlw	-13
  4725   0028C6  CFE3 FFD9          	movff	plusw1,fsr2l
  4726   0028CA  0EF4               	movlw	-12
  4727   0028CC  CFE3 FFDA          	movff	plusw1,fsr2h
  4728   0028D0  2ADE               	incf	postinc2,f,c
  4729   0028D2  0E00               	movlw	0
  4730   0028D4  22DD               	addwfc	postdec2,f,c
  4731   0028D6                     
  4732                           ;C:\Program Files\Microchip\xc8\v2.41\pic\sources\c99\common\doprnt.c: 1128:    prec = r
      +                          ead_prec_or_width(fmt, ap);
  4733                           ;stkvar	_ap @ sp[(-9)+-6]
  4734   0028D6  0EF1               	movlw	-15
  4735   0028D8  CFE3 FFE6          	movff	plusw1,postinc1
  4736   0028DC  CFE3 FFE6          	movff	plusw1,postinc1
  4737                           
  4738                           ;stkvar	_fmt @ sp[(-11)+-4]
  4739   0028E0  0EF1               	movlw	-15
  4740   0028E2  CFE3 FFE6          	movff	plusw1,postinc1
  4741   0028E6  CFE3 FFE6          	movff	plusw1,postinc1
  4742   0028EA  EC60  F01F         	call	_read_prec_or_width	;wreg free
  4743   0028EE  C001  F037         	movff	btemp,_prec
  4744   0028F2  C002  F038         	movff	btemp+1,_prec+1
  4745   0028F6                     l4294:
  4746                           
  4747                           ;C:\Program Files\Microchip\xc8\v2.41\pic\sources\c99\common\doprnt.c: 1409:         if 
      +                          (*fmt[0] == 's' || !strncmp(*fmt, "lls", ((sizeof("lls")/sizeof("lls"[0]))-1))) {
  4748                           ;stkvar	_fmt @ sp[(-9)+-4]
  4749   0028F6  0EF3               	movlw	-13
  4750   0028F8  CFE3 FFD9          	movff	plusw1,fsr2l
  4751   0028FC  0EF4               	movlw	-12
  4752   0028FE  CFE3 FFDA          	movff	plusw1,fsr2h
  4753   002902  CFDE FFF6          	movff	postinc2,tblptrl
  4754   002906  CFDD FFF7          	movff	postdec2,tblptrh
  4755   00290A                     	if	1	;Program memory is < 0x10000, tblptru is always zero
  4756   00290A  6AF8               	clrf	tblptru,c
  4757   00290C                     	endif
  4758   00290C                     	if	0	;tblptru may be non-zero
  4759   00290C                     	endif
  4760   00290C  0008               	tblrd		*
  4761   00290E  50F5               	movf	tablat,w,c
  4762   002910  0A73               	xorlw	115
  4763   002912  B4D8               	btfsc	status,2,c
  4764   002914  EF8E  F014         	goto	u4401
  4765   002918  EF90  F014         	goto	u4400
  4766   00291C                     u4401:
  4767   00291C  EFB1  F014         	goto	l4298
  4768   002920                     u4400:
  4769   002920  0E03               	movlw	3
  4770   002922  6EE6               	movwf	postinc1,c
  4771   002924  0E00               	movlw	0
  4772   002926  6EE6               	movwf	postinc1,c
  4773   002928  0EFB               	movlw	low STR_31
  4774   00292A  6EE6               	movwf	postinc1,c
  4775   00292C  0EFF               	movlw	high STR_31
  4776   00292E  6EE6               	movwf	postinc1,c
  4777                           
  4778                           ;stkvar	_fmt @ sp[(-13)+-4]
  4779   002930  0EEF               	movlw	-17
  4780   002932  CFE3 FFD9          	movff	plusw1,fsr2l
  4781   002936  0EF0               	movlw	-16
  4782   002938  CFE3 FFDA          	movff	plusw1,fsr2h
  4783   00293C  CFDE F00B          	movff	postinc2,btemp+10
  4784   002940  CFDD F00C          	movff	postdec2,btemp+11
  4785   002944  C00B  FFE6         	movff	btemp+10,postinc1
  4786   002948  C00C  FFE6         	movff	btemp+11,postinc1
  4787   00294C  EC3C  F01A         	call	_strncmp	;wreg free
  4788   002950  5001               	movf	btemp^0,w,c
  4789   002952  1002               	iorwf	(btemp+1)^0,w,c
  4790   002954  A4D8               	btfss	status,2,c
  4791   002956  EFAF  F014         	goto	u4411
  4792   00295A  EFB1  F014         	goto	u4410
  4793   00295E                     u4411:
  4794   00295E  EF0F  F015         	goto	l4310
  4795   002962                     u4410:
  4796   002962                     l4298:
  4797                           
  4798                           ;C:\Program Files\Microchip\xc8\v2.41\pic\sources\c99\common\doprnt.c: 1411:    *fmt += 
      +                          *fmt[0] == 's' ? 1 : ((sizeof("lls")/sizeof("lls"[0]))-1);
  4799                           ;stkvar	_fmt @ sp[(-9)+-4]
  4800   002962  0EF3               	movlw	-13
  4801   002964  CFE3 FFD9          	movff	plusw1,fsr2l
  4802   002968  0EF4               	movlw	-12
  4803   00296A  CFE3 FFDA          	movff	plusw1,fsr2h
  4804   00296E  CFDE FFF6          	movff	postinc2,tblptrl
  4805   002972  CFDD FFF7          	movff	postdec2,tblptrh
  4806   002976                     	if	1	;Program memory is < 0x10000, tblptru is always zero
  4807   002976  6AF8               	clrf	tblptru,c
  4808   002978                     	endif
  4809   002978                     	if	0	;tblptru may be non-zero
  4810   002978                     	endif
  4811   002978  0008               	tblrd		*
  4812   00297A  50F5               	movf	tablat,w,c
  4813   00297C  0A73               	xorlw	115
  4814   00297E  B4D8               	btfsc	status,2,c
  4815   002980  EFC4  F014         	goto	u4421
  4816   002984  EFC6  F014         	goto	u4420
  4817   002988                     u4421:
  4818   002988  EFD2  F014         	goto	l4302
  4819   00298C                     u4420:
  4820   00298C  0E03               	movlw	3
  4821   00298E  6E0B               	movwf	(btemp+10)^0,c
  4822   002990  0E00               	movlw	0
  4823   002992  6E0C               	movwf	(btemp+11)^0,c
  4824                           
  4825                           ;stkvar	_vfpfcnvrt$2573 @ sp[(-9)+0]
  4826   002994  0EF7               	movlw	-9
  4827   002996  C00B  FFE3         	movff	btemp+10,plusw1
  4828   00299A  0EF8               	movlw	-8
  4829   00299C  C00C  FFE3         	movff	btemp+11,plusw1
  4830   0029A0  EFDC  F014         	goto	l4304
  4831   0029A4                     l4302:
  4832   0029A4  0E01               	movlw	1
  4833   0029A6  6E0B               	movwf	(btemp+10)^0,c
  4834   0029A8  0E00               	movlw	0
  4835   0029AA  6E0C               	movwf	(btemp+11)^0,c
  4836                           
  4837                           ;stkvar	_vfpfcnvrt$2573 @ sp[(-9)+0]
  4838   0029AC  0EF7               	movlw	-9
  4839   0029AE  C00B  FFE3         	movff	btemp+10,plusw1
  4840   0029B2  0EF8               	movlw	-8
  4841   0029B4  C00C  FFE3         	movff	btemp+11,plusw1
  4842   0029B8                     l4304:
  4843                           
  4844                           ;stkvar	_vfpfcnvrt$2573 @ sp[(-9)+0]
  4845   0029B8  0EF7               	movlw	-9
  4846   0029BA  CFE3 F00B          	movff	plusw1,btemp+10
  4847   0029BE  0EF8               	movlw	-8
  4848   0029C0  CFE3 F00C          	movff	plusw1,btemp+11
  4849                           
  4850                           ;stkvar	_fmt @ sp[(-9)+-4]
  4851   0029C4  0EF3               	movlw	-13
  4852   0029C6  CFE3 FFD9          	movff	plusw1,fsr2l
  4853   0029CA  0EF4               	movlw	-12
  4854   0029CC  CFE3 FFDA          	movff	plusw1,fsr2h
  4855   0029D0  500B               	movf	(btemp+10)^0,w,c
  4856   0029D2  26DE               	addwf	postinc2,f,c
  4857   0029D4  500C               	movf	(btemp+11)^0,w,c
  4858   0029D6  22DD               	addwfc	postdec2,f,c
  4859   0029D8                     
  4860                           ;C:\Program Files\Microchip\xc8\v2.41\pic\sources\c99\common\doprnt.c: 1412:            
      +                           return (void) stoa(fp, (*(char * *)__va_arg(*(char * **)ap, (char *)0)));;	Return value
      +                           of _vfpfcnvrt is never used
  4861                           ;stkvar	_ap @ sp[(-9)+-6]
  4862   0029D8  0EF1               	movlw	-15
  4863   0029DA  CFE3 FFD9          	movff	plusw1,fsr2l
  4864   0029DE  0EF2               	movlw	-14
  4865   0029E0  CFE3 FFDA          	movff	plusw1,fsr2h
  4866   0029E4  0E02               	movlw	2
  4867   0029E6  5EDE               	subwf	postinc2,f,c
  4868   0029E8  0E00               	movlw	0
  4869   0029EA  5ADD               	subwfb	postdec2,f,c
  4870   0029EC  CFDE F00B          	movff	postinc2,btemp+10
  4871   0029F0  CFDD F00C          	movff	postdec2,btemp+11
  4872   0029F4  C00B  FFD9         	movff	btemp+10,fsr2l
  4873   0029F8  C00C  FFDA         	movff	btemp+11,fsr2h
  4874   0029FC  CFDE F00B          	movff	postinc2,btemp+10
  4875   002A00  CFDD F00C          	movff	postdec2,btemp+11
  4876   002A04  C00B  FFE6         	movff	btemp+10,postinc1
  4877   002A08  C00C  FFE6         	movff	btemp+11,postinc1
  4878                           
  4879                           ;stkvar	_fp @ sp[(-11)+-2]
  4880   002A0C  0EF3               	movlw	-13
  4881   002A0E  CFE3 FFE6          	movff	plusw1,postinc1
  4882   002A12  CFE3 FFE6          	movff	plusw1,postinc1
  4883   002A16  EC30  F019         	call	_stoa	;wreg free
  4884   002A1A  EF5D  F016         	goto	l1209
  4885   002A1E                     l4310:
  4886                           
  4887                           ;C:\Program Files\Microchip\xc8\v2.41\pic\sources\c99\common\doprnt.c: 1418:   cp = *fmt
      +                          ;
  4888                           ;stkvar	_fmt @ sp[(-9)+-4]
  4889   002A1E  0EF3               	movlw	-13
  4890   002A20  CFE3 FFD9          	movff	plusw1,fsr2l
  4891   002A24  0EF4               	movlw	-12
  4892   002A26  CFE3 FFDA          	movff	plusw1,fsr2h
  4893   002A2A  CFDE F00B          	movff	postinc2,btemp+10
  4894   002A2E  CFDD F00C          	movff	postdec2,btemp+11
  4895                           
  4896                           ;stkvar	_cp @ sp[(-9)+6]
  4897   002A32  0EFE               	movlw	-2
  4898   002A34  C00C  FFE3         	movff	btemp+11,plusw1
  4899   002A38  0EFD               	movlw	-3
  4900   002A3A  C00B  FFE3         	movff	btemp+10,plusw1
  4901   002A3E                     
  4902                           ;C:\Program Files\Microchip\xc8\v2.41\pic\sources\c99\common\doprnt.c: 1419:   c = *cp;
  4903                           ;stkvar	_cp @ sp[(-9)+6]
  4904   002A3E  50E1               	movf	fsr1l,w,c
  4905   002A40  0FFD               	addlw	-3
  4906   002A42  6ED9               	movwf	fsr2l,c
  4907   002A44  50E2               	movf	fsr1h,w,c
  4908   002A46  6EDA               	movwf	fsr2h,c
  4909   002A48  0EFF               	movlw	255
  4910   002A4A  22DA               	addwfc	fsr2h,f,c
  4911   002A4C  CFDE FFF6          	movff	postinc2,tblptrl
  4912   002A50  CFDD FFF7          	movff	postdec2,tblptrh
  4913   002A54                     	if	1	;Program memory is < 0x10000, tblptru is always zero
  4914   002A54  6AF8               	clrf	tblptru,c
  4915   002A56                     	endif
  4916   002A56                     	if	0	;tblptru may be non-zero
  4917   002A56                     	endif
  4918                           
  4919                           ;stkvar	_c @ sp[(-9)+8]
  4920   002A56  0008               	tblrd		*
  4921   002A58  0EFF               	movlw	-1
  4922   002A5A  CFF5 FFE3          	movff	tablat,plusw1
  4923                           
  4924                           ;C:\Program Files\Microchip\xc8\v2.41\pic\sources\c99\common\doprnt.c: 1420:   switch(c)
      +                           {
  4925   002A5E  EF4D  F015         	goto	l4322
  4926   002A62                     l4314:
  4927                           
  4928                           ;C:\Program Files\Microchip\xc8\v2.41\pic\sources\c99\common\doprnt.c: 1424:     cp++;
  4929                           ;stkvar	_cp @ sp[(-9)+6]
  4930   002A62  0EFD               	movlw	-3
  4931   002A64  50E3               	movf	plusw1,w,c
  4932   002A66  0F01               	addlw	1
  4933   002A68  6E01               	movwf	btemp^0,c
  4934   002A6A  0EFD               	movlw	-3
  4935   002A6C  C001  FFE3         	movff	btemp,plusw1
  4936   002A70  6A01               	clrf	btemp^0,c
  4937   002A72  0EFE               	movlw	-2
  4938   002A74  50E3               	movf	plusw1,w,c
  4939   002A76  2001               	addwfc	btemp^0,w,c
  4940   002A78  6E01               	movwf	btemp^0,c
  4941   002A7A  0EFE               	movlw	-2
  4942   002A7C  C001  FFE3         	movff	btemp,plusw1
  4943                           
  4944                           ;C:\Program Files\Microchip\xc8\v2.41\pic\sources\c99\common\doprnt.c: 1425:     break;
  4945   002A80  EF67  F015         	goto	l4324
  4946   002A84                     l4316:
  4947                           
  4948                           ;C:\Program Files\Microchip\xc8\v2.41\pic\sources\c99\common\doprnt.c: 1450:     c = 'l'
      +                          ;
  4949   002A84  0E6C               	movlw	108
  4950   002A86  6E0C               	movwf	(btemp+11)^0,c
  4951                           
  4952                           ;stkvar	_c @ sp[(-9)+8]
  4953   002A88  0EFF               	movlw	-1
  4954   002A8A  C00C  FFE3         	movff	btemp+11,plusw1
  4955                           
  4956                           ;C:\Program Files\Microchip\xc8\v2.41\pic\sources\c99\common\doprnt.c: 1451:     break;
  4957   002A8E  EF67  F015         	goto	l4324
  4958   002A92                     l4318:
  4959                           
  4960                           ;C:\Program Files\Microchip\xc8\v2.41\pic\sources\c99\common\doprnt.c: 1453:     c = 0;
  4961                           ;stkvar	_c @ sp[(-9)+8]
  4962   002A92  0EFF               	movlw	-1
  4963   002A94  6AE3               	clrf	plusw1,c
  4964                           
  4965                           ;C:\Program Files\Microchip\xc8\v2.41\pic\sources\c99\common\doprnt.c: 1454:     break;
  4966   002A96  EF67  F015         	goto	l4324
  4967   002A9A                     l4322:
  4968                           
  4969                           ;stkvar	_c @ sp[(-9)+8]
  4970   002A9A  0EFF               	movlw	-1
  4971   002A9C  50E3               	movf	plusw1,w,c
  4972   002A9E  6E0B               	movwf	(btemp+10)^0,c
  4973   002AA0  6A0C               	clrf	(btemp+11)^0,c
  4974                           
  4975                           ; Switch on 2 bytes has been partitioned into a top level switch of size 1, and 1 sub-sw
      +                          itches
  4976                           ; Switch size 1, requested type "simple"
  4977                           ; Number of cases is 1, Range of values is 0 to 0
  4978                           ; switch strategies available:
  4979                           ; Name         Instructions Cycles
  4980                           ; simple_byte            4     3 (average)
  4981                           ;	Chosen strategy is simple_byte
  4982   002AA2  500C               	movf	(btemp+11)^0,w,c
  4983   002AA4  0A00               	xorlw	0	; case 0
  4984   002AA6  B4D8               	btfsc	status,2,c
  4985   002AA8  EF58  F015         	goto	l5270
  4986   002AAC  EF49  F015         	goto	l4318
  4987   002AB0                     l5270:
  4988                           
  4989                           ; Switch size 1, requested type "simple"
  4990                           ; Number of cases is 3, Range of values is 76 to 108
  4991                           ; switch strategies available:
  4992                           ; Name         Instructions Cycles
  4993                           ; simple_byte           10     6 (average)
  4994                           ;	Chosen strategy is simple_byte
  4995   002AB0  500B               	movf	(btemp+10)^0,w,c
  4996   002AB2  0A4C               	xorlw	76	; case 76
  4997   002AB4  B4D8               	btfsc	status,2,c
  4998   002AB6  EF31  F015         	goto	l4314
  4999   002ABA  0A2A               	xorlw	42	; case 102
  5000   002ABC  B4D8               	btfsc	status,2,c
  5001   002ABE  EF42  F015         	goto	l4316
  5002   002AC2  0A0A               	xorlw	10	; case 108
  5003   002AC4  B4D8               	btfsc	status,2,c
  5004   002AC6  EF31  F015         	goto	l4314
  5005   002ACA  EF49  F015         	goto	l4318
  5006   002ACE                     l4324:
  5007                           
  5008                           ;stkvar	_cp @ sp[(-9)+6]
  5009   002ACE  50E1               	movf	fsr1l,w,c
  5010   002AD0  0FFD               	addlw	-3
  5011   002AD2  6ED9               	movwf	fsr2l,c
  5012   002AD4  50E2               	movf	fsr1h,w,c
  5013   002AD6  6EDA               	movwf	fsr2h,c
  5014   002AD8  0EFF               	movlw	255
  5015   002ADA  22DA               	addwfc	fsr2h,f,c
  5016   002ADC  CFDE FFF6          	movff	postinc2,tblptrl
  5017   002AE0  CFDD FFF7          	movff	postdec2,tblptrh
  5018   002AE4                     	if	1	;Program memory is < 0x10000, tblptru is always zero
  5019   002AE4  6AF8               	clrf	tblptru,c
  5020   002AE6                     	endif
  5021   002AE6                     	if	0	;tblptru may be non-zero
  5022   002AE6                     	endif
  5023   002AE6  0008               	tblrd		*
  5024   002AE8  50F5               	movf	tablat,w,c
  5025   002AEA  0A66               	xorlw	102
  5026   002AEC  A4D8               	btfss	status,2,c
  5027   002AEE  EF7B  F015         	goto	u4431
  5028   002AF2  EF7D  F015         	goto	u4430
  5029   002AF6                     u4431:
  5030   002AF6  EF39  F016         	goto	l4344
  5031   002AFA                     u4430:
  5032   002AFA  EFCF  F015         	goto	l4332
  5033   002AFE                     l4326:
  5034                           
  5035                           ;C:\Program Files\Microchip\xc8\v2.41\pic\sources\c99\common\doprnt.c: 1485:      convar
      +                          g.f = (long double)(*(double *)__va_arg(*(double **)ap, (double)0));
  5036                           ;stkvar	_ap @ sp[(-9)+-6]
  5037   002AFE  0EF1               	movlw	-15
  5038   002B00  CFE3 FFD9          	movff	plusw1,fsr2l
  5039   002B04  0EF2               	movlw	-14
  5040   002B06  CFE3 FFDA          	movff	plusw1,fsr2h
  5041   002B0A  0E04               	movlw	4
  5042   002B0C  5EDE               	subwf	postinc2,f,c
  5043   002B0E  0E00               	movlw	0
  5044   002B10  5ADD               	subwfb	postdec2,f,c
  5045   002B12  CFDE F00B          	movff	postinc2,btemp+10
  5046   002B16  CFDD F00C          	movff	postdec2,btemp+11
  5047   002B1A  C00B  FFD9         	movff	btemp+10,fsr2l
  5048   002B1E  C00C  FFDA         	movff	btemp+11,fsr2h
  5049   002B22  CFDE F009          	movff	postinc2,btemp+8
  5050   002B26  CFDE F00A          	movff	postinc2,btemp+9
  5051   002B2A  CFDE F00B          	movff	postinc2,btemp+10
  5052   002B2E  CFDE F00C          	movff	postinc2,btemp+11
  5053                           
  5054                           ;stkvar	_convarg @ sp[(-9)+2]
  5055   002B32  0EF9               	movlw	-7
  5056   002B34  C009  FFE3         	movff	btemp+8,plusw1
  5057   002B38  0EFA               	movlw	-6
  5058   002B3A  C00A  FFE3         	movff	btemp+9,plusw1
  5059   002B3E  0EFB               	movlw	-5
  5060   002B40  C00B  FFE3         	movff	btemp+10,plusw1
  5061   002B44  0EFC               	movlw	-4
  5062   002B46  C00C  FFE3         	movff	btemp+11,plusw1
  5063                           
  5064                           ;C:\Program Files\Microchip\xc8\v2.41\pic\sources\c99\common\doprnt.c: 1486:      break;
  5065   002B4A  EFE5  F015         	goto	l4334
  5066   002B4E                     l4328:
  5067                           
  5068                           ;C:\Program Files\Microchip\xc8\v2.41\pic\sources\c99\common\doprnt.c: 1488:      convar
      +                          g.f = (long double)(*(long double *)__va_arg(*(long double **)ap, (long double)0));
  5069                           ;stkvar	_ap @ sp[(-9)+-6]
  5070   002B4E  0EF1               	movlw	-15
  5071   002B50  CFE3 FFD9          	movff	plusw1,fsr2l
  5072   002B54  0EF2               	movlw	-14
  5073   002B56  CFE3 FFDA          	movff	plusw1,fsr2h
  5074   002B5A  0E04               	movlw	4
  5075   002B5C  5EDE               	subwf	postinc2,f,c
  5076   002B5E  0E00               	movlw	0
  5077   002B60  5ADD               	subwfb	postdec2,f,c
  5078   002B62  CFDE F00B          	movff	postinc2,btemp+10
  5079   002B66  CFDD F00C          	movff	postdec2,btemp+11
  5080   002B6A  C00B  FFD9         	movff	btemp+10,fsr2l
  5081   002B6E  C00C  FFDA         	movff	btemp+11,fsr2h
  5082   002B72  CFDE F009          	movff	postinc2,btemp+8
  5083   002B76  CFDE F00A          	movff	postinc2,btemp+9
  5084   002B7A  CFDE F00B          	movff	postinc2,btemp+10
  5085   002B7E  CFDE F00C          	movff	postinc2,btemp+11
  5086                           
  5087                           ;stkvar	_convarg @ sp[(-9)+2]
  5088   002B82  0EF9               	movlw	-7
  5089   002B84  C009  FFE3         	movff	btemp+8,plusw1
  5090   002B88  0EFA               	movlw	-6
  5091   002B8A  C00A  FFE3         	movff	btemp+9,plusw1
  5092   002B8E  0EFB               	movlw	-5
  5093   002B90  C00B  FFE3         	movff	btemp+10,plusw1
  5094   002B94  0EFC               	movlw	-4
  5095   002B96  C00C  FFE3         	movff	btemp+11,plusw1
  5096                           
  5097                           ;C:\Program Files\Microchip\xc8\v2.41\pic\sources\c99\common\doprnt.c: 1489:      break;
  5098   002B9A  EFE5  F015         	goto	l4334
  5099   002B9E                     l4332:
  5100                           
  5101                           ;stkvar	_c @ sp[(-9)+8]
  5102   002B9E  0EFF               	movlw	-1
  5103   002BA0  50E3               	movf	plusw1,w,c
  5104   002BA2  6E0B               	movwf	(btemp+10)^0,c
  5105   002BA4  6A0C               	clrf	(btemp+11)^0,c
  5106                           
  5107                           ; Switch on 2 bytes has been partitioned into a top level switch of size 1, and 1 sub-sw
      +                          itches
  5108                           ; Switch size 1, requested type "simple"
  5109                           ; Number of cases is 1, Range of values is 0 to 0
  5110                           ; switch strategies available:
  5111                           ; Name         Instructions Cycles
  5112                           ; simple_byte            4     3 (average)
  5113                           ;	Chosen strategy is simple_byte
  5114   002BA6  500C               	movf	(btemp+11)^0,w,c
  5115   002BA8  0A00               	xorlw	0	; case 0
  5116   002BAA  B4D8               	btfsc	status,2,c
  5117   002BAC  EFDA  F015         	goto	l5272
  5118   002BB0  EFE5  F015         	goto	l4334
  5119   002BB4                     l5272:
  5120                           
  5121                           ; Switch size 1, requested type "simple"
  5122                           ; Number of cases is 2, Range of values is 76 to 108
  5123                           ; switch strategies available:
  5124                           ; Name         Instructions Cycles
  5125                           ; simple_byte            7     4 (average)
  5126                           ;	Chosen strategy is simple_byte
  5127   002BB4  500B               	movf	(btemp+10)^0,w,c
  5128   002BB6  0A4C               	xorlw	76	; case 76
  5129   002BB8  B4D8               	btfsc	status,2,c
  5130   002BBA  EFA7  F015         	goto	l4328
  5131   002BBE  0A20               	xorlw	32	; case 108
  5132   002BC0  B4D8               	btfsc	status,2,c
  5133   002BC2  EF7F  F015         	goto	l4326
  5134   002BC6  EFE5  F015         	goto	l4334
  5135   002BCA                     l4334:
  5136                           
  5137                           ;C:\Program Files\Microchip\xc8\v2.41\pic\sources\c99\common\doprnt.c: 1491:    *fmt = c
      +                          p+1;
  5138                           ;stkvar	_cp @ sp[(-9)+6]
  5139   002BCA  0EFD               	movlw	-3
  5140   002BCC  50E3               	movf	plusw1,w,c
  5141   002BCE  0F01               	addlw	1
  5142   002BD0  6E0B               	movwf	(btemp+10)^0,c
  5143   002BD2  0EFE               	movlw	-2
  5144   002BD4  CFE3 F00C          	movff	plusw1,btemp+11
  5145   002BD8  0E00               	movlw	0
  5146   002BDA  220C               	addwfc	(btemp+11)^0,f,c
  5147                           
  5148                           ;stkvar	_fmt @ sp[(-9)+-4]
  5149   002BDC  0EF3               	movlw	-13
  5150   002BDE  CFE3 FFD9          	movff	plusw1,fsr2l
  5151   002BE2  0EF4               	movlw	-12
  5152   002BE4  CFE3 FFDA          	movff	plusw1,fsr2h
  5153   002BE8  C00B  FFDE         	movff	btemp+10,postinc2
  5154   002BEC  C00C  FFDD         	movff	btemp+11,postdec2
  5155                           
  5156                           ;C:\Program Files\Microchip\xc8\v2.41\pic\sources\c99\common\doprnt.c: 1492:    switch (
      +                          *cp) {
  5157   002BF0  EF1B  F016         	goto	l4342
  5158   002BF4                     l4336:
  5159                           
  5160                           ;C:\Program Files\Microchip\xc8\v2.41\pic\sources\c99\common\doprnt.c: 1519:      return
      +                           (void) efgtoa(fp, convarg.f, *cp);;	Return value of _vfpfcnvrt is never used
  5161                           ;stkvar	_cp @ sp[(-9)+6]
  5162   002BF4  50E1               	movf	fsr1l,w,c
  5163   002BF6  0FFD               	addlw	-3
  5164   002BF8  6ED9               	movwf	fsr2l,c
  5165   002BFA  50E2               	movf	fsr1h,w,c
  5166   002BFC  6EDA               	movwf	fsr2h,c
  5167   002BFE  0EFF               	movlw	255
  5168   002C00  22DA               	addwfc	fsr2h,f,c
  5169   002C02  CFDE FFF6          	movff	postinc2,tblptrl
  5170   002C06  CFDD FFF7          	movff	postdec2,tblptrh
  5171   002C0A                     	if	1	;Program memory is < 0x10000, tblptru is always zero
  5172   002C0A  6AF8               	clrf	tblptru,c
  5173   002C0C                     	endif
  5174   002C0C                     	if	0	;tblptru may be non-zero
  5175   002C0C                     	endif
  5176   002C0C  0008               	tblrd		*
  5177   002C0E  50F5               	movf	tablat,w,c
  5178   002C10  6EE6               	movwf	postinc1,c
  5179                           
  5180                           ;stkvar	_convarg @ sp[(-10)+2]
  5181   002C12  0EF8               	movlw	-8
  5182   002C14  CFE3 FFE6          	movff	plusw1,postinc1
  5183   002C18  CFE3 FFE6          	movff	plusw1,postinc1
  5184   002C1C  CFE3 FFE6          	movff	plusw1,postinc1
  5185   002C20  CFE3 FFE6          	movff	plusw1,postinc1
  5186                           
  5187                           ;stkvar	_fp @ sp[(-14)+-2]
  5188   002C24  0EF0               	movlw	-16
  5189   002C26  CFE3 FFE6          	movff	plusw1,postinc1
  5190   002C2A  CFE3 FFE6          	movff	plusw1,postinc1
  5191   002C2E  ECB2  F000         	call	_efgtoa	;wreg free
  5192   002C32  EF5D  F016         	goto	l1209
  5193   002C36                     l4342:
  5194                           
  5195                           ;stkvar	_cp @ sp[(-9)+6]
  5196   002C36  50E1               	movf	fsr1l,w,c
  5197   002C38  0FFD               	addlw	-3
  5198   002C3A  6ED9               	movwf	fsr2l,c
  5199   002C3C  50E2               	movf	fsr1h,w,c
  5200   002C3E  6EDA               	movwf	fsr2h,c
  5201   002C40  0EFF               	movlw	255
  5202   002C42  22DA               	addwfc	fsr2h,f,c
  5203   002C44  CFDE FFF6          	movff	postinc2,tblptrl
  5204   002C48  CFDD FFF7          	movff	postdec2,tblptrh
  5205   002C4C                     	if	1	;Program memory is < 0x10000, tblptru is always zero
  5206   002C4C  6AF8               	clrf	tblptru,c
  5207   002C4E                     	endif
  5208   002C4E                     	if	0	;tblptru may be non-zero
  5209   002C4E                     	endif
  5210   002C4E  0008               	tblrd		*
  5211   002C50  50F5               	movf	tablat,w,c
  5212   002C52  6E0B               	movwf	(btemp+10)^0,c
  5213   002C54  6A0C               	clrf	(btemp+11)^0,c
  5214                           
  5215                           ; Switch on 2 bytes has been partitioned into a top level switch of size 1, and 1 sub-sw
      +                          itches
  5216                           ; Switch size 1, requested type "simple"
  5217                           ; Number of cases is 1, Range of values is 0 to 0
  5218                           ; switch strategies available:
  5219                           ; Name         Instructions Cycles
  5220                           ; simple_byte            4     3 (average)
  5221                           ;	Chosen strategy is simple_byte
  5222   002C56  500C               	movf	(btemp+11)^0,w,c
  5223   002C58  0A00               	xorlw	0	; case 0
  5224   002C5A  B4D8               	btfsc	status,2,c
  5225   002C5C  EF32  F016         	goto	l5274
  5226   002C60  EF39  F016         	goto	l4344
  5227   002C64                     l5274:
  5228                           
  5229                           ; Switch size 1, requested type "simple"
  5230                           ; Number of cases is 1, Range of values is 102 to 102
  5231                           ; switch strategies available:
  5232                           ; Name         Instructions Cycles
  5233                           ; simple_byte            4     3 (average)
  5234                           ;	Chosen strategy is simple_byte
  5235   002C64  500B               	movf	(btemp+10)^0,w,c
  5236   002C66  0A66               	xorlw	102	; case 102
  5237   002C68  B4D8               	btfsc	status,2,c
  5238   002C6A  EFFA  F015         	goto	l4336
  5239   002C6E  EF39  F016         	goto	l4344
  5240   002C72                     l4344:
  5241                           
  5242                           ;C:\Program Files\Microchip\xc8\v2.41\pic\sources\c99\common\doprnt.c: 1535:         ++*
      +                          fmt;
  5243                           ;stkvar	_fmt @ sp[(-9)+-4]
  5244   002C72  0EF3               	movlw	-13
  5245   002C74  CFE3 FFD9          	movff	plusw1,fsr2l
  5246   002C78  0EF4               	movlw	-12
  5247   002C7A  CFE3 FFDA          	movff	plusw1,fsr2h
  5248   002C7E  2ADE               	incf	postinc2,f,c
  5249   002C80  0E00               	movlw	0
  5250   002C82  22DD               	addwfc	postdec2,f,c
  5251   002C84  EF5D  F016         	goto	l1209
  5252   002C88                     l4348:
  5253                           
  5254                           ;C:\Program Files\Microchip\xc8\v2.41\pic\sources\c99\common\doprnt.c: 1540:     fputc((
      +                          int)(*fmt)[0], fp);
  5255                           ;stkvar	_fp @ sp[(-9)+-2]
  5256   002C88  0EF5               	movlw	-11
  5257   002C8A  CFE3 FFE6          	movff	plusw1,postinc1
  5258   002C8E  CFE3 FFE6          	movff	plusw1,postinc1
  5259                           
  5260                           ;stkvar	_fmt @ sp[(-11)+-4]
  5261   002C92  0EF1               	movlw	-15
  5262   002C94  CFE3 FFD9          	movff	plusw1,fsr2l
  5263   002C98  0EF2               	movlw	-14
  5264   002C9A  CFE3 FFDA          	movff	plusw1,fsr2h
  5265   002C9E  CFDE FFF6          	movff	postinc2,tblptrl
  5266   002CA2  CFDD FFF7          	movff	postdec2,tblptrh
  5267   002CA6                     	if	1	;Program memory is < 0x10000, tblptru is always zero
  5268   002CA6  6AF8               	clrf	tblptru,c
  5269   002CA8                     	endif
  5270   002CA8                     	if	0	;tblptru may be non-zero
  5271   002CA8                     	endif
  5272   002CA8  0008               	tblrd		*
  5273   002CAA  50F5               	movf	tablat,w,c
  5274   002CAC  6EE6               	movwf	postinc1,c
  5275   002CAE  0E00               	movlw	0
  5276   002CB0  6EE6               	movwf	postinc1,c
  5277   002CB2  ECCC  F01E         	call	_fputc	;wreg free
  5278   002CB6  EF39  F016         	goto	l4344
  5279   002CBA                     l1209:
  5280                           
  5281                           ; _vfpfcnvrt: autosize = 9, savesize = 0, parsavesize = 0, tempsize = 0 parsize = 6, arg
      +                          size = 6, vargsize = 0
  5282   002CBA  0EF1               	movlw	241
  5283   002CBC  26E1               	addwf	fsr1l,f,c
  5284   002CBE  0EFF               	movlw	255
  5285   002CC0  22E2               	addwfc	fsr1h,f,c
  5286   002CC2  0012               	return		;funcret
  5287   002CC4                     __end_of_vfpfcnvrt:
  5288                           	callstack 0
  5289                           
  5290 ;; *************** function _strncmp *****************
  5291 ;; Defined at:
  5292 ;;		line 3 in file "C:\Program Files\Microchip\xc8\v2.41\pic\sources\c99\common\strncmp.c"
  5293 ;; Parameters:    Size  Location     Type
  5294 ;;  _l              2  [STACK] PTR const unsigned char 
  5295 ;;		 -> STR_24(23), STR_23(16), STR_22(17), STR_20(12), 
  5296 ;;		 -> STR_19(17), STR_18(15), STR_16(18), STR_15(14), 
  5297 ;;		 -> STR_12(15), STR_11(14), STR_8(14), STR_5(14), 
  5298 ;;		 -> STR_2(17), 
  5299 ;;  _r              2  [STACK] PTR const unsigned char 
  5300 ;;		 -> STR_33(4), 
  5301 ;;  n               2  [STACK] unsigned int 
  5302 ;; Auto vars:     Size  Location     Type
  5303 ;;  r               2  [STACK] PTR const unsigned char 
  5304 ;;		 -> STR_33(4), 
  5305 ;;  l               2  [STACK] PTR const unsigned char 
  5306 ;;		 -> STR_24(23), STR_23(16), STR_22(17), STR_20(12), 
  5307 ;;		 -> STR_19(17), STR_18(15), STR_16(18), STR_15(14), 
  5308 ;;		 -> STR_12(15), STR_11(14), STR_8(14), STR_5(14), 
  5309 ;;		 -> STR_2(17), 
  5310 ;; Return value:  Size  Location     Type
  5311 ;;                  2  [STACK] int 
  5312 ;; Registers used:
  5313 ;;		wreg, fsr1l, fsr1h, fsr2l, fsr2h, status,2, status,0, btemp, btemp+1, btemp+10, btemp+11, tblptrl, tblptrh, tblptru,
      + prodl
  5314 ;; Tracked objects:
  5315 ;;		On entry : 0/F
  5316 ;;		On exit  : 0/0
  5317 ;;		Unchanged: 0/0
  5318 ;; Data sizes:     COMRAM   BANK0   BANK1   BANK2   BANK3   BANK4   BANK5   BANK6   BANK7   BANK8   BANK9  BANK10  BANK1
      +1  BANK12  BANK13  BANK14  BANK15
  5319 ;;      Params:         0       0       0       0       0       0       0       0       0       0       0       0       
      +0       0       0       0       0
  5320 ;;      Locals:         0       0       0       0       0       0       0       0       0       0       0       0       
      +0       0       0       0       0
  5321 ;;      Temps:          0       0       0       0       0       0       0       0       0       0       0       0       
      +0       0       0       0       0
  5322 ;;      Totals:         0       0       0       0       0       0       0       0       0       0       0       0       
      +0       0       0       0       0
  5323 ;;Total ram usage:        0 bytes
  5324 ;; Hardware stack levels used: 1
  5325 ;; Hardware stack levels required when called: 7
  5326 ;; This function calls:
  5327 ;;		Nothing
  5328 ;; This function is called by:
  5329 ;;		_vfpfcnvrt
  5330 ;; This function uses a reentrant model
  5331 ;;
  5332                           
  5333                           	psect	text26
  5334   003478                     __ptext26:
  5335                           	callstack 0
  5336   003478                     _strncmp:
  5337                           	callstack 0
  5338                           
  5339                           ; autosize = 4, savesize = 0, parsavesize = 0, tempsize = 0 parsize = 6, argsize = 6 var
      +                          gsize = 0, retsize = 0 argfudge = 0
  5340   003478  52E6               	movf	postinc1,f,c
  5341   00347A  52E6               	movf	postinc1,f,c
  5342   00347C  52E6               	movf	postinc1,f,c
  5343   00347E  52E6               	movf	postinc1,f,c
  5344   003480                     
  5345                           ;stkvar	__l @ sp[(-4)+-2]
  5346   003480  0EFA               	movlw	-6
  5347   003482  CFE3 F00B          	movff	plusw1,btemp+10
  5348   003486  0EFB               	movlw	-5
  5349   003488  CFE3 F00C          	movff	plusw1,btemp+11
  5350                           
  5351                           ;stkvar	_l @ sp[(-4)+2]
  5352   00348C  0EFF               	movlw	-1
  5353   00348E  C00C  FFE3         	movff	btemp+11,plusw1
  5354   003492  0EFE               	movlw	-2
  5355   003494  C00B  FFE3         	movff	btemp+10,plusw1
  5356                           
  5357                           ;stkvar	__r @ sp[(-4)+-4]
  5358   003498  0EF8               	movlw	-8
  5359   00349A  CFE3 F00B          	movff	plusw1,btemp+10
  5360   00349E  0EF9               	movlw	-7
  5361   0034A0  CFE3 F00C          	movff	plusw1,btemp+11
  5362                           
  5363                           ;stkvar	_r @ sp[(-4)+0]
  5364   0034A4  0EFD               	movlw	-3
  5365   0034A6  C00C  FFE3         	movff	btemp+11,plusw1
  5366   0034AA  0EFC               	movlw	-4
  5367   0034AC  C00B  FFE3         	movff	btemp+10,plusw1
  5368   0034B0                     
  5369                           ;stkvar	_n @ sp[(-4)+-6]
  5370   0034B0  0EF6               	movlw	-10
  5371   0034B2  CFE3 F001          	movff	plusw1,btemp
  5372   0034B6  0E01               	movlw	1
  5373   0034B8  5E01               	subwf	btemp^0,f,c
  5374   0034BA  0EF6               	movlw	-10
  5375   0034BC  C001  FFE3         	movff	btemp,plusw1
  5376   0034C0  0EF7               	movlw	-9
  5377   0034C2  CFE3 F001          	movff	plusw1,btemp
  5378   0034C6  0E00               	movlw	0
  5379   0034C8  5A01               	subwfb	btemp^0,f,c
  5380   0034CA  0EF7               	movlw	-9
  5381   0034CC  C001  FFE3         	movff	btemp,plusw1
  5382   0034D0  0EF6               	movlw	-10
  5383   0034D2  28E3               	incf	plusw1,w,c
  5384   0034D4  E107               	bnz	u4331
  5385   0034D6  0EF7               	movlw	-9
  5386   0034D8  28E3               	incf	plusw1,w,c
  5387   0034DA  A4D8               	btfss	status,2,c
  5388   0034DC  EF72  F01A         	goto	u4331
  5389   0034E0  EF74  F01A         	goto	u4330
  5390   0034E4                     u4331:
  5391   0034E4  EFA8  F01A         	goto	l4268
  5392   0034E8                     u4330:
  5393   0034E8  0E00               	movlw	0
  5394   0034EA  6E01               	movwf	btemp^0,c
  5395   0034EC  0E00               	movlw	0
  5396   0034EE  6E02               	movwf	(btemp+1)^0,c
  5397   0034F0  EF27  F01B         	goto	l1311
  5398   0034F4                     l4266:
  5399                           
  5400                           ;stkvar	_l @ sp[(-4)+2]
  5401   0034F4  0EFE               	movlw	-2
  5402   0034F6  50E3               	movf	plusw1,w,c
  5403   0034F8  0F01               	addlw	1
  5404   0034FA  6E01               	movwf	btemp^0,c
  5405   0034FC  0EFE               	movlw	-2
  5406   0034FE  C001  FFE3         	movff	btemp,plusw1
  5407   003502  6A01               	clrf	btemp^0,c
  5408   003504  0EFF               	movlw	-1
  5409   003506  50E3               	movf	plusw1,w,c
  5410   003508  2001               	addwfc	btemp^0,w,c
  5411   00350A  6E01               	movwf	btemp^0,c
  5412   00350C  0EFF               	movlw	-1
  5413   00350E  C001  FFE3         	movff	btemp,plusw1
  5414                           
  5415                           ;stkvar	_r @ sp[(-4)+0]
  5416   003512  0EFC               	movlw	-4
  5417   003514  50E3               	movf	plusw1,w,c
  5418   003516  0F01               	addlw	1
  5419   003518  6E01               	movwf	btemp^0,c
  5420   00351A  0EFC               	movlw	-4
  5421   00351C  C001  FFE3         	movff	btemp,plusw1
  5422   003520  6A01               	clrf	btemp^0,c
  5423   003522  0EFD               	movlw	-3
  5424   003524  50E3               	movf	plusw1,w,c
  5425   003526  2001               	addwfc	btemp^0,w,c
  5426   003528  6E01               	movwf	btemp^0,c
  5427   00352A  0EFD               	movlw	-3
  5428   00352C  C001  FFE3         	movff	btemp,plusw1
  5429                           
  5430                           ;stkvar	_n @ sp[(-4)+-6]
  5431   003530  0EF6               	movlw	-10
  5432   003532  CFE3 F001          	movff	plusw1,btemp
  5433   003536  0E01               	movlw	1
  5434   003538  5E01               	subwf	btemp^0,f,c
  5435   00353A  0EF6               	movlw	-10
  5436   00353C  C001  FFE3         	movff	btemp,plusw1
  5437   003540  0EF7               	movlw	-9
  5438   003542  CFE3 F001          	movff	plusw1,btemp
  5439   003546  0E00               	movlw	0
  5440   003548  5A01               	subwfb	btemp^0,f,c
  5441   00354A  0EF7               	movlw	-9
  5442   00354C  C001  FFE3         	movff	btemp,plusw1
  5443   003550                     l4268:
  5444                           
  5445                           ;stkvar	_l @ sp[(-4)+2]
  5446   003550  50E1               	movf	fsr1l,w,c
  5447   003552  0FFE               	addlw	-2
  5448   003554  6ED9               	movwf	fsr2l,c
  5449   003556  50E2               	movf	fsr1h,w,c
  5450   003558  6EDA               	movwf	fsr2h,c
  5451   00355A  0EFF               	movlw	255
  5452   00355C  22DA               	addwfc	fsr2h,f,c
  5453   00355E  CFDE FFF6          	movff	postinc2,tblptrl
  5454   003562  CFDD FFF7          	movff	postdec2,tblptrh
  5455   003566                     	if	1	;Program memory is < 0x10000, tblptru is always zero
  5456   003566  6AF8               	clrf	tblptru,c
  5457   003568                     	endif
  5458   003568                     	if	0	;tblptru may be non-zero
  5459   003568                     	endif
  5460   003568  0008               	tblrd		*
  5461   00356A  50F5               	movf	tablat,w,c
  5462   00356C  0900               	iorlw	0
  5463   00356E  B4D8               	btfsc	status,2,c
  5464   003570  EFBC  F01A         	goto	u4341
  5465   003574  EFBE  F01A         	goto	u4340
  5466   003578                     u4341:
  5467   003578  EF06  F01B         	goto	l4276
  5468   00357C                     u4340:
  5469   00357C                     
  5470                           ;stkvar	_r @ sp[(-4)+0]
  5471   00357C  50E1               	movf	fsr1l,w,c
  5472   00357E  0FFC               	addlw	-4
  5473   003580  6ED9               	movwf	fsr2l,c
  5474   003582  50E2               	movf	fsr1h,w,c
  5475   003584  6EDA               	movwf	fsr2h,c
  5476   003586  0EFF               	movlw	255
  5477   003588  22DA               	addwfc	fsr2h,f,c
  5478   00358A  CFDE FFF6          	movff	postinc2,tblptrl
  5479   00358E  CFDD FFF7          	movff	postdec2,tblptrh
  5480   003592                     	if	1	;Program memory is < 0x10000, tblptru is always zero
  5481   003592  6AF8               	clrf	tblptru,c
  5482   003594                     	endif
  5483   003594                     	if	0	;tblptru may be non-zero
  5484   003594                     	endif
  5485   003594  0008               	tblrd		*
  5486   003596  50F5               	movf	tablat,w,c
  5487   003598  0900               	iorlw	0
  5488   00359A  B4D8               	btfsc	status,2,c
  5489   00359C  EFD2  F01A         	goto	u4351
  5490   0035A0  EFD4  F01A         	goto	u4350
  5491   0035A4                     u4351:
  5492   0035A4  EF06  F01B         	goto	l4276
  5493   0035A8                     u4350:
  5494   0035A8                     
  5495                           ;stkvar	_n @ sp[(-4)+-6]
  5496   0035A8  0EF6               	movlw	-10
  5497   0035AA  CFE3 F001          	movff	plusw1,btemp
  5498   0035AE  0EF7               	movlw	-9
  5499   0035B0  50E3               	movf	plusw1,w,c
  5500   0035B2  1001               	iorwf	btemp^0,w,c
  5501   0035B4  B4D8               	btfsc	status,2,c
  5502   0035B6  EFDF  F01A         	goto	u4361
  5503   0035BA  EFE1  F01A         	goto	u4360
  5504   0035BE                     u4361:
  5505   0035BE  EF06  F01B         	goto	l4276
  5506   0035C2                     u4360:
  5507   0035C2                     
  5508                           ;stkvar	_l @ sp[(-4)+2]
  5509   0035C2  50E1               	movf	fsr1l,w,c
  5510   0035C4  0FFE               	addlw	-2
  5511   0035C6  6ED9               	movwf	fsr2l,c
  5512   0035C8  50E2               	movf	fsr1h,w,c
  5513   0035CA  6EDA               	movwf	fsr2h,c
  5514   0035CC  0EFF               	movlw	255
  5515   0035CE  22DA               	addwfc	fsr2h,f,c
  5516   0035D0  CFDE FFF6          	movff	postinc2,tblptrl
  5517   0035D4  CFDD FFF7          	movff	postdec2,tblptrh
  5518   0035D8                     	if	1	;Program memory is < 0x10000, tblptru is always zero
  5519   0035D8  6AF8               	clrf	tblptru,c
  5520   0035DA                     	endif
  5521   0035DA                     	if	0	;tblptru may be non-zero
  5522   0035DA                     	endif
  5523   0035DA  0008               	tblrd		*
  5524   0035DC  CFF5 F00C          	movff	tablat,btemp+11
  5525                           
  5526                           ;stkvar	_r @ sp[(-4)+0]
  5527   0035E0  50E1               	movf	fsr1l,w,c
  5528   0035E2  0FFC               	addlw	-4
  5529   0035E4  6ED9               	movwf	fsr2l,c
  5530   0035E6  50E2               	movf	fsr1h,w,c
  5531   0035E8  6EDA               	movwf	fsr2h,c
  5532   0035EA  0EFF               	movlw	255
  5533   0035EC  22DA               	addwfc	fsr2h,f,c
  5534   0035EE  CFDE FFF6          	movff	postinc2,tblptrl
  5535   0035F2  CFDD FFF7          	movff	postdec2,tblptrh
  5536   0035F6                     	if	1	;Program memory is < 0x10000, tblptru is always zero
  5537   0035F6  6AF8               	clrf	tblptru,c
  5538   0035F8                     	endif
  5539   0035F8                     	if	0	;tblptru may be non-zero
  5540   0035F8                     	endif
  5541   0035F8  0008               	tblrd		*
  5542   0035FA  50F5               	movf	tablat,w,c
  5543   0035FC  180C               	xorwf	(btemp+11)^0,w,c
  5544   0035FE  B4D8               	btfsc	status,2,c
  5545   003600  EF04  F01B         	goto	u4371
  5546   003604  EF06  F01B         	goto	u4370
  5547   003608                     u4371:
  5548   003608  EF7A  F01A         	goto	l4266
  5549   00360C                     u4370:
  5550   00360C                     l4276:
  5551                           
  5552                           ;stkvar	_l @ sp[(-4)+2]
  5553   00360C  50E1               	movf	fsr1l,w,c
  5554   00360E  0FFE               	addlw	-2
  5555   003610  6ED9               	movwf	fsr2l,c
  5556   003612  50E2               	movf	fsr1h,w,c
  5557   003614  6EDA               	movwf	fsr2h,c
  5558   003616  0EFF               	movlw	255
  5559   003618  22DA               	addwfc	fsr2h,f,c
  5560   00361A  CFDE FFF6          	movff	postinc2,tblptrl
  5561   00361E  CFDD FFF7          	movff	postdec2,tblptrh
  5562   003622                     	if	1	;Program memory is < 0x10000, tblptru is always zero
  5563   003622  6AF8               	clrf	tblptru,c
  5564   003624                     	endif
  5565   003624                     	if	0	;tblptru may be non-zero
  5566   003624                     	endif
  5567   003624  0008               	tblrd		*
  5568   003626  50F5               	movf	tablat,w,c
  5569   003628  6E01               	movwf	btemp^0,c
  5570   00362A  6A02               	clrf	(btemp+1)^0,c
  5571                           
  5572                           ;stkvar	_r @ sp[(-4)+0]
  5573   00362C  50E1               	movf	fsr1l,w,c
  5574   00362E  0FFC               	addlw	-4
  5575   003630  6ED9               	movwf	fsr2l,c
  5576   003632  50E2               	movf	fsr1h,w,c
  5577   003634  6EDA               	movwf	fsr2h,c
  5578   003636  0EFF               	movlw	255
  5579   003638  22DA               	addwfc	fsr2h,f,c
  5580   00363A  CFDE FFF6          	movff	postinc2,tblptrl
  5581   00363E  CFDD FFF7          	movff	postdec2,tblptrh
  5582   003642                     	if	1	;Program memory is < 0x10000, tblptru is always zero
  5583   003642  6AF8               	clrf	tblptru,c
  5584   003644                     	endif
  5585   003644                     	if	0	;tblptru may be non-zero
  5586   003644                     	endif
  5587   003644  0008               	tblrd		*
  5588   003646  50F5               	movf	tablat,w,c
  5589   003648  5E01               	subwf	btemp^0,f,c
  5590   00364A  0E00               	movlw	0
  5591   00364C  5A02               	subwfb	(btemp+1)^0,f,c
  5592   00364E                     l1311:
  5593                           
  5594                           ; _strncmp: autosize = 4, savesize = 0, parsavesize = 0, tempsize = 0 parsize = 6, argsi
      +                          ze = 6, vargsize = 0
  5595   00364E  0EF6               	movlw	246
  5596   003650  26E1               	addwf	fsr1l,f,c
  5597   003652  0EFF               	movlw	255
  5598   003654  22E2               	addwfc	fsr1h,f,c
  5599   003656  0012               	return		;funcret
  5600   003658                     __end_of_strncmp:
  5601                           	callstack 0
  5602                           
  5603 ;; *************** function _stoa *****************
  5604 ;; Defined at:
  5605 ;;		line 862 in file "C:\Program Files\Microchip\xc8\v2.41\pic\sources\c99\common\doprnt.c"
  5606 ;; Parameters:    Size  Location     Type
  5607 ;;  fp              2  [STACK] PTR struct _IO_FILE
  5608 ;;		 -> f(12), NULL(0), 
  5609 ;;  s               2  [STACK] PTR unsigned char 
  5610 ;;		 -> ?_printf(2), ?_sprintf(2), msg(33), 
  5611 ;; Auto vars:     Size  Location     Type
  5612 ;;  nuls            7  [STACK] unsigned char [7]
  5613 ;;  p               2  [STACK] int 
  5614 ;;  l               2  [STACK] int 
  5615 ;;  cp              2  [STACK] PTR unsigned char 
  5616 ;;		 -> ?_printf(2), nuls(7), ?_sprintf(2), msg(33), 
  5617 ;;  i               2  [STACK] int 
  5618 ;;  w               2  [STACK] int 
  5619 ;; Return value:  Size  Location     Type
  5620 ;;                  1  [STACK] void 
  5621 ;; Registers used:
  5622 ;;		wreg, fsr0l, fsr0h, fsr1l, fsr1h, fsr2l, fsr2h, status,2, status,0, btemp, btemp+1, btemp+8, btemp+9, btemp+10, btem
      +p+11, prodl
  5623 ;; Tracked objects:
  5624 ;;		On entry : 0/F
  5625 ;;		On exit  : 0/0
  5626 ;;		Unchanged: 0/0
  5627 ;; Data sizes:     COMRAM   BANK0   BANK1   BANK2   BANK3   BANK4   BANK5   BANK6   BANK7   BANK8   BANK9  BANK10  BANK1
      +1  BANK12  BANK13  BANK14  BANK15
  5628 ;;      Params:         0       0       0       0       0       0       0       0       0       0       0       0       
      +0       0       0       0       0
  5629 ;;      Locals:         0       0       0       0       0       0       0       0       0       0       0       0       
      +0       0       0       0       0
  5630 ;;      Temps:          0       0       0       0       0       0       0       0       0       0       0       0       
      +0       0       0       0       0
  5631 ;;      Totals:         0       0       0       0       0       0       0       0       0       0       0       0       
      +0       0       0       0       0
  5632 ;;Total ram usage:        0 bytes
  5633 ;; Hardware stack levels used: 1
  5634 ;; Hardware stack levels required when called: 9
  5635 ;; This function calls:
  5636 ;;		_fputc
  5637 ;;		_strlen
  5638 ;; This function is called by:
  5639 ;;		_vfpfcnvrt
  5640 ;; This function uses a reentrant model
  5641 ;;
  5642                           
  5643                           	psect	text27
  5644   003260                     __ptext27:
  5645                           	callstack 0
  5646   003260                     _stoa:
  5647                           	callstack 0
  5648                           
  5649                           ; autosize = 17, savesize = 0, parsavesize = 0, tempsize = 0 parsize = 4, argsize = 4 va
      +                          rgsize = 0, retsize = 0 argfudge = 0
  5650   003260  0E11               	movlw	17
  5651   003262  26E1               	addwf	fsr1l,f,c
  5652   003264  0E00               	movlw	0
  5653   003266  22E2               	addwfc	fsr1h,f,c
  5654   003268                     
  5655                           ;C:\Program Files\Microchip\xc8\v2.41\pic\sources\c99\common\doprnt.c: 862: static void 
      +                          stoa(FILE *fp, char *s);C:\Program Files\Microchip\xc8\v2.41\pic\sources\c99\common\dopr
      +                          nt.c: 863: {;C:\Program Files\Microchip\xc8\v2.41\pic\sources\c99\common\doprnt.c: 864: 
      +                              char *cp, nuls[] = "(null)";
  5656   003268  EE20  F047         	lfsr	2,stoa@F1170
  5657                           
  5658                           ;stkvar	_nuls @ sp[(-17)+0]
  5659   00326C  0E07               	movlw	7
  5660   00326E  6E01               	movwf	btemp^0,c
  5661   003270  0EEF               	movlw	-17
  5662   003272                     us425999:
  5663   003272  CFDE FFE3          	movff	postinc2,plusw1
  5664   003276  28E8               	incf	wreg,w,c
  5665   003278  2E01               	decfsz	btemp^0,f,c
  5666   00327A  D7FB               	bra	us425999
  5667   00327C                     
  5668                           ;C:\Program Files\Microchip\xc8\v2.41\pic\sources\c99\common\doprnt.c: 865:     int i, l
      +                          , p, w;;C:\Program Files\Microchip\xc8\v2.41\pic\sources\c99\common\doprnt.c: 868:     c
      +                          p = s;
  5669                           ;stkvar	_s @ sp[(-17)+-4]
  5670   00327C  0EEB               	movlw	-21
  5671   00327E  CFE3 F00B          	movff	plusw1,btemp+10
  5672   003282  0EEC               	movlw	-20
  5673   003284  CFE3 F00C          	movff	plusw1,btemp+11
  5674                           
  5675                           ;stkvar	_cp @ sp[(-17)+11]
  5676   003288  0EFB               	movlw	-5
  5677   00328A  C00C  FFE3         	movff	btemp+11,plusw1
  5678   00328E  0EFA               	movlw	-6
  5679   003290  C00B  FFE3         	movff	btemp+10,plusw1
  5680   003294                     
  5681                           ;C:\Program Files\Microchip\xc8\v2.41\pic\sources\c99\common\doprnt.c: 869:     if (!cp)
      +                           {
  5682                           ;stkvar	_cp @ sp[(-17)+11]
  5683   003294  0EFA               	movlw	-6
  5684   003296  CFE3 F001          	movff	plusw1,btemp
  5685   00329A  0EFB               	movlw	-5
  5686   00329C  50E3               	movf	plusw1,w,c
  5687   00329E  1001               	iorwf	btemp^0,w,c
  5688   0032A0  A4D8               	btfss	status,2,c
  5689   0032A2  EF55  F019         	goto	u4261
  5690   0032A6  EF57  F019         	goto	u4260
  5691   0032AA                     u4261:
  5692   0032AA  EF63  F019         	goto	l4212
  5693   0032AE                     u4260:
  5694   0032AE                     
  5695                           ;C:\Program Files\Microchip\xc8\v2.41\pic\sources\c99\common\doprnt.c: 870:         cp =
      +                           nuls;
  5696                           ;stkvar	_nuls @ sp[(-17)+0]
  5697   0032AE  0EEF               	movlw	239
  5698   0032B0  24E1               	addwf	fsr1l,w,c
  5699   0032B2  6E0B               	movwf	(btemp+10)^0,c
  5700   0032B4  0EFF               	movlw	255
  5701   0032B6  20E2               	addwfc	fsr1h,w,c
  5702   0032B8  6E0C               	movwf	(btemp+11)^0,c
  5703                           
  5704                           ;stkvar	_cp @ sp[(-17)+11]
  5705   0032BA  0EFB               	movlw	-5
  5706   0032BC  C00C  FFE3         	movff	btemp+11,plusw1
  5707   0032C0  0EFA               	movlw	-6
  5708   0032C2  C00B  FFE3         	movff	btemp+10,plusw1
  5709   0032C6                     l4212:
  5710                           
  5711                           ;C:\Program Files\Microchip\xc8\v2.41\pic\sources\c99\common\doprnt.c: 874:     l = (int
      +                          )strlen(cp);
  5712                           ;stkvar	_cp @ sp[(-17)+11]
  5713   0032C6  0EFA               	movlw	-6
  5714   0032C8  CFE3 FFE6          	movff	plusw1,postinc1
  5715   0032CC  CFE3 FFE6          	movff	plusw1,postinc1
  5716   0032D0  EC6F  F027         	call	_strlen	;wreg free
  5717                           
  5718                           ;stkvar	_l @ sp[(-17)+9]
  5719   0032D4  0EF8               	movlw	-8
  5720   0032D6  C001  FFE3         	movff	btemp,plusw1
  5721   0032DA  0EF9               	movlw	-7
  5722   0032DC  C002  FFE3         	movff	btemp+1,plusw1
  5723   0032E0                     
  5724                           ;C:\Program Files\Microchip\xc8\v2.41\pic\sources\c99\common\doprnt.c: 875:     p = prec
      +                          ;
  5725                           ;stkvar	_p @ sp[(-17)+7]
  5726   0032E0  0EF6               	movlw	-10
  5727   0032E2  C037  FFE3         	movff	_prec,plusw1
  5728   0032E6  0EF7               	movlw	-9
  5729   0032E8  C038  FFE3         	movff	_prec+1,plusw1
  5730   0032EC                     
  5731                           ;C:\Program Files\Microchip\xc8\v2.41\pic\sources\c99\common\doprnt.c: 876:     l = (!(p
      +                           < 0) && (p < l)) ? p : l;
  5732                           ;stkvar	_p @ sp[(-17)+7]
  5733   0032EC  0EF7               	movlw	-9
  5734   0032EE  BEE3               	btfsc	plusw1,7,c
  5735   0032F0  EF7C  F019         	goto	u4271
  5736   0032F4  EF7E  F019         	goto	u4270
  5737   0032F8                     u4271:
  5738   0032F8  EFA4  F019         	goto	l1180
  5739   0032FC                     u4270:
  5740   0032FC                     
  5741                           ;stkvar	_l @ sp[(-17)+9]
  5742                           ;stkvar	_p @ sp[(-17)+7]
  5743   0032FC  50E1               	movf	fsr1l,w,c
  5744   0032FE  0FF6               	addlw	-10
  5745   003300  6ED9               	movwf	fsr2l,c
  5746   003302  50E2               	movf	fsr1h,w,c
  5747   003304  6EDA               	movwf	fsr2h,c
  5748   003306  0EFF               	movlw	255
  5749   003308  22DA               	addwfc	fsr2h,f,c
  5750   00330A  0EF8               	movlw	-8
  5751   00330C  50E3               	movf	plusw1,w,c
  5752   00330E  5CDE               	subwf	postinc2,w,c
  5753   003310  50DE               	movf	postinc2,w,c
  5754   003312  0A80               	xorlw	128
  5755   003314  6E01               	movwf	btemp^0,c
  5756   003316  0EF9               	movlw	-7
  5757   003318  50E3               	movf	plusw1,w,c
  5758   00331A  0A80               	xorlw	128
  5759   00331C  5801               	subwfb	btemp^0,w,c
  5760   00331E  A0D8               	btfss	status,0,c
  5761   003320  EF94  F019         	goto	u4281
  5762   003324  EF96  F019         	goto	u4280
  5763   003328                     u4281:
  5764   003328  EF98  F019         	goto	l4220
  5765   00332C                     u4280:
  5766   00332C  EFA4  F019         	goto	l1180
  5767   003330                     l4220:
  5768                           
  5769                           ;stkvar	_p @ sp[(-17)+7]
  5770                           ;stkvar	_l @ sp[(-17)+9]
  5771   003330  0EF6               	movlw	-10
  5772   003332  CFE3 F001          	movff	plusw1,btemp
  5773   003336  0EF8               	movlw	-8
  5774   003338  C001  FFE3         	movff	btemp,plusw1
  5775   00333C  0EF7               	movlw	-9
  5776   00333E  CFE3 F001          	movff	plusw1,btemp
  5777   003342  0EF9               	movlw	-7
  5778   003344  C001  FFE3         	movff	btemp,plusw1
  5779   003348                     l1180:
  5780                           
  5781                           ;C:\Program Files\Microchip\xc8\v2.41\pic\sources\c99\common\doprnt.c: 877:     p = l;
  5782                           ;stkvar	_l @ sp[(-17)+9]
  5783                           ;stkvar	_p @ sp[(-17)+7]
  5784   003348  0EF8               	movlw	-8
  5785   00334A  CFE3 F001          	movff	plusw1,btemp
  5786   00334E  0EF6               	movlw	-10
  5787   003350  C001  FFE3         	movff	btemp,plusw1
  5788   003354  0EF9               	movlw	-7
  5789   003356  CFE3 F001          	movff	plusw1,btemp
  5790   00335A  0EF7               	movlw	-9
  5791   00335C  C001  FFE3         	movff	btemp,plusw1
  5792   003360                     
  5793                           ;C:\Program Files\Microchip\xc8\v2.41\pic\sources\c99\common\doprnt.c: 878:     w = widt
      +                          h;
  5794                           ;stkvar	_w @ sp[(-17)+15]
  5795   003360  0EFE               	movlw	-2
  5796   003362  C035  FFE3         	movff	_width,plusw1
  5797   003366  0EFF               	movlw	-1
  5798   003368  C036  FFE3         	movff	_width+1,plusw1
  5799                           
  5800                           ;C:\Program Files\Microchip\xc8\v2.41\pic\sources\c99\common\doprnt.c: 884:         whil
      +                          e (l < w) {
  5801   00336C  EFD2  F019         	goto	l4228
  5802   003370                     l4224:
  5803                           
  5804                           ;C:\Program Files\Microchip\xc8\v2.41\pic\sources\c99\common\doprnt.c: 885:             
      +                          fputc(' ', fp);
  5805                           ;stkvar	_fp @ sp[(-17)+-2]
  5806   003370  0EED               	movlw	-19
  5807   003372  CFE3 FFE6          	movff	plusw1,postinc1
  5808   003376  CFE3 FFE6          	movff	plusw1,postinc1
  5809   00337A  0E20               	movlw	32
  5810   00337C  6EE6               	movwf	postinc1,c
  5811   00337E  0E00               	movlw	0
  5812   003380  6EE6               	movwf	postinc1,c
  5813   003382  ECCC  F01E         	call	_fputc	;wreg free
  5814   003386                     
  5815                           ;C:\Program Files\Microchip\xc8\v2.41\pic\sources\c99\common\doprnt.c: 886:             
      +                          ++l;
  5816                           ;stkvar	_l @ sp[(-17)+9]
  5817   003386  0EF8               	movlw	-8
  5818   003388  50E3               	movf	plusw1,w,c
  5819   00338A  0F01               	addlw	1
  5820   00338C  6E01               	movwf	btemp^0,c
  5821   00338E  0EF8               	movlw	-8
  5822   003390  C001  FFE3         	movff	btemp,plusw1
  5823   003394  6A01               	clrf	btemp^0,c
  5824   003396  0EF9               	movlw	-7
  5825   003398  50E3               	movf	plusw1,w,c
  5826   00339A  2001               	addwfc	btemp^0,w,c
  5827   00339C  6E01               	movwf	btemp^0,c
  5828   00339E  0EF9               	movlw	-7
  5829   0033A0  C001  FFE3         	movff	btemp,plusw1
  5830   0033A4                     l4228:
  5831                           
  5832                           ;C:\Program Files\Microchip\xc8\v2.41\pic\sources\c99\common\doprnt.c: 884:         whil
      +                          e (l < w) {
  5833                           ;stkvar	_w @ sp[(-17)+15]
  5834                           ;stkvar	_l @ sp[(-17)+9]
  5835   0033A4  50E1               	movf	fsr1l,w,c
  5836   0033A6  0FF8               	addlw	-8
  5837   0033A8  6ED9               	movwf	fsr2l,c
  5838   0033AA  50E2               	movf	fsr1h,w,c
  5839   0033AC  6EDA               	movwf	fsr2h,c
  5840   0033AE  0EFF               	movlw	255
  5841   0033B0  22DA               	addwfc	fsr2h,f,c
  5842   0033B2  0EFE               	movlw	-2
  5843   0033B4  50E3               	movf	plusw1,w,c
  5844   0033B6  5CDE               	subwf	postinc2,w,c
  5845   0033B8  50DE               	movf	postinc2,w,c
  5846   0033BA  0A80               	xorlw	128
  5847   0033BC  6E01               	movwf	btemp^0,c
  5848   0033BE  0EFF               	movlw	-1
  5849   0033C0  50E3               	movf	plusw1,w,c
  5850   0033C2  0A80               	xorlw	128
  5851   0033C4  5801               	subwfb	btemp^0,w,c
  5852   0033C6  A0D8               	btfss	status,0,c
  5853   0033C8  EFE8  F019         	goto	u4291
  5854   0033CC  EFEA  F019         	goto	u4290
  5855   0033D0                     u4291:
  5856   0033D0  EFB8  F019         	goto	l4224
  5857   0033D4                     u4290:
  5858   0033D4                     
  5859                           ;C:\Program Files\Microchip\xc8\v2.41\pic\sources\c99\common\doprnt.c: 893:     i = 0;
  5860                           ;stkvar	_i @ sp[(-17)+13]
  5861   0033D4  0EFC               	movlw	-4
  5862   0033D6  6AE3               	clrf	plusw1,c
  5863   0033D8  0EFD               	movlw	-3
  5864   0033DA  6AE3               	clrf	plusw1,c
  5865                           
  5866                           ;C:\Program Files\Microchip\xc8\v2.41\pic\sources\c99\common\doprnt.c: 894:     while (i
      +                           < p) {
  5867   0033DC  EF1F  F01A         	goto	l4238
  5868   0033E0                     l4232:
  5869                           
  5870                           ;C:\Program Files\Microchip\xc8\v2.41\pic\sources\c99\common\doprnt.c: 895:         fput
      +                          c(*cp, fp);
  5871                           ;stkvar	_fp @ sp[(-17)+-2]
  5872   0033E0  0EED               	movlw	-19
  5873   0033E2  CFE3 FFE6          	movff	plusw1,postinc1
  5874   0033E6  CFE3 FFE6          	movff	plusw1,postinc1
  5875                           
  5876                           ;stkvar	_cp @ sp[(-19)+11]
  5877   0033EA  0EF8               	movlw	-8
  5878   0033EC  CFE3 FFD9          	movff	plusw1,fsr2l
  5879   0033F0  0EF9               	movlw	-7
  5880   0033F2  CFE3 FFDA          	movff	plusw1,fsr2h
  5881   0033F6  50DF               	movf	indf2,w,c
  5882   0033F8  6EE6               	movwf	postinc1,c
  5883   0033FA  0E00               	movlw	0
  5884   0033FC  6EE6               	movwf	postinc1,c
  5885   0033FE  ECCC  F01E         	call	_fputc	;wreg free
  5886   003402                     
  5887                           ;C:\Program Files\Microchip\xc8\v2.41\pic\sources\c99\common\doprnt.c: 896:         ++cp
      +                          ;
  5888                           ;stkvar	_cp @ sp[(-17)+11]
  5889   003402  0EFA               	movlw	-6
  5890   003404  50E3               	movf	plusw1,w,c
  5891   003406  0F01               	addlw	1
  5892   003408  6E01               	movwf	btemp^0,c
  5893   00340A  0EFA               	movlw	-6
  5894   00340C  C001  FFE3         	movff	btemp,plusw1
  5895   003410  6A01               	clrf	btemp^0,c
  5896   003412  0EFB               	movlw	-5
  5897   003414  50E3               	movf	plusw1,w,c
  5898   003416  2001               	addwfc	btemp^0,w,c
  5899   003418  6E01               	movwf	btemp^0,c
  5900   00341A  0EFB               	movlw	-5
  5901   00341C  C001  FFE3         	movff	btemp,plusw1
  5902   003420                     
  5903                           ;C:\Program Files\Microchip\xc8\v2.41\pic\sources\c99\common\doprnt.c: 897:         ++i;
  5904                           ;stkvar	_i @ sp[(-17)+13]
  5905   003420  0EFC               	movlw	-4
  5906   003422  50E3               	movf	plusw1,w,c
  5907   003424  0F01               	addlw	1
  5908   003426  6E01               	movwf	btemp^0,c
  5909   003428  0EFC               	movlw	-4
  5910   00342A  C001  FFE3         	movff	btemp,plusw1
  5911   00342E  6A01               	clrf	btemp^0,c
  5912   003430  0EFD               	movlw	-3
  5913   003432  50E3               	movf	plusw1,w,c
  5914   003434  2001               	addwfc	btemp^0,w,c
  5915   003436  6E01               	movwf	btemp^0,c
  5916   003438  0EFD               	movlw	-3
  5917   00343A  C001  FFE3         	movff	btemp,plusw1
  5918   00343E                     l4238:
  5919                           
  5920                           ;C:\Program Files\Microchip\xc8\v2.41\pic\sources\c99\common\doprnt.c: 894:     while (i
      +                           < p) {
  5921                           ;stkvar	_p @ sp[(-17)+7]
  5922                           ;stkvar	_i @ sp[(-17)+13]
  5923   00343E  50E1               	movf	fsr1l,w,c
  5924   003440  0FFC               	addlw	-4
  5925   003442  6ED9               	movwf	fsr2l,c
  5926   003444  50E2               	movf	fsr1h,w,c
  5927   003446  6EDA               	movwf	fsr2h,c
  5928   003448  0EFF               	movlw	255
  5929   00344A  22DA               	addwfc	fsr2h,f,c
  5930   00344C  0EF6               	movlw	-10
  5931   00344E  50E3               	movf	plusw1,w,c
  5932   003450  5CDE               	subwf	postinc2,w,c
  5933   003452  50DE               	movf	postinc2,w,c
  5934   003454  0A80               	xorlw	128
  5935   003456  6E01               	movwf	btemp^0,c
  5936   003458  0EF7               	movlw	-9
  5937   00345A  50E3               	movf	plusw1,w,c
  5938   00345C  0A80               	xorlw	128
  5939   00345E  5801               	subwfb	btemp^0,w,c
  5940   003460  A0D8               	btfss	status,0,c
  5941   003462  EF35  F01A         	goto	u4301
  5942   003466  EF37  F01A         	goto	u4300
  5943   00346A                     u4301:
  5944   00346A  EFF0  F019         	goto	l4232
  5945   00346E                     u4300:
  5946   00346E                     
  5947                           ; _stoa: autosize = 17, savesize = 0, parsavesize = 0, tempsize = 0 parsize = 4, argsize
      +                           = 4, vargsize = 0
  5948   00346E  0EEB               	movlw	235
  5949   003470  26E1               	addwf	fsr1l,f,c
  5950   003472  0EFF               	movlw	255
  5951   003474  22E2               	addwfc	fsr1h,f,c
  5952   003476  0012               	return		;funcret
  5953   003478                     __end_of_stoa:
  5954                           	callstack 0
  5955                           
  5956 ;; *************** function _strlen *****************
  5957 ;; Defined at:
  5958 ;;		line 5 in file "C:\Program Files\Microchip\xc8\v2.41\pic\sources\c99\common\strlen.c"
  5959 ;; Parameters:    Size  Location     Type
  5960 ;;  s               2  [STACK] PTR const unsigned char 
  5961 ;;		 -> ?_printf(2), nuls(7), ?_sprintf(2), msg(33), 
  5962 ;; Auto vars:     Size  Location     Type
  5963 ;;  a               2  [STACK] PTR const unsigned char 
  5964 ;;		 -> ?_printf(2), nuls(7), ?_sprintf(2), msg(33), 
  5965 ;; Return value:  Size  Location     Type
  5966 ;;                  2  [STACK] unsigned int 
  5967 ;; Registers used:
  5968 ;;		wreg, fsr1l, fsr1h, fsr2l, fsr2h, status,2, status,0, btemp, btemp+1, btemp+10, btemp+11
  5969 ;; Tracked objects:
  5970 ;;		On entry : 0/F
  5971 ;;		On exit  : 0/0
  5972 ;;		Unchanged: 0/0
  5973 ;; Data sizes:     COMRAM   BANK0   BANK1   BANK2   BANK3   BANK4   BANK5   BANK6   BANK7   BANK8   BANK9  BANK10  BANK1
      +1  BANK12  BANK13  BANK14  BANK15
  5974 ;;      Params:         0       0       0       0       0       0       0       0       0       0       0       0       
      +0       0       0       0       0
  5975 ;;      Locals:         0       0       0       0       0       0       0       0       0       0       0       0       
      +0       0       0       0       0
  5976 ;;      Temps:          0       0       0       0       0       0       0       0       0       0       0       0       
      +0       0       0       0       0
  5977 ;;      Totals:         0       0       0       0       0       0       0       0       0       0       0       0       
      +0       0       0       0       0
  5978 ;;Total ram usage:        0 bytes
  5979 ;; Hardware stack levels used: 1
  5980 ;; Hardware stack levels required when called: 7
  5981 ;; This function calls:
  5982 ;;		Nothing
  5983 ;; This function is called by:
  5984 ;;		_stoa
  5985 ;; This function uses a reentrant model
  5986 ;;
  5987                           
  5988                           	psect	text28
  5989   004EDE                     __ptext28:
  5990                           	callstack 0
  5991   004EDE                     _strlen:
  5992                           	callstack 0
  5993                           
  5994                           ; autosize = 2, savesize = 0, parsavesize = 0, tempsize = 0 parsize = 2, argsize = 2 var
      +                          gsize = 0, retsize = 0 argfudge = 0
  5995   004EDE  52E6               	movf	postinc1,f,c
  5996   004EE0  52E6               	movf	postinc1,f,c
  5997   004EE2                     
  5998                           ;stkvar	_s @ sp[(-2)+-2]
  5999   004EE2  0EFC               	movlw	-4
  6000   004EE4  CFE3 F00B          	movff	plusw1,btemp+10
  6001   004EE8  0EFD               	movlw	-3
  6002   004EEA  CFE3 F00C          	movff	plusw1,btemp+11
  6003                           
  6004                           ;stkvar	_a @ sp[(-2)+0]
  6005   004EEE  0EFF               	movlw	-1
  6006   004EF0  C00C  FFE3         	movff	btemp+11,plusw1
  6007   004EF4  0EFE               	movlw	-2
  6008   004EF6  C00B  FFE3         	movff	btemp+10,plusw1
  6009   004EFA  EF8E  F027         	goto	l3962
  6010   004EFE                     l3960:
  6011                           
  6012                           ;stkvar	_s @ sp[(-2)+-2]
  6013   004EFE  0EFC               	movlw	-4
  6014   004F00  50E3               	movf	plusw1,w,c
  6015   004F02  0F01               	addlw	1
  6016   004F04  6E01               	movwf	btemp^0,c
  6017   004F06  0EFC               	movlw	-4
  6018   004F08  C001  FFE3         	movff	btemp,plusw1
  6019   004F0C  6A01               	clrf	btemp^0,c
  6020   004F0E  0EFD               	movlw	-3
  6021   004F10  50E3               	movf	plusw1,w,c
  6022   004F12  2001               	addwfc	btemp^0,w,c
  6023   004F14  6E01               	movwf	btemp^0,c
  6024   004F16  0EFD               	movlw	-3
  6025   004F18  C001  FFE3         	movff	btemp,plusw1
  6026   004F1C                     l3962:
  6027                           
  6028                           ;stkvar	_s @ sp[(-2)+-2]
  6029   004F1C  0EFC               	movlw	-4
  6030   004F1E  CFE3 FFD9          	movff	plusw1,fsr2l
  6031   004F22  0EFD               	movlw	-3
  6032   004F24  CFE3 FFDA          	movff	plusw1,fsr2h
  6033   004F28  50DF               	movf	indf2,w,c
  6034   004F2A  A4D8               	btfss	status,2,c
  6035   004F2C  EF9A  F027         	goto	u3921
  6036   004F30  EF9C  F027         	goto	u3920
  6037   004F34                     u3921:
  6038   004F34  EF7F  F027         	goto	l3960
  6039   004F38                     u3920:
  6040   004F38                     
  6041                           ;stkvar	_a @ sp[(-2)+0]
  6042                           ;stkvar	_s @ sp[(-2)+-2]
  6043   004F38  0EFC               	movlw	-4
  6044   004F3A  CFE3 F001          	movff	plusw1,btemp
  6045   004F3E  0EFD               	movlw	-3
  6046   004F40  CFE3 F002          	movff	plusw1,btemp+1
  6047   004F44  0EFE               	movlw	-2
  6048   004F46  50E3               	movf	plusw1,w,c
  6049   004F48  5E01               	subwf	btemp^0,f,c
  6050   004F4A  0EFF               	movlw	-1
  6051   004F4C  50E3               	movf	plusw1,w,c
  6052   004F4E  5A02               	subwfb	(btemp+1)^0,f,c
  6053   004F50                     
  6054                           ; _strlen: autosize = 2, savesize = 0, parsavesize = 0, tempsize = 0 parsize = 2, argsiz
      +                          e = 2, vargsize = 0
  6055   004F50  52E5               	movf	postdec1,f,c
  6056   004F52  52E5               	movf	postdec1,f,c
  6057   004F54  52E5               	movf	postdec1,f,c
  6058   004F56  52E5               	movf	postdec1,f,c
  6059   004F58  0012               	return		;funcret
  6060   004F5A                     __end_of_strlen:
  6061                           	callstack 0
  6062                           
  6063 ;; *************** function _read_prec_or_width *****************
  6064 ;; Defined at:
  6065 ;;		line 1029 in file "C:\Program Files\Microchip\xc8\v2.41\pic\sources\c99\common\doprnt.c"
  6066 ;; Parameters:    Size  Location     Type
  6067 ;;  fmt             2  [STACK] PTR PTR const unsigned c
  6068 ;;		 -> cfmt(2), 
  6069 ;;  ap              2  [STACK] PTR PTR void [1]
  6070 ;;		 -> ap(2), ap(2), 
  6071 ;; Auto vars:     Size  Location     Type
  6072 ;;  c               1  [STACK] unsigned char 
  6073 ;;  n               2  [STACK] int 
  6074 ;; Return value:  Size  Location     Type
  6075 ;;                  2  [STACK] int 
  6076 ;; Registers used:
  6077 ;;		wreg, fsr1l, fsr1h, fsr2l, fsr2h, status,2, status,0, btemp, btemp+1, btemp+8, btemp+9, btemp+10, btemp+11, tblptrl,
      + tblptrh, tblptru, prodl, prodh
  6078 ;; Tracked objects:
  6079 ;;		On entry : 0/F
  6080 ;;		On exit  : 0/0
  6081 ;;		Unchanged: 0/0
  6082 ;; Data sizes:     COMRAM   BANK0   BANK1   BANK2   BANK3   BANK4   BANK5   BANK6   BANK7   BANK8   BANK9  BANK10  BANK1
      +1  BANK12  BANK13  BANK14  BANK15
  6083 ;;      Params:         0       0       0       0       0       0       0       0       0       0       0       0       
      +0       0       0       0       0
  6084 ;;      Locals:         0       0       0       0       0       0       0       0       0       0       0       0       
      +0       0       0       0       0
  6085 ;;      Temps:          0       0       0       0       0       0       0       0       0       0       0       0       
      +0       0       0       0       0
  6086 ;;      Totals:         0       0       0       0       0       0       0       0       0       0       0       0       
      +0       0       0       0       0
  6087 ;;Total ram usage:        0 bytes
  6088 ;; Hardware stack levels used: 1
  6089 ;; Hardware stack levels required when called: 7
  6090 ;; This function calls:
  6091 ;;		Nothing
  6092 ;; This function is called by:
  6093 ;;		_vfpfcnvrt
  6094 ;; This function uses a reentrant model
  6095 ;;
  6096                           
  6097                           	psect	text29
  6098   003EC0                     __ptext29:
  6099                           	callstack 0
  6100   003EC0                     _read_prec_or_width:
  6101                           	callstack 0
  6102                           
  6103                           ; autosize = 3, savesize = 0, parsavesize = 0, tempsize = 0 parsize = 4, argsize = 4 var
      +                          gsize = 0, retsize = 0 argfudge = 0
  6104   003EC0  52E6               	movf	postinc1,f,c
  6105   003EC2  52E6               	movf	postinc1,f,c
  6106   003EC4  52E6               	movf	postinc1,f,c
  6107   003EC6                     
  6108                           ;C:\Program Files\Microchip\xc8\v2.41\pic\sources\c99\common\doprnt.c: 1030:     int n =
      +                           0;
  6109                           ;stkvar	_n @ sp[(-3)+1]
  6110   003EC6  0EFE               	movlw	-2
  6111   003EC8  6AE3               	clrf	plusw1,c
  6112   003ECA  0EFF               	movlw	-1
  6113   003ECC  6AE3               	clrf	plusw1,c
  6114   003ECE                     
  6115                           ;C:\Program Files\Microchip\xc8\v2.41\pic\sources\c99\common\doprnt.c: 1031:     if ((*f
      +                          mt)[0] == '*') {
  6116                           ;stkvar	_fmt @ sp[(-3)+-2]
  6117   003ECE  0EFB               	movlw	-5
  6118   003ED0  CFE3 FFD9          	movff	plusw1,fsr2l
  6119   003ED4  0EFC               	movlw	-4
  6120   003ED6  CFE3 FFDA          	movff	plusw1,fsr2h
  6121   003EDA  CFDE FFF6          	movff	postinc2,tblptrl
  6122   003EDE  CFDD FFF7          	movff	postdec2,tblptrh
  6123   003EE2                     	if	1	;Program memory is < 0x10000, tblptru is always zero
  6124   003EE2  6AF8               	clrf	tblptru,c
  6125   003EE4                     	endif
  6126   003EE4                     	if	0	;tblptru may be non-zero
  6127   003EE4                     	endif
  6128   003EE4  0008               	tblrd		*
  6129   003EE6  50F5               	movf	tablat,w,c
  6130   003EE8  0A2A               	xorlw	42
  6131   003EEA  A4D8               	btfss	status,2,c
  6132   003EEC  EF7A  F01F         	goto	u4311
  6133   003EF0  EF7C  F01F         	goto	u4310
  6134   003EF4                     u4311:
  6135   003EF4  EFC6  F01F         	goto	l4252
  6136   003EF8                     u4310:
  6137   003EF8                     
  6138                           ;C:\Program Files\Microchip\xc8\v2.41\pic\sources\c99\common\doprnt.c: 1032:         ++*
      +                          fmt;
  6139                           ;stkvar	_fmt @ sp[(-3)+-2]
  6140   003EF8  0EFB               	movlw	-5
  6141   003EFA  CFE3 FFD9          	movff	plusw1,fsr2l
  6142   003EFE  0EFC               	movlw	-4
  6143   003F00  CFE3 FFDA          	movff	plusw1,fsr2h
  6144   003F04  2ADE               	incf	postinc2,f,c
  6145   003F06  0E00               	movlw	0
  6146   003F08  22DD               	addwfc	postdec2,f,c
  6147   003F0A                     
  6148                           ;C:\Program Files\Microchip\xc8\v2.41\pic\sources\c99\common\doprnt.c: 1033:         n =
      +                           (*(int *)__va_arg(*(int **)*ap, (int)0));
  6149                           ;stkvar	_ap @ sp[(-3)+-4]
  6150   003F0A  0EF9               	movlw	-7
  6151   003F0C  CFE3 FFD9          	movff	plusw1,fsr2l
  6152   003F10  0EFA               	movlw	-6
  6153   003F12  CFE3 FFDA          	movff	plusw1,fsr2h
  6154   003F16  0E02               	movlw	2
  6155   003F18  5EDE               	subwf	postinc2,f,c
  6156   003F1A  0E00               	movlw	0
  6157   003F1C  5ADD               	subwfb	postdec2,f,c
  6158   003F1E  CFDE F00B          	movff	postinc2,btemp+10
  6159   003F22  CFDD F00C          	movff	postdec2,btemp+11
  6160   003F26  C00B  FFD9         	movff	btemp+10,fsr2l
  6161   003F2A  C00C  FFDA         	movff	btemp+11,fsr2h
  6162   003F2E  CFDE F00B          	movff	postinc2,btemp+10
  6163   003F32  CFDD F00C          	movff	postdec2,btemp+11
  6164                           
  6165                           ;stkvar	_n @ sp[(-3)+1]
  6166   003F36  0EFE               	movlw	-2
  6167   003F38  C00B  FFE3         	movff	btemp+10,plusw1
  6168   003F3C  0EFF               	movlw	-1
  6169   003F3E  C00C  FFE3         	movff	btemp+11,plusw1
  6170                           
  6171                           ;C:\Program Files\Microchip\xc8\v2.41\pic\sources\c99\common\doprnt.c: 1034:     } else 
      +                          {
  6172   003F42  EFE4  F01F         	goto	l4254
  6173   003F46                     l4248:
  6174                           
  6175                           ;C:\Program Files\Microchip\xc8\v2.41\pic\sources\c99\common\doprnt.c: 1037:            
      +                           n = n * 10 + c;
  6176                           ;stkvar	_n @ sp[(-3)+1]
  6177   003F46  0EFE               	movlw	-2
  6178   003F48  CFE3 F00B          	movff	plusw1,btemp+10
  6179   003F4C  0EFF               	movlw	-1
  6180   003F4E  CFE3 F00C          	movff	plusw1,btemp+11
  6181   003F52  0E0A               	movlw	10
  6182   003F54  020B               	mulwf	(btemp+10)^0,c
  6183   003F56  CFF3 F009          	movff	prodl,btemp+8
  6184   003F5A  CFF4 F00A          	movff	prodh,btemp+9
  6185   003F5E  020C               	mulwf	(btemp+11)^0,c
  6186   003F60  50F3               	movf	prodl,w,c
  6187   003F62  260A               	addwf	(btemp+9)^0,f,c
  6188                           
  6189                           ;stkvar	_c @ sp[(-3)+0]
  6190   003F64  0EFD               	movlw	-3
  6191   003F66  50E3               	movf	plusw1,w,c
  6192   003F68  2609               	addwf	(btemp+8)^0,f,c
  6193   003F6A  0E00               	movlw	0
  6194   003F6C  220A               	addwfc	(btemp+9)^0,f,c
  6195                           
  6196                           ;stkvar	_n @ sp[(-3)+1]
  6197   003F6E  0EFE               	movlw	-2
  6198   003F70  C009  FFE3         	movff	btemp+8,plusw1
  6199   003F74  0EFF               	movlw	-1
  6200   003F76  C00A  FFE3         	movff	btemp+9,plusw1
  6201   003F7A                     
  6202                           ;C:\Program Files\Microchip\xc8\v2.41\pic\sources\c99\common\doprnt.c: 1038:            
      +                           ++*fmt;
  6203                           ;stkvar	_fmt @ sp[(-3)+-2]
  6204   003F7A  0EFB               	movlw	-5
  6205   003F7C  CFE3 FFD9          	movff	plusw1,fsr2l
  6206   003F80  0EFC               	movlw	-4
  6207   003F82  CFE3 FFDA          	movff	plusw1,fsr2h
  6208   003F86  2ADE               	incf	postinc2,f,c
  6209   003F88  0E00               	movlw	0
  6210   003F8A  22DD               	addwfc	postdec2,f,c
  6211   003F8C                     l4252:
  6212                           
  6213                           ;C:\Program Files\Microchip\xc8\v2.41\pic\sources\c99\common\doprnt.c: 1036:         whi
      +                          le ((c = ((unsigned)(*fmt)[0]) - '0') < 10) {
  6214                           ;stkvar	_fmt @ sp[(-3)+-2]
  6215   003F8C  0EFB               	movlw	-5
  6216   003F8E  CFE3 FFD9          	movff	plusw1,fsr2l
  6217   003F92  0EFC               	movlw	-4
  6218   003F94  CFE3 FFDA          	movff	plusw1,fsr2h
  6219   003F98  CFDE FFF6          	movff	postinc2,tblptrl
  6220   003F9C  CFDD FFF7          	movff	postdec2,tblptrh
  6221   003FA0                     	if	1	;Program memory is < 0x10000, tblptru is always zero
  6222   003FA0  6AF8               	clrf	tblptru,c
  6223   003FA2                     	endif
  6224   003FA2                     	if	0	;tblptru may be non-zero
  6225   003FA2                     	endif
  6226   003FA2  0008               	tblrd		*
  6227   003FA4  CFF5 F00C          	movff	tablat,btemp+11
  6228   003FA8  0ED0               	movlw	208
  6229   003FAA  260C               	addwf	(btemp+11)^0,f,c
  6230                           
  6231                           ;stkvar	_c @ sp[(-3)+0]
  6232   003FAC  0EFD               	movlw	-3
  6233   003FAE  C00C  FFE3         	movff	btemp+11,plusw1
  6234   003FB2  0EFD               	movlw	-3
  6235   003FB4  CFE3 F001          	movff	plusw1,btemp
  6236   003FB8  0E09               	movlw	9
  6237   003FBA  6401               	cpfsgt	btemp^0,c
  6238   003FBC  EFE2  F01F         	goto	u4321
  6239   003FC0  EFE4  F01F         	goto	u4320
  6240   003FC4                     u4321:
  6241   003FC4  EFA3  F01F         	goto	l4248
  6242   003FC8                     u4320:
  6243   003FC8                     l4254:
  6244                           
  6245                           ;C:\Program Files\Microchip\xc8\v2.41\pic\sources\c99\common\doprnt.c: 1041:     return 
      +                          n;
  6246                           ;stkvar	_n @ sp[(-3)+1]
  6247   003FC8  0EFE               	movlw	-2
  6248   003FCA  CFE3 F001          	movff	plusw1,btemp
  6249   003FCE  0EFF               	movlw	-1
  6250   003FD0  CFE3 F002          	movff	plusw1,btemp+1
  6251   003FD4                     
  6252                           ; _read_prec_or_width: autosize = 3, savesize = 0, parsavesize = 0, tempsize = 0 parsize
      +                           = 4, argsize = 4, vargsize = 0
  6253   003FD4  0EF9               	movlw	249
  6254   003FD6  26E1               	addwf	fsr1l,f,c
  6255   003FD8  0EFF               	movlw	255
  6256   003FDA  22E2               	addwfc	fsr1h,f,c
  6257   003FDC  0012               	return		;funcret
  6258   003FDE                     __end_of_read_prec_or_width:
  6259                           	callstack 0
  6260                           
  6261 ;; *************** function _efgtoa *****************
  6262 ;; Defined at:
  6263 ;;		line 531 in file "C:\Program Files\Microchip\xc8\v2.41\pic\sources\c99\common\doprnt.c"
  6264 ;; Parameters:    Size  Location     Type
  6265 ;;  fp              2  [STACK] PTR struct _IO_FILE
  6266 ;;		 -> f(12), NULL(0), 
  6267 ;;  f               4  [STACK] PTR struct _IO_FILE
  6268 ;;  c               1  [STACK] unsigned char 
  6269 ;; Auto vars:     Size  Location     Type
  6270 ;;  u               4  [STACK] struct flui
  6271 ;;  g               4  [STACK] struct flui
  6272 ;;  l               4  [STACK] struct flui
  6273 ;;  h               4  [STACK] struct flui
  6274 ;;  ou              4  [STACK] struct flui
  6275 ;;  n               2  [STACK] int 
  6276 ;;  i               2  [STACK] int 
  6277 ;;  w               2  [STACK] int 
  6278 ;;  e               2  [STACK] int 
  6279 ;;  m               2  [STACK] int 
  6280 ;;  d               2  [STACK] int 
  6281 ;;  t               2  [STACK] int 
  6282 ;;  p               2  [STACK] int 
  6283 ;;  ne              2  [STACK] int 
  6284 ;;  sign            1  [STACK] unsigned char 
  6285 ;;  nmode           1  [STACK] unsigned char 
  6286 ;;  mode            1  [STACK] unsigned char 
  6287 ;;  pp              1  [STACK] unsigned char 
  6288 ;;  esign           1    0        unsigned char 
  6289 ;; Return value:  Size  Location     Type
  6290 ;;                  1  [STACK] void 
  6291 ;; Registers used:
  6292 ;;		wreg, fsr0l, fsr0h, fsr1l, fsr1h, fsr2l, fsr2h, status,2, status,0, btemp, btemp+1, btemp+2, btemp+3, btemp+4, btemp
      ++5, btemp+6, btemp+7, btemp+8, btemp+9, btemp+10, btemp+11, tblptrl, tblptrh, tblptru, prodl, prodh
  6293 ;; Tracked objects:
  6294 ;;		On entry : 0/F
  6295 ;;		On exit  : 0/0
  6296 ;;		Unchanged: 0/0
  6297 ;; Data sizes:     COMRAM   BANK0   BANK1   BANK2   BANK3   BANK4   BANK5   BANK6   BANK7   BANK8   BANK9  BANK10  BANK1
      +1  BANK12  BANK13  BANK14  BANK15
  6298 ;;      Params:         0       0       0       0       0       0       0       0       0       0       0       0       
      +0       0       0       0       0
  6299 ;;      Locals:         0       0       0       0       0       0       0       0       0       0       0       0       
      +0       0       0       0       0
  6300 ;;      Temps:          0       0       0       0       0       0       0       0       0       0       0       0       
      +0       0       0       0       0
  6301 ;;      Totals:         0       0       0       0       0       0       0       0       0       0       0       0       
      +0       0       0       0       0
  6302 ;;Total ram usage:        0 bytes
  6303 ;; Hardware stack levels used: 1
  6304 ;; Hardware stack levels required when called: 11
  6305 ;; This function calls:
  6306 ;;		___fladd
  6307 ;;		___fldiv
  6308 ;;		___fleq
  6309 ;;		___flge
  6310 ;;		___flmul
  6311 ;;		___flneg
  6312 ;;		___flsub
  6313 ;;		___fltol
  6314 ;;		___fpclassifyf
  6315 ;;		_floorf
  6316 ;;		_labs
  6317 ;;		_memcpy
  6318 ;;		_pad
  6319 ;;		_strcpy
  6320 ;; This function is called by:
  6321 ;;		_vfpfcnvrt
  6322 ;; This function uses a reentrant model
  6323 ;;
  6324                           
  6325                           	psect	text30
  6326   000164                     __ptext30:
  6327                           	callstack 0
  6328   000164                     _efgtoa:
  6329                           	callstack 0
  6330                           
  6331                           ; autosize = 44, savesize = 0, parsavesize = 0, tempsize = 0 parsize = 7, argsize = 7 va
      +                          rgsize = 0, retsize = 0 argfudge = 0
  6332   000164  0E2C               	movlw	44
  6333   000166  26E1               	addwf	fsr1l,f,c
  6334   000168  0E00               	movlw	0
  6335   00016A  22E2               	addwfc	fsr1h,f,c
  6336   00016C                     
  6337                           ;C:\Program Files\Microchip\xc8\v2.41\pic\sources\c99\common\doprnt.c: 531: static void 
      +                          efgtoa(FILE *fp, long double f, char c);C:\Program Files\Microchip\xc8\v2.41\pic\sources
      +                          \c99\common\doprnt.c: 532: {;C:\Program Files\Microchip\xc8\v2.41\pic\sources\c99\common
      +                          \doprnt.c: 533:     char mode, nmode, pp, sign, esign;;C:\Program Files\Microchip\xc8\v2
      +                          .41\pic\sources\c99\common\doprnt.c: 534:     int d, e, i, m, n, ne, p, t, w;;C:\Program
      +                           Files\Microchip\xc8\v2.41\pic\sources\c99\common\doprnt.c: 535:     long double h, l;
  6338                           ;stkvar	_sign @ sp[(-44)+40]
  6339   00016C  0EFC               	movlw	-4
  6340   00016E  6AE3               	clrf	plusw1,c
  6341   000170                     
  6342                           ;C:\Program Files\Microchip\xc8\v2.41\pic\sources\c99\common\doprnt.c: 540:     g.f = f;
  6343                           ;stkvar	_f @ sp[(-44)+-6]
  6344   000170  0ECE               	movlw	-50
  6345   000172  CFE3 F009          	movff	plusw1,btemp+8
  6346   000176  0ECF               	movlw	-49
  6347   000178  CFE3 F00A          	movff	plusw1,btemp+9
  6348   00017C  0ED0               	movlw	-48
  6349   00017E  CFE3 F00B          	movff	plusw1,btemp+10
  6350   000182  0ED1               	movlw	-47
  6351   000184  CFE3 F00C          	movff	plusw1,btemp+11
  6352                           
  6353                           ;stkvar	_g @ sp[(-44)+6]
  6354   000188  0EDA               	movlw	-38
  6355   00018A  C009  FFE3         	movff	btemp+8,plusw1
  6356   00018E  0EDB               	movlw	-37
  6357   000190  C00A  FFE3         	movff	btemp+9,plusw1
  6358   000194  0EDC               	movlw	-36
  6359   000196  C00B  FFE3         	movff	btemp+10,plusw1
  6360   00019A  0EDD               	movlw	-35
  6361   00019C  C00C  FFE3         	movff	btemp+11,plusw1
  6362   0001A0                     
  6363                           ;C:\Program Files\Microchip\xc8\v2.41\pic\sources\c99\common\doprnt.c: 541:     if (g.f 
      +                          < 0.0) {
  6364                           ;stkvar	_g @ sp[(-44)+6]
  6365   0001A0  0EDD               	movlw	-35
  6366   0001A2  BEE3               	btfsc	plusw1,7,c
  6367   0001A4  EFD8  F000         	goto	u3930
  6368   0001A8  EFD6  F000         	goto	u3931
  6369   0001AC                     u3931:
  6370   0001AC  EFF2  F000         	goto	l3978
  6371   0001B0                     u3930:
  6372   0001B0                     
  6373                           ;C:\Program Files\Microchip\xc8\v2.41\pic\sources\c99\common\doprnt.c: 542:         sign
      +                           = 1;
  6374                           ;stkvar	_sign @ sp[(-44)+40]
  6375   0001B0  0EFC               	movlw	-4
  6376   0001B2  6AE3               	clrf	plusw1,c
  6377   0001B4  2AE3               	incf	plusw1,f,c
  6378   0001B6                     
  6379                           ;C:\Program Files\Microchip\xc8\v2.41\pic\sources\c99\common\doprnt.c: 543:         g.f 
      +                          = -g.f;
  6380                           ;stkvar	_g @ sp[(-44)+6]
  6381   0001B6  0EDA               	movlw	-38
  6382   0001B8  CFE3 FFE6          	movff	plusw1,postinc1
  6383   0001BC  CFE3 FFE6          	movff	plusw1,postinc1
  6384   0001C0  CFE3 FFE6          	movff	plusw1,postinc1
  6385   0001C4  CFE3 FFE6          	movff	plusw1,postinc1
  6386   0001C8  ECF7  F028         	call	___flneg	;wreg free
  6387                           
  6388                           ;stkvar	_g @ sp[(-44)+6]
  6389   0001CC  0EDA               	movlw	-38
  6390   0001CE  C001  FFE3         	movff	btemp,plusw1
  6391   0001D2  0EDB               	movlw	-37
  6392   0001D4  C002  FFE3         	movff	btemp+1,plusw1
  6393   0001D8  0EDC               	movlw	-36
  6394   0001DA  C003  FFE3         	movff	btemp+2,plusw1
  6395   0001DE  0EDD               	movlw	-35
  6396   0001E0  C004  FFE3         	movff	btemp+3,plusw1
  6397   0001E4                     l3978:
  6398                           
  6399                           ;C:\Program Files\Microchip\xc8\v2.41\pic\sources\c99\common\doprnt.c: 547:     n = 0;
  6400                           ;stkvar	_n @ sp[(-44)+22]
  6401   0001E4  0EEA               	movlw	-22
  6402   0001E6  6AE3               	clrf	plusw1,c
  6403   0001E8  0EEB               	movlw	-21
  6404   0001EA  6AE3               	clrf	plusw1,c
  6405   0001EC                     
  6406                           ;C:\Program Files\Microchip\xc8\v2.41\pic\sources\c99\common\doprnt.c: 548:     w = widt
      +                          h;
  6407                           ;stkvar	_w @ sp[(-44)+26]
  6408   0001EC  0EEE               	movlw	-18
  6409   0001EE  C035  FFE3         	movff	_width,plusw1
  6410   0001F2  0EEF               	movlw	-17
  6411   0001F4  C036  FFE3         	movff	_width+1,plusw1
  6412   0001F8                     
  6413                           ;C:\Program Files\Microchip\xc8\v2.41\pic\sources\c99\common\doprnt.c: 549:     if (sign
  6414                           ;stkvar	_sign @ sp[(-44)+40]
  6415   0001F8  0EFC               	movlw	-4
  6416   0001FA  50E3               	movf	plusw1,w,c
  6417   0001FC  B4D8               	btfsc	status,2,c
  6418   0001FE  EF03  F001         	goto	u3941
  6419   000202  EF05  F001         	goto	u3940
  6420   000206                     u3941:
  6421   000206  EF2A  F001         	goto	l3992
  6422   00020A                     u3940:
  6423   00020A                     
  6424                           ;C:\Program Files\Microchip\xc8\v2.41\pic\sources\c99\common\doprnt.c: 553:    ) {;C:\Pr
      +                          ogram Files\Microchip\xc8\v2.41\pic\sources\c99\common\doprnt.c: 554:   sign = sign ? '-
      +                          ' : '+';
  6425                           ;stkvar	_sign @ sp[(-44)+40]
  6426   00020A  0EFC               	movlw	-4
  6427   00020C  50E3               	movf	plusw1,w,c
  6428   00020E  A4D8               	btfss	status,2,c
  6429   000210  EF0C  F001         	goto	u3951
  6430   000214  EF0E  F001         	goto	u3950
  6431   000218                     u3951:
  6432   000218  EF1A  F001         	goto	l3988
  6433   00021C                     u3950:
  6434   00021C  0E2B               	movlw	43
  6435   00021E  6E0B               	movwf	(btemp+10)^0,c
  6436   000220  0E00               	movlw	0
  6437   000222  6E0C               	movwf	(btemp+11)^0,c
  6438                           
  6439                           ;stkvar	_efgtoa$2535 @ sp[(-44)+0]
  6440   000224  0ED4               	movlw	-44
  6441   000226  C00B  FFE3         	movff	btemp+10,plusw1
  6442   00022A  0ED5               	movlw	-43
  6443   00022C  C00C  FFE3         	movff	btemp+11,plusw1
  6444   000230  EF24  F001         	goto	l3990
  6445   000234                     l3988:
  6446   000234  0E2D               	movlw	45
  6447   000236  6E0B               	movwf	(btemp+10)^0,c
  6448   000238  0E00               	movlw	0
  6449   00023A  6E0C               	movwf	(btemp+11)^0,c
  6450                           
  6451                           ;stkvar	_efgtoa$2535 @ sp[(-44)+0]
  6452   00023C  0ED4               	movlw	-44
  6453   00023E  C00B  FFE3         	movff	btemp+10,plusw1
  6454   000242  0ED5               	movlw	-43
  6455   000244  C00C  FFE3         	movff	btemp+11,plusw1
  6456   000248                     l3990:
  6457                           
  6458                           ;stkvar	_efgtoa$2535 @ sp[(-44)+0]
  6459                           ;stkvar	_sign @ sp[(-44)+40]
  6460   000248  0ED4               	movlw	-44
  6461   00024A  CFE3 F001          	movff	plusw1,btemp
  6462   00024E  0EFC               	movlw	-4
  6463   000250  C001  FFE3         	movff	btemp,plusw1
  6464   000254                     l3992:
  6465                           
  6466                           ;C:\Program Files\Microchip\xc8\v2.41\pic\sources\c99\common\doprnt.c: 563:     if (( __
      +                          fpclassifyf(g.f) == 1 )) {
  6467                           ;stkvar	_g @ sp[(-44)+6]
  6468   000254  0EDA               	movlw	-38
  6469   000256  CFE3 FFE6          	movff	plusw1,postinc1
  6470   00025A  CFE3 FFE6          	movff	plusw1,postinc1
  6471   00025E  CFE3 FFE6          	movff	plusw1,postinc1
  6472   000262  CFE3 FFE6          	movff	plusw1,postinc1
  6473   000266  EC00  F01C         	call	___fpclassifyf	;wreg free
  6474   00026A  0401               	decf	btemp^0,w,c
  6475   00026C  1002               	iorwf	(btemp+1)^0,w,c
  6476   00026E  A4D8               	btfss	status,2,c
  6477   000270  EF3C  F001         	goto	u3961
  6478   000274  EF3E  F001         	goto	u3960
  6479   000278                     u3961:
  6480   000278  EF8F  F001         	goto	l4010
  6481   00027C                     u3960:
  6482   00027C                     
  6483                           ;C:\Program Files\Microchip\xc8\v2.41\pic\sources\c99\common\doprnt.c: 564:   if (sign) 
      +                          {
  6484                           ;stkvar	_sign @ sp[(-44)+40]
  6485   00027C  0EFC               	movlw	-4
  6486   00027E  50E3               	movf	plusw1,w,c
  6487   000280  B4D8               	btfsc	status,2,c
  6488   000282  EF45  F001         	goto	u3971
  6489   000286  EF47  F001         	goto	u3970
  6490   00028A                     u3971:
  6491   00028A  EF5E  F001         	goto	l4002
  6492   00028E                     u3970:
  6493   00028E                     
  6494                           ;C:\Program Files\Microchip\xc8\v2.41\pic\sources\c99\common\doprnt.c: 565:    dbuf[0] =
      +                           sign;
  6495                           ;stkvar	_sign @ sp[(-44)+40]
  6496   00028E  0EFC               	movlw	-4
  6497   000290  CFE3 F060          	movff	plusw1,_dbuf
  6498   000294                     
  6499                           ;C:\Program Files\Microchip\xc8\v2.41\pic\sources\c99\common\doprnt.c: 566:    w--;
  6500                           ;stkvar	_w @ sp[(-44)+26]
  6501   000294  50E1               	movf	fsr1l,w,c
  6502   000296  0FEE               	addlw	-18
  6503   000298  6ED9               	movwf	fsr2l,c
  6504   00029A  50E2               	movf	fsr1h,w,c
  6505   00029C  6EDA               	movwf	fsr2h,c
  6506   00029E  0EFF               	movlw	255
  6507   0002A0  22DA               	addwfc	fsr2h,f,c
  6508   0002A2  06DE               	decf	postinc2,f,c
  6509   0002A4  0E00               	movlw	0
  6510   0002A6  5ADD               	subwfb	postdec2,f,c
  6511   0002A8                     
  6512                           ;C:\Program Files\Microchip\xc8\v2.41\pic\sources\c99\common\doprnt.c: 567:    n = 1;
  6513   0002A8  0E01               	movlw	1
  6514   0002AA  6E0B               	movwf	(btemp+10)^0,c
  6515   0002AC  0E00               	movlw	0
  6516   0002AE  6E0C               	movwf	(btemp+11)^0,c
  6517                           
  6518                           ;stkvar	_n @ sp[(-44)+22]
  6519   0002B0  0EEA               	movlw	-22
  6520   0002B2  C00B  FFE3         	movff	btemp+10,plusw1
  6521   0002B6  0EEB               	movlw	-21
  6522   0002B8  C00C  FFE3         	movff	btemp+11,plusw1
  6523   0002BC                     l4002:
  6524                           
  6525                           ;C:\Program Files\Microchip\xc8\v2.41\pic\sources\c99\common\doprnt.c: 575:   {;C:\Progr
      +                          am Files\Microchip\xc8\v2.41\pic\sources\c99\common\doprnt.c: 576:             strcpy(&d
      +                          buf[n], "inf");
  6526   0002BC  0EF3               	movlw	low STR_25
  6527   0002BE  6EE6               	movwf	postinc1,c
  6528   0002C0  0EFF               	movlw	high STR_25
  6529   0002C2  6EE6               	movwf	postinc1,c
  6530                           
  6531                           ;stkvar	_n @ sp[(-46)+22]
  6532   0002C4  0E60               	movlw	low _dbuf
  6533   0002C6  6E0B               	movwf	(btemp+10)^0,c
  6534   0002C8  0E00               	movlw	high _dbuf
  6535   0002CA  6E0C               	movwf	(btemp+11)^0,c
  6536   0002CC  0EE8               	movlw	-24
  6537   0002CE  50E3               	movf	plusw1,w,c
  6538   0002D0  260B               	addwf	(btemp+10)^0,f,c
  6539   0002D2  0EE9               	movlw	-23
  6540   0002D4  50E3               	movf	plusw1,w,c
  6541   0002D6  220C               	addwfc	(btemp+11)^0,f,c
  6542   0002D8  C00B  FFE6         	movff	btemp+10,postinc1
  6543   0002DC  C00C  FFE6         	movff	btemp+11,postinc1
  6544   0002E0  EC43  F026         	call	_strcpy	;wreg free
  6545   0002E4                     l4004:
  6546                           
  6547                           ;C:\Program Files\Microchip\xc8\v2.41\pic\sources\c99\common\doprnt.c: 577:         };C:
      +                          \Program Files\Microchip\xc8\v2.41\pic\sources\c99\common\doprnt.c: 578:         w -= ((
      +                          sizeof("inf")/sizeof("inf"[0]))-1);
  6548                           ;stkvar	_w @ sp[(-44)+26]
  6549   0002E4  50E1               	movf	fsr1l,w,c
  6550   0002E6  0FEE               	addlw	-18
  6551   0002E8  6ED9               	movwf	fsr2l,c
  6552   0002EA  50E2               	movf	fsr1h,w,c
  6553   0002EC  6EDA               	movwf	fsr2h,c
  6554   0002EE  0EFF               	movlw	255
  6555   0002F0  22DA               	addwfc	fsr2h,f,c
  6556   0002F2  0EFD               	movlw	253
  6557   0002F4  26DE               	addwf	postinc2,f,c
  6558   0002F6  0EFF               	movlw	255
  6559   0002F8  22DD               	addwfc	postdec2,f,c
  6560   0002FA                     
  6561                           ;C:\Program Files\Microchip\xc8\v2.41\pic\sources\c99\common\doprnt.c: 579:         retu
      +                          rn (void) pad(fp, &dbuf[0], w);
  6562                           ;stkvar	_w @ sp[(-44)+26]
  6563   0002FA  0EEE               	movlw	-18
  6564   0002FC  CFE3 FFE6          	movff	plusw1,postinc1
  6565   000300  CFE3 FFE6          	movff	plusw1,postinc1
  6566   000304  0E60               	movlw	low _dbuf
  6567   000306  6EE6               	movwf	postinc1,c
  6568   000308  0E00               	movlw	high _dbuf
  6569   00030A  6EE6               	movwf	postinc1,c
  6570                           
  6571                           ;stkvar	_fp @ sp[(-48)+-2]
  6572   00030C  0ECE               	movlw	-50
  6573   00030E  CFE3 FFE6          	movff	plusw1,postinc1
  6574   000312  CFE3 FFE6          	movff	plusw1,postinc1
  6575   000316  EC63  F024         	call	_pad	;wreg free
  6576   00031A  EF72  F008         	goto	l1130
  6577   00031E                     l4010:
  6578                           
  6579                           ;C:\Program Files\Microchip\xc8\v2.41\pic\sources\c99\common\doprnt.c: 581:     if (( __
      +                          fpclassifyf(g.f) == 0 )) {
  6580                           ;stkvar	_g @ sp[(-44)+6]
  6581   00031E  0EDA               	movlw	-38
  6582   000320  CFE3 FFE6          	movff	plusw1,postinc1
  6583   000324  CFE3 FFE6          	movff	plusw1,postinc1
  6584   000328  CFE3 FFE6          	movff	plusw1,postinc1
  6585   00032C  CFE3 FFE6          	movff	plusw1,postinc1
  6586   000330  EC00  F01C         	call	___fpclassifyf	;wreg free
  6587   000334  5001               	movf	btemp^0,w,c
  6588   000336  1002               	iorwf	(btemp+1)^0,w,c
  6589   000338  A4D8               	btfss	status,2,c
  6590   00033A  EFA1  F001         	goto	u3981
  6591   00033E  EFA3  F001         	goto	u3980
  6592   000342                     u3981:
  6593   000342  EFD9  F001         	goto	l4028
  6594   000346                     u3980:
  6595   000346                     
  6596                           ;C:\Program Files\Microchip\xc8\v2.41\pic\sources\c99\common\doprnt.c: 582:   if (sign) 
      +                          {
  6597                           ;stkvar	_sign @ sp[(-44)+40]
  6598   000346  0EFC               	movlw	-4
  6599   000348  50E3               	movf	plusw1,w,c
  6600   00034A  B4D8               	btfsc	status,2,c
  6601   00034C  EFAA  F001         	goto	u3991
  6602   000350  EFAC  F001         	goto	u3990
  6603   000354                     u3991:
  6604   000354  EFC3  F001         	goto	l4020
  6605   000358                     u3990:
  6606   000358                     
  6607                           ;C:\Program Files\Microchip\xc8\v2.41\pic\sources\c99\common\doprnt.c: 583:    dbuf[0] =
      +                           sign;
  6608                           ;stkvar	_sign @ sp[(-44)+40]
  6609   000358  0EFC               	movlw	-4
  6610   00035A  CFE3 F060          	movff	plusw1,_dbuf
  6611   00035E                     
  6612                           ;C:\Program Files\Microchip\xc8\v2.41\pic\sources\c99\common\doprnt.c: 584:    w--;
  6613                           ;stkvar	_w @ sp[(-44)+26]
  6614   00035E  50E1               	movf	fsr1l,w,c
  6615   000360  0FEE               	addlw	-18
  6616   000362  6ED9               	movwf	fsr2l,c
  6617   000364  50E2               	movf	fsr1h,w,c
  6618   000366  6EDA               	movwf	fsr2h,c
  6619   000368  0EFF               	movlw	255
  6620   00036A  22DA               	addwfc	fsr2h,f,c
  6621   00036C  06DE               	decf	postinc2,f,c
  6622   00036E  0E00               	movlw	0
  6623   000370  5ADD               	subwfb	postdec2,f,c
  6624   000372                     
  6625                           ;C:\Program Files\Microchip\xc8\v2.41\pic\sources\c99\common\doprnt.c: 585:    n = 1;
  6626   000372  0E01               	movlw	1
  6627   000374  6E0B               	movwf	(btemp+10)^0,c
  6628   000376  0E00               	movlw	0
  6629   000378  6E0C               	movwf	(btemp+11)^0,c
  6630                           
  6631                           ;stkvar	_n @ sp[(-44)+22]
  6632   00037A  0EEA               	movlw	-22
  6633   00037C  C00B  FFE3         	movff	btemp+10,plusw1
  6634   000380  0EEB               	movlw	-21
  6635   000382  C00C  FFE3         	movff	btemp+11,plusw1
  6636   000386                     l4020:
  6637                           
  6638                           ;C:\Program Files\Microchip\xc8\v2.41\pic\sources\c99\common\doprnt.c: 593:   {;C:\Progr
      +                          am Files\Microchip\xc8\v2.41\pic\sources\c99\common\doprnt.c: 594:             strcpy(&d
      +                          buf[n], "nan");
  6639   000386  0EF7               	movlw	low STR_28
  6640   000388  6EE6               	movwf	postinc1,c
  6641   00038A  0EFF               	movlw	high STR_28
  6642   00038C  6EE6               	movwf	postinc1,c
  6643                           
  6644                           ;stkvar	_n @ sp[(-46)+22]
  6645   00038E  0E60               	movlw	low _dbuf
  6646   000390  6E0B               	movwf	(btemp+10)^0,c
  6647   000392  0E00               	movlw	high _dbuf
  6648   000394  6E0C               	movwf	(btemp+11)^0,c
  6649   000396  0EE8               	movlw	-24
  6650   000398  50E3               	movf	plusw1,w,c
  6651   00039A  260B               	addwf	(btemp+10)^0,f,c
  6652   00039C  0EE9               	movlw	-23
  6653   00039E  50E3               	movf	plusw1,w,c
  6654   0003A0  220C               	addwfc	(btemp+11)^0,f,c
  6655   0003A2  C00B  FFE6         	movff	btemp+10,postinc1
  6656   0003A6  C00C  FFE6         	movff	btemp+11,postinc1
  6657   0003AA  EC43  F026         	call	_strcpy	;wreg free
  6658   0003AE  EF72  F001         	goto	l4004
  6659   0003B2                     l4028:
  6660                           
  6661                           ;C:\Program Files\Microchip\xc8\v2.41\pic\sources\c99\common\doprnt.c: 601:     u.f = 1.
      +                          0;
  6662   0003B2  0E00               	movlw	0
  6663   0003B4  6E09               	movwf	(btemp+8)^0,c
  6664   0003B6  0E00               	movlw	0
  6665   0003B8  6E0A               	movwf	(btemp+9)^0,c
  6666   0003BA  0E80               	movlw	128
  6667   0003BC  6E0B               	movwf	(btemp+10)^0,c
  6668   0003BE  0E3F               	movlw	63
  6669   0003C0  6E0C               	movwf	(btemp+11)^0,c
  6670                           
  6671                           ;stkvar	_u @ sp[(-44)+2]
  6672   0003C2  0ED6               	movlw	-42
  6673   0003C4  C009  FFE3         	movff	btemp+8,plusw1
  6674   0003C8  0ED7               	movlw	-41
  6675   0003CA  C00A  FFE3         	movff	btemp+9,plusw1
  6676   0003CE  0ED8               	movlw	-40
  6677   0003D0  C00B  FFE3         	movff	btemp+10,plusw1
  6678   0003D4  0ED9               	movlw	-39
  6679   0003D6  C00C  FFE3         	movff	btemp+11,plusw1
  6680   0003DA                     
  6681                           ;C:\Program Files\Microchip\xc8\v2.41\pic\sources\c99\common\doprnt.c: 602:     e = 0;
  6682                           ;stkvar	_e @ sp[(-44)+28]
  6683   0003DA  0EF0               	movlw	-16
  6684   0003DC  6AE3               	clrf	plusw1,c
  6685   0003DE  0EF1               	movlw	-15
  6686   0003E0  6AE3               	clrf	plusw1,c
  6687   0003E2                     
  6688                           ;C:\Program Files\Microchip\xc8\v2.41\pic\sources\c99\common\doprnt.c: 603:  if (!(g.f =
      +                          = 0.0)) {
  6689   0003E2  0E00               	movlw	0
  6690   0003E4  6EE6               	movwf	postinc1,c
  6691   0003E6  0E00               	movlw	0
  6692   0003E8  6EE6               	movwf	postinc1,c
  6693   0003EA  0E00               	movlw	0
  6694   0003EC  6EE6               	movwf	postinc1,c
  6695   0003EE  0E00               	movlw	0
  6696   0003F0  6EE6               	movwf	postinc1,c
  6697                           
  6698                           ;stkvar	_g @ sp[(-48)+6]
  6699   0003F2  0ED6               	movlw	-42
  6700   0003F4  CFE3 FFE6          	movff	plusw1,postinc1
  6701   0003F8  CFE3 FFE6          	movff	plusw1,postinc1
  6702   0003FC  CFE3 FFE6          	movff	plusw1,postinc1
  6703   000400  CFE3 FFE6          	movff	plusw1,postinc1
  6704   000404  ECF9  F020         	call	___fleq	;wreg free
  6705   000408  B001               	btfsc	btemp& (0+255),0,c
  6706   00040A  EF09  F002         	goto	u4001
  6707   00040E  EF0B  F002         	goto	u4000
  6708   000412                     u4001:
  6709   000412  EF64  F003         	goto	l4060
  6710   000416                     u4000:
  6711   000416  EF34  F002         	goto	l4040
  6712   00041A                     l4036:
  6713                           
  6714                           ;C:\Program Files\Microchip\xc8\v2.41\pic\sources\c99\common\doprnt.c: 605:    u = ou;
  6715                           ;stkvar	_ou @ sp[(-44)+18]
  6716   00041A  0EE6               	movlw	-26
  6717   00041C  CFE3 F009          	movff	plusw1,btemp+8
  6718   000420  0EE7               	movlw	-25
  6719   000422  CFE3 F00A          	movff	plusw1,btemp+9
  6720   000426  0EE8               	movlw	-24
  6721   000428  CFE3 F00B          	movff	plusw1,btemp+10
  6722   00042C  0EE9               	movlw	-23
  6723   00042E  CFE3 F00C          	movff	plusw1,btemp+11
  6724                           
  6725                           ;stkvar	_u @ sp[(-44)+2]
  6726   000432  0ED6               	movlw	-42
  6727   000434  C009  FFE3         	movff	btemp+8,plusw1
  6728   000438  0ED7               	movlw	-41
  6729   00043A  C00A  FFE3         	movff	btemp+9,plusw1
  6730   00043E  0ED8               	movlw	-40
  6731   000440  C00B  FFE3         	movff	btemp+10,plusw1
  6732   000444  0ED9               	movlw	-39
  6733   000446  C00C  FFE3         	movff	btemp+11,plusw1
  6734   00044A                     
  6735                           ;C:\Program Files\Microchip\xc8\v2.41\pic\sources\c99\common\doprnt.c: 606:    ++e;
  6736                           ;stkvar	_e @ sp[(-44)+28]
  6737   00044A  0EF0               	movlw	-16
  6738   00044C  50E3               	movf	plusw1,w,c
  6739   00044E  0F01               	addlw	1
  6740   000450  6E01               	movwf	btemp^0,c
  6741   000452  0EF0               	movlw	-16
  6742   000454  C001  FFE3         	movff	btemp,plusw1
  6743   000458  6A01               	clrf	btemp^0,c
  6744   00045A  0EF1               	movlw	-15
  6745   00045C  50E3               	movf	plusw1,w,c
  6746   00045E  2001               	addwfc	btemp^0,w,c
  6747   000460  6E01               	movwf	btemp^0,c
  6748   000462  0EF1               	movlw	-15
  6749   000464  C001  FFE3         	movff	btemp,plusw1
  6750   000468                     l4040:
  6751                           
  6752                           ;C:\Program Files\Microchip\xc8\v2.41\pic\sources\c99\common\doprnt.c: 604:   while ((la
      +                          bs((g).u-((ou.f = u.f*10.0,ou)).u) <= 1) || g.f > ou.f) {
  6753   000468  0E00               	movlw	0
  6754   00046A  6EE6               	movwf	postinc1,c
  6755   00046C  0E00               	movlw	0
  6756   00046E  6EE6               	movwf	postinc1,c
  6757   000470  0E20               	movlw	32
  6758   000472  6EE6               	movwf	postinc1,c
  6759   000474  0E41               	movlw	65
  6760   000476  6EE6               	movwf	postinc1,c
  6761                           
  6762                           ;stkvar	_u @ sp[(-48)+2]
  6763   000478  0ED2               	movlw	-46
  6764   00047A  CFE3 FFE6          	movff	plusw1,postinc1
  6765   00047E  CFE3 FFE6          	movff	plusw1,postinc1
  6766   000482  CFE3 FFE6          	movff	plusw1,postinc1
  6767   000486  CFE3 FFE6          	movff	plusw1,postinc1
  6768   00048A  ECE9  F00C         	call	___flmul	;wreg free
  6769                           
  6770                           ;stkvar	_ou @ sp[(-44)+18]
  6771   00048E  0EE6               	movlw	-26
  6772   000490  C001  FFE3         	movff	btemp,plusw1
  6773   000494  0EE7               	movlw	-25
  6774   000496  C002  FFE3         	movff	btemp+1,plusw1
  6775   00049A  0EE8               	movlw	-24
  6776   00049C  C003  FFE3         	movff	btemp+2,plusw1
  6777   0004A0  0EE9               	movlw	-23
  6778   0004A2  C004  FFE3         	movff	btemp+3,plusw1
  6779   0004A6                     
  6780                           ;stkvar	_ou @ sp[(-44)+18]
  6781                           ;stkvar	_g @ sp[(-44)+6]
  6782   0004A6  0EDA               	movlw	-38
  6783   0004A8  CFE3 F009          	movff	plusw1,btemp+8
  6784   0004AC  0EDB               	movlw	-37
  6785   0004AE  CFE3 F00A          	movff	plusw1,btemp+9
  6786   0004B2  0EDC               	movlw	-36
  6787   0004B4  CFE3 F00B          	movff	plusw1,btemp+10
  6788   0004B8  0EDD               	movlw	-35
  6789   0004BA  CFE3 F00C          	movff	plusw1,btemp+11
  6790   0004BE  0EE6               	movlw	-26
  6791   0004C0  50E3               	movf	plusw1,w,c
  6792   0004C2  5E09               	subwf	(btemp+8)^0,f,c
  6793   0004C4  0EE7               	movlw	-25
  6794   0004C6  50E3               	movf	plusw1,w,c
  6795   0004C8  5A0A               	subwfb	(btemp+9)^0,f,c
  6796   0004CA  0EE8               	movlw	-24
  6797   0004CC  50E3               	movf	plusw1,w,c
  6798   0004CE  5A0B               	subwfb	(btemp+10)^0,f,c
  6799   0004D0  0EE9               	movlw	-23
  6800   0004D2  50E3               	movf	plusw1,w,c
  6801   0004D4  5A0C               	subwfb	(btemp+11)^0,f,c
  6802   0004D6  C009  FFE6         	movff	btemp+8,postinc1
  6803   0004DA  C00A  FFE6         	movff	btemp+9,postinc1
  6804   0004DE  C00B  FFE6         	movff	btemp+10,postinc1
  6805   0004E2  C00C  FFE6         	movff	btemp+11,postinc1
  6806   0004E6  ECAD  F027         	call	_labs	;wreg free
  6807   0004EA  BE04               	btfsc	(btemp+3)^0,7,c
  6808   0004EC  EF83  F002         	goto	u4011
  6809   0004F0  5004               	movf	(btemp+3)^0,w,c
  6810   0004F2  1003               	iorwf	(btemp+2)^0,w,c
  6811   0004F4  1002               	iorwf	(btemp+1)^0,w,c
  6812   0004F6  E109               	bnz	u4010
  6813   0004F8  0E02               	movlw	2
  6814   0004FA  5C01               	subwf	btemp^0,w,c
  6815   0004FC  A0D8               	btfss	status,0,c
  6816   0004FE  EF83  F002         	goto	u4011
  6817   000502  EF85  F002         	goto	u4010
  6818   000506                     u4011:
  6819   000506  EF0D  F002         	goto	l4036
  6820   00050A                     u4010:
  6821   00050A                     
  6822                           ;stkvar	_g @ sp[(-44)+6]
  6823   00050A  0EDA               	movlw	-38
  6824   00050C  CFE3 FFE6          	movff	plusw1,postinc1
  6825   000510  CFE3 FFE6          	movff	plusw1,postinc1
  6826   000514  CFE3 FFE6          	movff	plusw1,postinc1
  6827   000518  CFE3 FFE6          	movff	plusw1,postinc1
  6828                           
  6829                           ;stkvar	_ou @ sp[(-48)+18]
  6830   00051C  0EE2               	movlw	-30
  6831   00051E  CFE3 FFE6          	movff	plusw1,postinc1
  6832   000522  CFE3 FFE6          	movff	plusw1,postinc1
  6833   000526  CFE3 FFE6          	movff	plusw1,postinc1
  6834   00052A  CFE3 FFE6          	movff	plusw1,postinc1
  6835   00052E  ECC9  F01C         	call	___flge	;wreg free
  6836   000532  A001               	btfss	btemp& (0+255),0,c
  6837   000534  EF9E  F002         	goto	u4021
  6838   000538  EFA0  F002         	goto	u4020
  6839   00053C                     u4021:
  6840   00053C  EF0D  F002         	goto	l4036
  6841   000540                     u4020:
  6842   000540                     
  6843                           ;C:\Program Files\Microchip\xc8\v2.41\pic\sources\c99\common\doprnt.c: 608:   if ((labs(
      +                          (g).u-(u).u) <= 1)) {
  6844                           ;stkvar	_u @ sp[(-44)+2]
  6845                           ;stkvar	_g @ sp[(-44)+6]
  6846   000540  0EDA               	movlw	-38
  6847   000542  CFE3 F009          	movff	plusw1,btemp+8
  6848   000546  0EDB               	movlw	-37
  6849   000548  CFE3 F00A          	movff	plusw1,btemp+9
  6850   00054C  0EDC               	movlw	-36
  6851   00054E  CFE3 F00B          	movff	plusw1,btemp+10
  6852   000552  0EDD               	movlw	-35
  6853   000554  CFE3 F00C          	movff	plusw1,btemp+11
  6854   000558  0ED6               	movlw	-42
  6855   00055A  50E3               	movf	plusw1,w,c
  6856   00055C  5E09               	subwf	(btemp+8)^0,f,c
  6857   00055E  0ED7               	movlw	-41
  6858   000560  50E3               	movf	plusw1,w,c
  6859   000562  5A0A               	subwfb	(btemp+9)^0,f,c
  6860   000564  0ED8               	movlw	-40
  6861   000566  50E3               	movf	plusw1,w,c
  6862   000568  5A0B               	subwfb	(btemp+10)^0,f,c
  6863   00056A  0ED9               	movlw	-39
  6864   00056C  50E3               	movf	plusw1,w,c
  6865   00056E  5A0C               	subwfb	(btemp+11)^0,f,c
  6866   000570  C009  FFE6         	movff	btemp+8,postinc1
  6867   000574  C00A  FFE6         	movff	btemp+9,postinc1
  6868   000578  C00B  FFE6         	movff	btemp+10,postinc1
  6869   00057C  C00C  FFE6         	movff	btemp+11,postinc1
  6870   000580  ECAD  F027         	call	_labs	;wreg free
  6871   000584  BE04               	btfsc	(btemp+3)^0,7,c
  6872   000586  EFD2  F002         	goto	u4030
  6873   00058A  5004               	movf	(btemp+3)^0,w,c
  6874   00058C  1003               	iorwf	(btemp+2)^0,w,c
  6875   00058E  1002               	iorwf	(btemp+1)^0,w,c
  6876   000590  E107               	bnz	u4031
  6877   000592  0E02               	movlw	2
  6878   000594  5C01               	subwf	btemp^0,w,c
  6879   000596  B0D8               	btfsc	status,0,c
  6880   000598  EFD0  F002         	goto	u4031
  6881   00059C  EFD2  F002         	goto	u4030
  6882   0005A0                     u4031:
  6883   0005A0  EF49  F003         	goto	l4058
  6884   0005A4                     u4030:
  6885   0005A4                     l4048:
  6886                           
  6887                           ;C:\Program Files\Microchip\xc8\v2.41\pic\sources\c99\common\doprnt.c: 609:    g = u;
  6888                           ;stkvar	_u @ sp[(-44)+2]
  6889   0005A4  0ED6               	movlw	-42
  6890   0005A6  CFE3 F009          	movff	plusw1,btemp+8
  6891   0005AA  0ED7               	movlw	-41
  6892   0005AC  CFE3 F00A          	movff	plusw1,btemp+9
  6893   0005B0  0ED8               	movlw	-40
  6894   0005B2  CFE3 F00B          	movff	plusw1,btemp+10
  6895   0005B6  0ED9               	movlw	-39
  6896   0005B8  CFE3 F00C          	movff	plusw1,btemp+11
  6897                           
  6898                           ;stkvar	_g @ sp[(-44)+6]
  6899   0005BC  0EDA               	movlw	-38
  6900   0005BE  C009  FFE3         	movff	btemp+8,plusw1
  6901   0005C2  0EDB               	movlw	-37
  6902   0005C4  C00A  FFE3         	movff	btemp+9,plusw1
  6903   0005C8  0EDC               	movlw	-36
  6904   0005CA  C00B  FFE3         	movff	btemp+10,plusw1
  6905   0005CE  0EDD               	movlw	-35
  6906   0005D0  C00C  FFE3         	movff	btemp+11,plusw1
  6907                           
  6908                           ;C:\Program Files\Microchip\xc8\v2.41\pic\sources\c99\common\doprnt.c: 610:   }
  6909   0005D4  EF64  F003         	goto	l4060
  6910   0005D8                     l4050:
  6911                           
  6912                           ;C:\Program Files\Microchip\xc8\v2.41\pic\sources\c99\common\doprnt.c: 613:     u.f = u.
      +                          f/10.0;
  6913   0005D8  0E00               	movlw	0
  6914   0005DA  6EE6               	movwf	postinc1,c
  6915   0005DC  0E00               	movlw	0
  6916   0005DE  6EE6               	movwf	postinc1,c
  6917   0005E0  0E20               	movlw	32
  6918   0005E2  6EE6               	movwf	postinc1,c
  6919   0005E4  0E41               	movlw	65
  6920   0005E6  6EE6               	movwf	postinc1,c
  6921                           
  6922                           ;stkvar	_u @ sp[(-48)+2]
  6923   0005E8  0ED2               	movlw	-46
  6924   0005EA  CFE3 FFE6          	movff	plusw1,postinc1
  6925   0005EE  CFE3 FFE6          	movff	plusw1,postinc1
  6926   0005F2  CFE3 FFE6          	movff	plusw1,postinc1
  6927   0005F6  CFE3 FFE6          	movff	plusw1,postinc1
  6928   0005FA  EC14  F011         	call	___fldiv	;wreg free
  6929                           
  6930                           ;stkvar	_u @ sp[(-44)+2]
  6931   0005FE  0ED6               	movlw	-42
  6932   000600  C001  FFE3         	movff	btemp,plusw1
  6933   000604  0ED7               	movlw	-41
  6934   000606  C002  FFE3         	movff	btemp+1,plusw1
  6935   00060A  0ED8               	movlw	-40
  6936   00060C  C003  FFE3         	movff	btemp+2,plusw1
  6937   000610  0ED9               	movlw	-39
  6938   000612  C004  FFE3         	movff	btemp+3,plusw1
  6939   000616                     
  6940                           ;C:\Program Files\Microchip\xc8\v2.41\pic\sources\c99\common\doprnt.c: 614:     --e;
  6941                           ;stkvar	_e @ sp[(-44)+28]
  6942   000616  50E1               	movf	fsr1l,w,c
  6943   000618  0FF0               	addlw	-16
  6944   00061A  6ED9               	movwf	fsr2l,c
  6945   00061C  50E2               	movf	fsr1h,w,c
  6946   00061E  6EDA               	movwf	fsr2h,c
  6947   000620  0EFF               	movlw	255
  6948   000622  22DA               	addwfc	fsr2h,f,c
  6949   000624  06DE               	decf	postinc2,f,c
  6950   000626  0E00               	movlw	0
  6951   000628  5ADD               	subwfb	postdec2,f,c
  6952   00062A                     
  6953                           ;C:\Program Files\Microchip\xc8\v2.41\pic\sources\c99\common\doprnt.c: 615:     if ((lab
      +                          s((g).u-(u).u) <= 1)) {
  6954                           ;stkvar	_u @ sp[(-44)+2]
  6955                           ;stkvar	_g @ sp[(-44)+6]
  6956   00062A  0EDA               	movlw	-38
  6957   00062C  CFE3 F009          	movff	plusw1,btemp+8
  6958   000630  0EDB               	movlw	-37
  6959   000632  CFE3 F00A          	movff	plusw1,btemp+9
  6960   000636  0EDC               	movlw	-36
  6961   000638  CFE3 F00B          	movff	plusw1,btemp+10
  6962   00063C  0EDD               	movlw	-35
  6963   00063E  CFE3 F00C          	movff	plusw1,btemp+11
  6964   000642  0ED6               	movlw	-42
  6965   000644  50E3               	movf	plusw1,w,c
  6966   000646  5E09               	subwf	(btemp+8)^0,f,c
  6967   000648  0ED7               	movlw	-41
  6968   00064A  50E3               	movf	plusw1,w,c
  6969   00064C  5A0A               	subwfb	(btemp+9)^0,f,c
  6970   00064E  0ED8               	movlw	-40
  6971   000650  50E3               	movf	plusw1,w,c
  6972   000652  5A0B               	subwfb	(btemp+10)^0,f,c
  6973   000654  0ED9               	movlw	-39
  6974   000656  50E3               	movf	plusw1,w,c
  6975   000658  5A0C               	subwfb	(btemp+11)^0,f,c
  6976   00065A  C009  FFE6         	movff	btemp+8,postinc1
  6977   00065E  C00A  FFE6         	movff	btemp+9,postinc1
  6978   000662  C00B  FFE6         	movff	btemp+10,postinc1
  6979   000666  C00C  FFE6         	movff	btemp+11,postinc1
  6980   00066A  ECAD  F027         	call	_labs	;wreg free
  6981   00066E  BE04               	btfsc	(btemp+3)^0,7,c
  6982   000670  EF47  F003         	goto	u4040
  6983   000674  5004               	movf	(btemp+3)^0,w,c
  6984   000676  1003               	iorwf	(btemp+2)^0,w,c
  6985   000678  1002               	iorwf	(btemp+1)^0,w,c
  6986   00067A  E107               	bnz	u4041
  6987   00067C  0E02               	movlw	2
  6988   00067E  5C01               	subwf	btemp^0,w,c
  6989   000680  B0D8               	btfsc	status,0,c
  6990   000682  EF45  F003         	goto	u4041
  6991   000686  EF47  F003         	goto	u4040
  6992   00068A                     u4041:
  6993   00068A  EF49  F003         	goto	l4058
  6994   00068E                     u4040:
  6995   00068E  EFD2  F002         	goto	l4048
  6996   000692                     l4058:
  6997                           
  6998                           ;C:\Program Files\Microchip\xc8\v2.41\pic\sources\c99\common\doprnt.c: 612:    while (g.
      +                          f < u.f) {
  6999                           ;stkvar	_u @ sp[(-44)+2]
  7000   000692  0ED6               	movlw	-42
  7001   000694  CFE3 FFE6          	movff	plusw1,postinc1
  7002   000698  CFE3 FFE6          	movff	plusw1,postinc1
  7003   00069C  CFE3 FFE6          	movff	plusw1,postinc1
  7004   0006A0  CFE3 FFE6          	movff	plusw1,postinc1
  7005                           
  7006                           ;stkvar	_g @ sp[(-48)+6]
  7007   0006A4  0ED6               	movlw	-42
  7008   0006A6  CFE3 FFE6          	movff	plusw1,postinc1
  7009   0006AA  CFE3 FFE6          	movff	plusw1,postinc1
  7010   0006AE  CFE3 FFE6          	movff	plusw1,postinc1
  7011   0006B2  CFE3 FFE6          	movff	plusw1,postinc1
  7012   0006B6  ECC9  F01C         	call	___flge	;wreg free
  7013   0006BA  A001               	btfss	btemp& (0+255),0,c
  7014   0006BC  EF62  F003         	goto	u4051
  7015   0006C0  EF64  F003         	goto	u4050
  7016   0006C4                     u4051:
  7017   0006C4  EFEC  F002         	goto	l4050
  7018   0006C8                     u4050:
  7019   0006C8                     l4060:
  7020                           
  7021                           ;C:\Program Files\Microchip\xc8\v2.41\pic\sources\c99\common\doprnt.c: 627:  mode = c;
  7022                           ;stkvar	_c @ sp[(-44)+-7]
  7023                           ;stkvar	_mode @ sp[(-44)+42]
  7024   0006C8  0ECD               	movlw	-51
  7025   0006CA  CFE3 F001          	movff	plusw1,btemp
  7026   0006CE  0EFE               	movlw	-2
  7027   0006D0  C001  FFE3         	movff	btemp,plusw1
  7028                           
  7029                           ;C:\Program Files\Microchip\xc8\v2.41\pic\sources\c99\common\doprnt.c: 629:     nmode = 
      +                          mode;
  7030                           ;stkvar	_mode @ sp[(-44)+42]
  7031                           ;stkvar	_nmode @ sp[(-44)+41]
  7032   0006D4  0EFE               	movlw	-2
  7033   0006D6  CFE3 F001          	movff	plusw1,btemp
  7034   0006DA  0EFD               	movlw	-3
  7035   0006DC  C001  FFE3         	movff	btemp,plusw1
  7036   0006E0                     
  7037                           ;C:\Program Files\Microchip\xc8\v2.41\pic\sources\c99\common\doprnt.c: 639:  {;C:\Progra
      +                          m Files\Microchip\xc8\v2.41\pic\sources\c99\common\doprnt.c: 640:         p = (prec < 0)
      +                           ? 6 : prec;
  7038   0006E0  BE38               	btfsc	(_prec+1)^0,7,c
  7039   0006E2  EF75  F003         	goto	u4061
  7040   0006E6  EF77  F003         	goto	u4060
  7041   0006EA                     u4061:
  7042   0006EA  EF7F  F003         	goto	l4066
  7043   0006EE                     u4060:
  7044   0006EE                     
  7045                           ;stkvar	_p @ sp[(-44)+36]
  7046   0006EE  0EF8               	movlw	-8
  7047   0006F0  C037  FFE3         	movff	_prec,plusw1
  7048   0006F4  0EF9               	movlw	-7
  7049   0006F6  C038  FFE3         	movff	_prec+1,plusw1
  7050   0006FA  EF89  F003         	goto	l4068
  7051   0006FE                     l4066:
  7052   0006FE  0E06               	movlw	6
  7053   000700  6E0B               	movwf	(btemp+10)^0,c
  7054   000702  0E00               	movlw	0
  7055   000704  6E0C               	movwf	(btemp+11)^0,c
  7056                           
  7057                           ;stkvar	_p @ sp[(-44)+36]
  7058   000706  0EF8               	movlw	-8
  7059   000708  C00B  FFE3         	movff	btemp+10,plusw1
  7060   00070C  0EF9               	movlw	-7
  7061   00070E  C00C  FFE3         	movff	btemp+11,plusw1
  7062   000712                     l4068:
  7063                           
  7064                           ;C:\Program Files\Microchip\xc8\v2.41\pic\sources\c99\common\doprnt.c: 641:     };C:\Pro
      +                          gram Files\Microchip\xc8\v2.41\pic\sources\c99\common\doprnt.c: 655:     m = p;
  7065                           ;stkvar	_p @ sp[(-44)+36]
  7066                           ;stkvar	_m @ sp[(-44)+30]
  7067   000712  0EF8               	movlw	-8
  7068   000714  CFE3 F001          	movff	plusw1,btemp
  7069   000718  0EF2               	movlw	-14
  7070   00071A  C001  FFE3         	movff	btemp,plusw1
  7071   00071E  0EF9               	movlw	-7
  7072   000720  CFE3 F001          	movff	plusw1,btemp
  7073   000724  0EF3               	movlw	-13
  7074   000726  C001  FFE3         	movff	btemp,plusw1
  7075   00072A                     
  7076                           ;C:\Program Files\Microchip\xc8\v2.41\pic\sources\c99\common\doprnt.c: 659:  {;C:\Progra
      +                          m Files\Microchip\xc8\v2.41\pic\sources\c99\common\doprnt.c: 660:         ++m;
  7077                           ;stkvar	_m @ sp[(-44)+30]
  7078   00072A  0EF2               	movlw	-14
  7079   00072C  50E3               	movf	plusw1,w,c
  7080   00072E  0F01               	addlw	1
  7081   000730  6E01               	movwf	btemp^0,c
  7082   000732  0EF2               	movlw	-14
  7083   000734  C001  FFE3         	movff	btemp,plusw1
  7084   000738  6A01               	clrf	btemp^0,c
  7085   00073A  0EF3               	movlw	-13
  7086   00073C  50E3               	movf	plusw1,w,c
  7087   00073E  2001               	addwfc	btemp^0,w,c
  7088   000740  6E01               	movwf	btemp^0,c
  7089   000742  0EF3               	movlw	-13
  7090   000744  C001  FFE3         	movff	btemp,plusw1
  7091   000748                     
  7092                           ;C:\Program Files\Microchip\xc8\v2.41\pic\sources\c99\common\doprnt.c: 661:     };C:\Pro
      +                          gram Files\Microchip\xc8\v2.41\pic\sources\c99\common\doprnt.c: 665:     if (nmode == 'f
      +                          ') {
  7093                           ;stkvar	_nmode @ sp[(-44)+41]
  7094   000748  0EFD               	movlw	-3
  7095   00074A  CFE3 F001          	movff	plusw1,btemp
  7096   00074E  0E66               	movlw	102
  7097   000750  1801               	xorwf	btemp^0,w,c
  7098   000752  A4D8               	btfss	status,2,c
  7099   000754  EFAE  F003         	goto	u4071
  7100   000758  EFB0  F003         	goto	u4070
  7101   00075C                     u4071:
  7102   00075C  EFEE  F003         	goto	l4084
  7103   000760                     u4070:
  7104   000760                     
  7105                           ;C:\Program Files\Microchip\xc8\v2.41\pic\sources\c99\common\doprnt.c: 666:         if (
      +                          e < 0) {
  7106                           ;stkvar	_e @ sp[(-44)+28]
  7107   000760  0EF1               	movlw	-15
  7108   000762  BEE3               	btfsc	plusw1,7,c
  7109   000764  EFB8  F003         	goto	u4080
  7110   000768  EFB6  F003         	goto	u4081
  7111   00076C                     u4081:
  7112   00076C  EFD0  F003         	goto	l4080
  7113   000770                     u4080:
  7114   000770                     
  7115                           ;C:\Program Files\Microchip\xc8\v2.41\pic\sources\c99\common\doprnt.c: 667:             
      +                          u.f = 1.0;
  7116   000770  0E00               	movlw	0
  7117   000772  6E09               	movwf	(btemp+8)^0,c
  7118   000774  0E00               	movlw	0
  7119   000776  6E0A               	movwf	(btemp+9)^0,c
  7120   000778  0E80               	movlw	128
  7121   00077A  6E0B               	movwf	(btemp+10)^0,c
  7122   00077C  0E3F               	movlw	63
  7123   00077E  6E0C               	movwf	(btemp+11)^0,c
  7124                           
  7125                           ;stkvar	_u @ sp[(-44)+2]
  7126   000780  0ED6               	movlw	-42
  7127   000782  C009  FFE3         	movff	btemp+8,plusw1
  7128   000786  0ED7               	movlw	-41
  7129   000788  C00A  FFE3         	movff	btemp+9,plusw1
  7130   00078C  0ED8               	movlw	-40
  7131   00078E  C00B  FFE3         	movff	btemp+10,plusw1
  7132   000792  0ED9               	movlw	-39
  7133   000794  C00C  FFE3         	movff	btemp+11,plusw1
  7134   000798                     
  7135                           ;C:\Program Files\Microchip\xc8\v2.41\pic\sources\c99\common\doprnt.c: 668:             
      +                          e = 0;
  7136                           ;stkvar	_e @ sp[(-44)+28]
  7137   000798  0EF0               	movlw	-16
  7138   00079A  6AE3               	clrf	plusw1,c
  7139   00079C  0EF1               	movlw	-15
  7140   00079E  6AE3               	clrf	plusw1,c
  7141   0007A0                     l4080:
  7142                           
  7143                           ;C:\Program Files\Microchip\xc8\v2.41\pic\sources\c99\common\doprnt.c: 670:         if (
      +                          !(mode == 'g')) {
  7144                           ;stkvar	_mode @ sp[(-44)+42]
  7145   0007A0  0EFE               	movlw	-2
  7146   0007A2  CFE3 F001          	movff	plusw1,btemp
  7147   0007A6  0E67               	movlw	103
  7148   0007A8  1801               	xorwf	btemp^0,w,c
  7149   0007AA  B4D8               	btfsc	status,2,c
  7150   0007AC  EFDA  F003         	goto	u4091
  7151   0007B0  EFDC  F003         	goto	u4090
  7152   0007B4                     u4091:
  7153   0007B4  EFEE  F003         	goto	l4084
  7154   0007B8                     u4090:
  7155   0007B8                     
  7156                           ;C:\Program Files\Microchip\xc8\v2.41\pic\sources\c99\common\doprnt.c: 671:             
      +                          m += e;
  7157                           ;stkvar	_e @ sp[(-44)+28]
  7158                           ;stkvar	_m @ sp[(-44)+30]
  7159   0007B8  0EF2               	movlw	-14
  7160   0007BA  50E3               	movf	plusw1,w,c
  7161   0007BC  6E01               	movwf	btemp^0,c
  7162   0007BE  0EF0               	movlw	-16
  7163   0007C0  50E3               	movf	plusw1,w,c
  7164   0007C2  2601               	addwf	btemp^0,f,c
  7165   0007C4  0EF2               	movlw	-14
  7166   0007C6  C001  FFE3         	movff	btemp,plusw1
  7167   0007CA  0EF3               	movlw	-13
  7168   0007CC  50E3               	movf	plusw1,w,c
  7169   0007CE  6E01               	movwf	btemp^0,c
  7170   0007D0  0EF1               	movlw	-15
  7171   0007D2  50E3               	movf	plusw1,w,c
  7172   0007D4  2201               	addwfc	btemp^0,f,c
  7173   0007D6  0EF3               	movlw	-13
  7174   0007D8  C001  FFE3         	movff	btemp,plusw1
  7175   0007DC                     l4084:
  7176                           
  7177                           ;C:\Program Files\Microchip\xc8\v2.41\pic\sources\c99\common\doprnt.c: 677:     i = 0;
  7178                           ;stkvar	_i @ sp[(-44)+24]
  7179   0007DC  0EEC               	movlw	-20
  7180   0007DE  6AE3               	clrf	plusw1,c
  7181   0007E0  0EED               	movlw	-19
  7182   0007E2  6AE3               	clrf	plusw1,c
  7183   0007E4                     
  7184                           ;C:\Program Files\Microchip\xc8\v2.41\pic\sources\c99\common\doprnt.c: 678:     h = g.f;
  7185                           ;stkvar	_g @ sp[(-44)+6]
  7186   0007E4  0EDA               	movlw	-38
  7187   0007E6  CFE3 F009          	movff	plusw1,btemp+8
  7188   0007EA  0EDB               	movlw	-37
  7189   0007EC  CFE3 F00A          	movff	plusw1,btemp+9
  7190   0007F0  0EDC               	movlw	-36
  7191   0007F2  CFE3 F00B          	movff	plusw1,btemp+10
  7192   0007F6  0EDD               	movlw	-35
  7193   0007F8  CFE3 F00C          	movff	plusw1,btemp+11
  7194                           
  7195                           ;stkvar	_h @ sp[(-44)+14]
  7196   0007FC  0EE2               	movlw	-30
  7197   0007FE  C009  FFE3         	movff	btemp+8,plusw1
  7198   000802  0EE3               	movlw	-29
  7199   000804  C00A  FFE3         	movff	btemp+9,plusw1
  7200   000808  0EE4               	movlw	-28
  7201   00080A  C00B  FFE3         	movff	btemp+10,plusw1
  7202   00080E  0EE5               	movlw	-27
  7203   000810  C00C  FFE3         	movff	btemp+11,plusw1
  7204   000814                     
  7205                           ;C:\Program Files\Microchip\xc8\v2.41\pic\sources\c99\common\doprnt.c: 679:     ou = u;
  7206                           ;stkvar	_u @ sp[(-44)+2]
  7207   000814  0ED6               	movlw	-42
  7208   000816  CFE3 F009          	movff	plusw1,btemp+8
  7209   00081A  0ED7               	movlw	-41
  7210   00081C  CFE3 F00A          	movff	plusw1,btemp+9
  7211   000820  0ED8               	movlw	-40
  7212   000822  CFE3 F00B          	movff	plusw1,btemp+10
  7213   000826  0ED9               	movlw	-39
  7214   000828  CFE3 F00C          	movff	plusw1,btemp+11
  7215                           
  7216                           ;stkvar	_ou @ sp[(-44)+18]
  7217   00082C  0EE6               	movlw	-26
  7218   00082E  C009  FFE3         	movff	btemp+8,plusw1
  7219   000832  0EE7               	movlw	-25
  7220   000834  C00A  FFE3         	movff	btemp+9,plusw1
  7221   000838  0EE8               	movlw	-24
  7222   00083A  C00B  FFE3         	movff	btemp+10,plusw1
  7223   00083E  0EE9               	movlw	-23
  7224   000840  C00C  FFE3         	movff	btemp+11,plusw1
  7225                           
  7226                           ;C:\Program Files\Microchip\xc8\v2.41\pic\sources\c99\common\doprnt.c: 680:     while (i
      +                           < m) {
  7227   000844  EFC4  F004         	goto	l4100
  7228   000848                     l4090:
  7229                           
  7230                           ;C:\Program Files\Microchip\xc8\v2.41\pic\sources\c99\common\doprnt.c: 681:         l = 
      +                          floorf(h/u.f);
  7231                           ;stkvar	_u @ sp[(-44)+2]
  7232   000848  0ED6               	movlw	-42
  7233   00084A  CFE3 FFE6          	movff	plusw1,postinc1
  7234   00084E  CFE3 FFE6          	movff	plusw1,postinc1
  7235   000852  CFE3 FFE6          	movff	plusw1,postinc1
  7236   000856  CFE3 FFE6          	movff	plusw1,postinc1
  7237                           
  7238                           ;stkvar	_h @ sp[(-48)+14]
  7239   00085A  0EDE               	movlw	-34
  7240   00085C  CFE3 FFE6          	movff	plusw1,postinc1
  7241   000860  CFE3 FFE6          	movff	plusw1,postinc1
  7242   000864  CFE3 FFE6          	movff	plusw1,postinc1
  7243   000868  CFE3 FFE6          	movff	plusw1,postinc1
  7244   00086C  EC14  F011         	call	___fldiv	;wreg free
  7245   000870  C001  FFE6         	movff	btemp,postinc1
  7246   000874  C002  FFE6         	movff	btemp+1,postinc1
  7247   000878  C003  FFE6         	movff	btemp+2,postinc1
  7248   00087C  C004  FFE6         	movff	btemp+3,postinc1
  7249   000880  EC62  F016         	call	_floorf	;wreg free
  7250                           
  7251                           ;stkvar	_l @ sp[(-44)+10]
  7252   000884  0EDE               	movlw	-34
  7253   000886  C001  FFE3         	movff	btemp,plusw1
  7254   00088A  0EDF               	movlw	-33
  7255   00088C  C002  FFE3         	movff	btemp+1,plusw1
  7256   000890  0EE0               	movlw	-32
  7257   000892  C003  FFE3         	movff	btemp+2,plusw1
  7258   000896  0EE1               	movlw	-31
  7259   000898  C004  FFE3         	movff	btemp+3,plusw1
  7260   00089C                     
  7261                           ;C:\Program Files\Microchip\xc8\v2.41\pic\sources\c99\common\doprnt.c: 682:         d = 
      +                          (int)l;
  7262                           ;stkvar	_l @ sp[(-44)+10]
  7263   00089C  0EDE               	movlw	-34
  7264   00089E  CFE3 FFE6          	movff	plusw1,postinc1
  7265   0008A2  CFE3 FFE6          	movff	plusw1,postinc1
  7266   0008A6  CFE3 FFE6          	movff	plusw1,postinc1
  7267   0008AA  CFE3 FFE6          	movff	plusw1,postinc1
  7268   0008AE  EC2C  F01B         	call	___fltol	;wreg free
  7269   0008B2  C001  F00B         	movff	btemp,btemp+10
  7270   0008B6  C002  F00C         	movff	btemp+1,btemp+11
  7271                           
  7272                           ;stkvar	_d @ sp[(-44)+32]
  7273   0008BA  0EF4               	movlw	-12
  7274   0008BC  C00B  FFE3         	movff	btemp+10,plusw1
  7275   0008C0  0EF5               	movlw	-11
  7276   0008C2  C00C  FFE3         	movff	btemp+11,plusw1
  7277   0008C6                     
  7278                           ;C:\Program Files\Microchip\xc8\v2.41\pic\sources\c99\common\doprnt.c: 683:         h -=
      +                           l*u.f;
  7279                           ;stkvar	_l @ sp[(-44)+10]
  7280   0008C6  0EDE               	movlw	-34
  7281   0008C8  CFE3 FFE6          	movff	plusw1,postinc1
  7282   0008CC  CFE3 FFE6          	movff	plusw1,postinc1
  7283   0008D0  CFE3 FFE6          	movff	plusw1,postinc1
  7284   0008D4  CFE3 FFE6          	movff	plusw1,postinc1
  7285                           
  7286                           ;stkvar	_u @ sp[(-48)+2]
  7287   0008D8  0ED2               	movlw	-46
  7288   0008DA  CFE3 FFE6          	movff	plusw1,postinc1
  7289   0008DE  CFE3 FFE6          	movff	plusw1,postinc1
  7290   0008E2  CFE3 FFE6          	movff	plusw1,postinc1
  7291   0008E6  CFE3 FFE6          	movff	plusw1,postinc1
  7292   0008EA  ECE9  F00C         	call	___flmul	;wreg free
  7293   0008EE  C001  FFE6         	movff	btemp,postinc1
  7294   0008F2  C002  FFE6         	movff	btemp+1,postinc1
  7295   0008F6  C003  FFE6         	movff	btemp+2,postinc1
  7296   0008FA  C004  FFE6         	movff	btemp+3,postinc1
  7297                           
  7298                           ;stkvar	_h @ sp[(-48)+14]
  7299   0008FE  0EDE               	movlw	-34
  7300   000900  CFE3 FFE6          	movff	plusw1,postinc1
  7301   000904  CFE3 FFE6          	movff	plusw1,postinc1
  7302   000908  CFE3 FFE6          	movff	plusw1,postinc1
  7303   00090C  CFE3 FFE6          	movff	plusw1,postinc1
  7304   000910  EC7C  F029         	call	___flsub	;wreg free
  7305                           
  7306                           ;stkvar	_h @ sp[(-44)+14]
  7307   000914  0EE2               	movlw	-30
  7308   000916  C001  FFE3         	movff	btemp,plusw1
  7309   00091A  0EE3               	movlw	-29
  7310   00091C  C002  FFE3         	movff	btemp+1,plusw1
  7311   000920  0EE4               	movlw	-28
  7312   000922  C003  FFE3         	movff	btemp+2,plusw1
  7313   000926  0EE5               	movlw	-27
  7314   000928  C004  FFE3         	movff	btemp+3,plusw1
  7315   00092C                     
  7316                           ;C:\Program Files\Microchip\xc8\v2.41\pic\sources\c99\common\doprnt.c: 684:         u.f 
      +                          = u.f/10.0;
  7317   00092C  0E00               	movlw	0
  7318   00092E  6EE6               	movwf	postinc1,c
  7319   000930  0E00               	movlw	0
  7320   000932  6EE6               	movwf	postinc1,c
  7321   000934  0E20               	movlw	32
  7322   000936  6EE6               	movwf	postinc1,c
  7323   000938  0E41               	movlw	65
  7324   00093A  6EE6               	movwf	postinc1,c
  7325                           
  7326                           ;stkvar	_u @ sp[(-48)+2]
  7327   00093C  0ED2               	movlw	-46
  7328   00093E  CFE3 FFE6          	movff	plusw1,postinc1
  7329   000942  CFE3 FFE6          	movff	plusw1,postinc1
  7330   000946  CFE3 FFE6          	movff	plusw1,postinc1
  7331   00094A  CFE3 FFE6          	movff	plusw1,postinc1
  7332   00094E  EC14  F011         	call	___fldiv	;wreg free
  7333                           
  7334                           ;stkvar	_u @ sp[(-44)+2]
  7335   000952  0ED6               	movlw	-42
  7336   000954  C001  FFE3         	movff	btemp,plusw1
  7337   000958  0ED7               	movlw	-41
  7338   00095A  C002  FFE3         	movff	btemp+1,plusw1
  7339   00095E  0ED8               	movlw	-40
  7340   000960  C003  FFE3         	movff	btemp+2,plusw1
  7341   000964  0ED9               	movlw	-39
  7342   000966  C004  FFE3         	movff	btemp+3,plusw1
  7343   00096A                     
  7344                           ;C:\Program Files\Microchip\xc8\v2.41\pic\sources\c99\common\doprnt.c: 685:         ++i;
  7345                           ;stkvar	_i @ sp[(-44)+24]
  7346   00096A  0EEC               	movlw	-20
  7347   00096C  50E3               	movf	plusw1,w,c
  7348   00096E  0F01               	addlw	1
  7349   000970  6E01               	movwf	btemp^0,c
  7350   000972  0EEC               	movlw	-20
  7351   000974  C001  FFE3         	movff	btemp,plusw1
  7352   000978  6A01               	clrf	btemp^0,c
  7353   00097A  0EED               	movlw	-19
  7354   00097C  50E3               	movf	plusw1,w,c
  7355   00097E  2001               	addwfc	btemp^0,w,c
  7356   000980  6E01               	movwf	btemp^0,c
  7357   000982  0EED               	movlw	-19
  7358   000984  C001  FFE3         	movff	btemp,plusw1
  7359   000988                     l4100:
  7360                           
  7361                           ;C:\Program Files\Microchip\xc8\v2.41\pic\sources\c99\common\doprnt.c: 680:     while (i
      +                           < m) {
  7362                           ;stkvar	_m @ sp[(-44)+30]
  7363                           ;stkvar	_i @ sp[(-44)+24]
  7364   000988  50E1               	movf	fsr1l,w,c
  7365   00098A  0FEC               	addlw	-20
  7366   00098C  6ED9               	movwf	fsr2l,c
  7367   00098E  50E2               	movf	fsr1h,w,c
  7368   000990  6EDA               	movwf	fsr2h,c
  7369   000992  0EFF               	movlw	255
  7370   000994  22DA               	addwfc	fsr2h,f,c
  7371   000996  0EF2               	movlw	-14
  7372   000998  50E3               	movf	plusw1,w,c
  7373   00099A  5CDE               	subwf	postinc2,w,c
  7374   00099C  50DE               	movf	postinc2,w,c
  7375   00099E  0A80               	xorlw	128
  7376   0009A0  6E01               	movwf	btemp^0,c
  7377   0009A2  0EF3               	movlw	-13
  7378   0009A4  50E3               	movf	plusw1,w,c
  7379   0009A6  0A80               	xorlw	128
  7380   0009A8  5801               	subwfb	btemp^0,w,c
  7381   0009AA  A0D8               	btfss	status,0,c
  7382   0009AC  EFDA  F004         	goto	u4101
  7383   0009B0  EFDC  F004         	goto	u4100
  7384   0009B4                     u4101:
  7385   0009B4  EF24  F004         	goto	l4090
  7386   0009B8                     u4100:
  7387   0009B8                     
  7388                           ;C:\Program Files\Microchip\xc8\v2.41\pic\sources\c99\common\doprnt.c: 689:     l = u.f*
      +                          5.0;
  7389   0009B8  0E00               	movlw	0
  7390   0009BA  6EE6               	movwf	postinc1,c
  7391   0009BC  0E00               	movlw	0
  7392   0009BE  6EE6               	movwf	postinc1,c
  7393   0009C0  0EA0               	movlw	160
  7394   0009C2  6EE6               	movwf	postinc1,c
  7395   0009C4  0E40               	movlw	64
  7396   0009C6  6EE6               	movwf	postinc1,c
  7397                           
  7398                           ;stkvar	_u @ sp[(-48)+2]
  7399   0009C8  0ED2               	movlw	-46
  7400   0009CA  CFE3 FFE6          	movff	plusw1,postinc1
  7401   0009CE  CFE3 FFE6          	movff	plusw1,postinc1
  7402   0009D2  CFE3 FFE6          	movff	plusw1,postinc1
  7403   0009D6  CFE3 FFE6          	movff	plusw1,postinc1
  7404   0009DA  ECE9  F00C         	call	___flmul	;wreg free
  7405                           
  7406                           ;stkvar	_l @ sp[(-44)+10]
  7407   0009DE  0EDE               	movlw	-34
  7408   0009E0  C001  FFE3         	movff	btemp,plusw1
  7409   0009E4  0EDF               	movlw	-33
  7410   0009E6  C002  FFE3         	movff	btemp+1,plusw1
  7411   0009EA  0EE0               	movlw	-32
  7412   0009EC  C003  FFE3         	movff	btemp+2,plusw1
  7413   0009F0  0EE1               	movlw	-31
  7414   0009F2  C004  FFE3         	movff	btemp+3,plusw1
  7415   0009F6                     
  7416                           ;C:\Program Files\Microchip\xc8\v2.41\pic\sources\c99\common\doprnt.c: 690:     if (h < 
      +                          l) {
  7417                           ;stkvar	_l @ sp[(-44)+10]
  7418   0009F6  0EDE               	movlw	-34
  7419   0009F8  CFE3 FFE6          	movff	plusw1,postinc1
  7420   0009FC  CFE3 FFE6          	movff	plusw1,postinc1
  7421   000A00  CFE3 FFE6          	movff	plusw1,postinc1
  7422   000A04  CFE3 FFE6          	movff	plusw1,postinc1
  7423                           
  7424                           ;stkvar	_h @ sp[(-48)+14]
  7425   000A08  0EDE               	movlw	-34
  7426   000A0A  CFE3 FFE6          	movff	plusw1,postinc1
  7427   000A0E  CFE3 FFE6          	movff	plusw1,postinc1
  7428   000A12  CFE3 FFE6          	movff	plusw1,postinc1
  7429   000A16  CFE3 FFE6          	movff	plusw1,postinc1
  7430   000A1A  ECC9  F01C         	call	___flge	;wreg free
  7431   000A1E  B001               	btfsc	btemp& (0+255),0,c
  7432   000A20  EF14  F005         	goto	u4111
  7433   000A24  EF16  F005         	goto	u4110
  7434   000A28                     u4111:
  7435   000A28  EF2C  F005         	goto	l4108
  7436   000A2C                     u4110:
  7437   000A2C                     
  7438                           ;C:\Program Files\Microchip\xc8\v2.41\pic\sources\c99\common\doprnt.c: 691:         l = 
      +                          0.0;
  7439   000A2C  0E00               	movlw	0
  7440   000A2E  6E09               	movwf	(btemp+8)^0,c
  7441   000A30  0E00               	movlw	0
  7442   000A32  6E0A               	movwf	(btemp+9)^0,c
  7443   000A34  0E00               	movlw	0
  7444   000A36  6E0B               	movwf	(btemp+10)^0,c
  7445   000A38  0E00               	movlw	0
  7446   000A3A  6E0C               	movwf	(btemp+11)^0,c
  7447                           
  7448                           ;stkvar	_l @ sp[(-44)+10]
  7449   000A3C  0EDE               	movlw	-34
  7450   000A3E  C009  FFE3         	movff	btemp+8,plusw1
  7451   000A42  0EDF               	movlw	-33
  7452   000A44  C00A  FFE3         	movff	btemp+9,plusw1
  7453   000A48  0EE0               	movlw	-32
  7454   000A4A  C00B  FFE3         	movff	btemp+10,plusw1
  7455   000A4E  0EE1               	movlw	-31
  7456   000A50  C00C  FFE3         	movff	btemp+11,plusw1
  7457                           
  7458                           ;C:\Program Files\Microchip\xc8\v2.41\pic\sources\c99\common\doprnt.c: 692:     } else {
  7459   000A54  EF63  F005         	goto	l4114
  7460   000A58                     l4108:
  7461                           
  7462                           ;C:\Program Files\Microchip\xc8\v2.41\pic\sources\c99\common\doprnt.c: 694:         if (
      +                          (h == l) && !(d % 2)) {
  7463                           ;stkvar	_l @ sp[(-44)+10]
  7464   000A58  0EDE               	movlw	-34
  7465   000A5A  CFE3 FFE6          	movff	plusw1,postinc1
  7466   000A5E  CFE3 FFE6          	movff	plusw1,postinc1
  7467   000A62  CFE3 FFE6          	movff	plusw1,postinc1
  7468   000A66  CFE3 FFE6          	movff	plusw1,postinc1
  7469                           
  7470                           ;stkvar	_h @ sp[(-48)+14]
  7471   000A6A  0EDE               	movlw	-34
  7472   000A6C  CFE3 FFE6          	movff	plusw1,postinc1
  7473   000A70  CFE3 FFE6          	movff	plusw1,postinc1
  7474   000A74  CFE3 FFE6          	movff	plusw1,postinc1
  7475   000A78  CFE3 FFE6          	movff	plusw1,postinc1
  7476   000A7C  ECF9  F020         	call	___fleq	;wreg free
  7477   000A80  A001               	btfss	btemp& (0+255),0,c
  7478   000A82  EF45  F005         	goto	u4121
  7479   000A86  EF47  F005         	goto	u4120
  7480   000A8A                     u4121:
  7481   000A8A  EF63  F005         	goto	l4114
  7482   000A8E                     u4120:
  7483   000A8E                     
  7484                           ;stkvar	_d @ sp[(-44)+32]
  7485   000A8E  0EF4               	movlw	-12
  7486   000A90  B0E3               	btfsc	plusw1,0,c
  7487   000A92  EF4D  F005         	goto	u4131
  7488   000A96  EF4F  F005         	goto	u4130
  7489   000A9A                     u4131:
  7490   000A9A  EF63  F005         	goto	l4114
  7491   000A9E                     u4130:
  7492   000A9E                     
  7493                           ;C:\Program Files\Microchip\xc8\v2.41\pic\sources\c99\common\doprnt.c: 695:             
      +                          l = 0.0;
  7494   000A9E  0E00               	movlw	0
  7495   000AA0  6E09               	movwf	(btemp+8)^0,c
  7496   000AA2  0E00               	movlw	0
  7497   000AA4  6E0A               	movwf	(btemp+9)^0,c
  7498   000AA6  0E00               	movlw	0
  7499   000AA8  6E0B               	movwf	(btemp+10)^0,c
  7500   000AAA  0E00               	movlw	0
  7501   000AAC  6E0C               	movwf	(btemp+11)^0,c
  7502                           
  7503                           ;stkvar	_l @ sp[(-44)+10]
  7504   000AAE  0EDE               	movlw	-34
  7505   000AB0  C009  FFE3         	movff	btemp+8,plusw1
  7506   000AB4  0EDF               	movlw	-33
  7507   000AB6  C00A  FFE3         	movff	btemp+9,plusw1
  7508   000ABA  0EE0               	movlw	-32
  7509   000ABC  C00B  FFE3         	movff	btemp+10,plusw1
  7510   000AC0  0EE1               	movlw	-31
  7511   000AC2  C00C  FFE3         	movff	btemp+11,plusw1
  7512   000AC6                     l4114:
  7513                           
  7514                           ;C:\Program Files\Microchip\xc8\v2.41\pic\sources\c99\common\doprnt.c: 700:     h = g.f 
      +                          + l;
  7515                           ;stkvar	_l @ sp[(-44)+10]
  7516   000AC6  0EDE               	movlw	-34
  7517   000AC8  CFE3 FFE6          	movff	plusw1,postinc1
  7518   000ACC  CFE3 FFE6          	movff	plusw1,postinc1
  7519   000AD0  CFE3 FFE6          	movff	plusw1,postinc1
  7520   000AD4  CFE3 FFE6          	movff	plusw1,postinc1
  7521                           
  7522                           ;stkvar	_g @ sp[(-48)+6]
  7523   000AD8  0ED6               	movlw	-42
  7524   000ADA  CFE3 FFE6          	movff	plusw1,postinc1
  7525   000ADE  CFE3 FFE6          	movff	plusw1,postinc1
  7526   000AE2  CFE3 FFE6          	movff	plusw1,postinc1
  7527   000AE6  CFE3 FFE6          	movff	plusw1,postinc1
  7528   000AEA  EC77  F008         	call	___fladd	;wreg free
  7529                           
  7530                           ;stkvar	_h @ sp[(-44)+14]
  7531   000AEE  0EE2               	movlw	-30
  7532   000AF0  C001  FFE3         	movff	btemp,plusw1
  7533   000AF4  0EE3               	movlw	-29
  7534   000AF6  C002  FFE3         	movff	btemp+1,plusw1
  7535   000AFA  0EE4               	movlw	-28
  7536   000AFC  C003  FFE3         	movff	btemp+2,plusw1
  7537   000B00  0EE5               	movlw	-27
  7538   000B02  C004  FFE3         	movff	btemp+3,plusw1
  7539   000B06                     
  7540                           ;C:\Program Files\Microchip\xc8\v2.41\pic\sources\c99\common\doprnt.c: 702:  if (h >= (o
      +                          u.f*10.0)) {
  7541   000B06  0E00               	movlw	0
  7542   000B08  6EE6               	movwf	postinc1,c
  7543   000B0A  0E00               	movlw	0
  7544   000B0C  6EE6               	movwf	postinc1,c
  7545   000B0E  0E20               	movlw	32
  7546   000B10  6EE6               	movwf	postinc1,c
  7547   000B12  0E41               	movlw	65
  7548   000B14  6EE6               	movwf	postinc1,c
  7549                           
  7550                           ;stkvar	_ou @ sp[(-48)+18]
  7551   000B16  0EE2               	movlw	-30
  7552   000B18  CFE3 FFE6          	movff	plusw1,postinc1
  7553   000B1C  CFE3 FFE6          	movff	plusw1,postinc1
  7554   000B20  CFE3 FFE6          	movff	plusw1,postinc1
  7555   000B24  CFE3 FFE6          	movff	plusw1,postinc1
  7556   000B28  ECE9  F00C         	call	___flmul	;wreg free
  7557   000B2C  C001  FFE6         	movff	btemp,postinc1
  7558   000B30  C002  FFE6         	movff	btemp+1,postinc1
  7559   000B34  C003  FFE6         	movff	btemp+2,postinc1
  7560   000B38  C004  FFE6         	movff	btemp+3,postinc1
  7561                           
  7562                           ;stkvar	_h @ sp[(-48)+14]
  7563   000B3C  0EDE               	movlw	-34
  7564   000B3E  CFE3 FFE6          	movff	plusw1,postinc1
  7565   000B42  CFE3 FFE6          	movff	plusw1,postinc1
  7566   000B46  CFE3 FFE6          	movff	plusw1,postinc1
  7567   000B4A  CFE3 FFE6          	movff	plusw1,postinc1
  7568   000B4E  ECC9  F01C         	call	___flge	;wreg free
  7569   000B52  A001               	btfss	btemp& (0+255),0,c
  7570   000B54  EFAE  F005         	goto	u4141
  7571   000B58  EFB0  F005         	goto	u4140
  7572   000B5C                     u4141:
  7573   000B5C  EFF9  F005         	goto	l4126
  7574   000B60                     u4140:
  7575   000B60                     
  7576                           ;C:\Program Files\Microchip\xc8\v2.41\pic\sources\c99\common\doprnt.c: 703:   e++;
  7577                           ;stkvar	_e @ sp[(-44)+28]
  7578   000B60  0EF0               	movlw	-16
  7579   000B62  50E3               	movf	plusw1,w,c
  7580   000B64  0F01               	addlw	1
  7581   000B66  6E01               	movwf	btemp^0,c
  7582   000B68  0EF0               	movlw	-16
  7583   000B6A  C001  FFE3         	movff	btemp,plusw1
  7584   000B6E  6A01               	clrf	btemp^0,c
  7585   000B70  0EF1               	movlw	-15
  7586   000B72  50E3               	movf	plusw1,w,c
  7587   000B74  2001               	addwfc	btemp^0,w,c
  7588   000B76  6E01               	movwf	btemp^0,c
  7589   000B78  0EF1               	movlw	-15
  7590   000B7A  C001  FFE3         	movff	btemp,plusw1
  7591   000B7E                     
  7592                           ;C:\Program Files\Microchip\xc8\v2.41\pic\sources\c99\common\doprnt.c: 704:   ou.f *= 10
      +                          .0;
  7593   000B7E  0E00               	movlw	0
  7594   000B80  6EE6               	movwf	postinc1,c
  7595   000B82  0E00               	movlw	0
  7596   000B84  6EE6               	movwf	postinc1,c
  7597   000B86  0E20               	movlw	32
  7598   000B88  6EE6               	movwf	postinc1,c
  7599   000B8A  0E41               	movlw	65
  7600   000B8C  6EE6               	movwf	postinc1,c
  7601                           
  7602                           ;stkvar	_ou @ sp[(-48)+18]
  7603   000B8E  0EE2               	movlw	-30
  7604   000B90  CFE3 FFE6          	movff	plusw1,postinc1
  7605   000B94  CFE3 FFE6          	movff	plusw1,postinc1
  7606   000B98  CFE3 FFE6          	movff	plusw1,postinc1
  7607   000B9C  CFE3 FFE6          	movff	plusw1,postinc1
  7608   000BA0  ECE9  F00C         	call	___flmul	;wreg free
  7609                           
  7610                           ;stkvar	_ou @ sp[(-44)+18]
  7611   000BA4  0EE6               	movlw	-26
  7612   000BA6  C001  FFE3         	movff	btemp,plusw1
  7613   000BAA  0EE7               	movlw	-25
  7614   000BAC  C002  FFE3         	movff	btemp+1,plusw1
  7615   000BB0  0EE8               	movlw	-24
  7616   000BB2  C003  FFE3         	movff	btemp+2,plusw1
  7617   000BB6  0EE9               	movlw	-23
  7618   000BB8  C004  FFE3         	movff	btemp+3,plusw1
  7619   000BBC                     
  7620                           ;C:\Program Files\Microchip\xc8\v2.41\pic\sources\c99\common\doprnt.c: 706:   if (nmode 
      +                          == 'f') {
  7621                           ;stkvar	_nmode @ sp[(-44)+41]
  7622   000BBC  0EFD               	movlw	-3
  7623   000BBE  CFE3 F001          	movff	plusw1,btemp
  7624   000BC2  0E66               	movlw	102
  7625   000BC4  1801               	xorwf	btemp^0,w,c
  7626   000BC6  A4D8               	btfss	status,2,c
  7627   000BC8  EFE8  F005         	goto	u4151
  7628   000BCC  EFEA  F005         	goto	u4150
  7629   000BD0                     u4151:
  7630   000BD0  EFF9  F005         	goto	l4126
  7631   000BD4                     u4150:
  7632   000BD4                     
  7633                           ;C:\Program Files\Microchip\xc8\v2.41\pic\sources\c99\common\doprnt.c: 708:    m++;
  7634                           ;stkvar	_m @ sp[(-44)+30]
  7635   000BD4  0EF2               	movlw	-14
  7636   000BD6  50E3               	movf	plusw1,w,c
  7637   000BD8  0F01               	addlw	1
  7638   000BDA  6E01               	movwf	btemp^0,c
  7639   000BDC  0EF2               	movlw	-14
  7640   000BDE  C001  FFE3         	movff	btemp,plusw1
  7641   000BE2  6A01               	clrf	btemp^0,c
  7642   000BE4  0EF3               	movlw	-13
  7643   000BE6  50E3               	movf	plusw1,w,c
  7644   000BE8  2001               	addwfc	btemp^0,w,c
  7645   000BEA  6E01               	movwf	btemp^0,c
  7646   000BEC  0EF3               	movlw	-13
  7647   000BEE  C001  FFE3         	movff	btemp,plusw1
  7648   000BF2                     l4126:
  7649                           
  7650                           ;C:\Program Files\Microchip\xc8\v2.41\pic\sources\c99\common\doprnt.c: 714:     u = ou;
  7651                           ;stkvar	_ou @ sp[(-44)+18]
  7652   000BF2  0EE6               	movlw	-26
  7653   000BF4  CFE3 F009          	movff	plusw1,btemp+8
  7654   000BF8  0EE7               	movlw	-25
  7655   000BFA  CFE3 F00A          	movff	plusw1,btemp+9
  7656   000BFE  0EE8               	movlw	-24
  7657   000C00  CFE3 F00B          	movff	plusw1,btemp+10
  7658   000C04  0EE9               	movlw	-23
  7659   000C06  CFE3 F00C          	movff	plusw1,btemp+11
  7660                           
  7661                           ;stkvar	_u @ sp[(-44)+2]
  7662   000C0A  0ED6               	movlw	-42
  7663   000C0C  C009  FFE3         	movff	btemp+8,plusw1
  7664   000C10  0ED7               	movlw	-41
  7665   000C12  C00A  FFE3         	movff	btemp+9,plusw1
  7666   000C16  0ED8               	movlw	-40
  7667   000C18  C00B  FFE3         	movff	btemp+10,plusw1
  7668   000C1C  0ED9               	movlw	-39
  7669   000C1E  C00C  FFE3         	movff	btemp+11,plusw1
  7670   000C22                     
  7671                           ;C:\Program Files\Microchip\xc8\v2.41\pic\sources\c99\common\doprnt.c: 718:  ne = e;
  7672                           ;stkvar	_e @ sp[(-44)+28]
  7673                           ;stkvar	_ne @ sp[(-44)+38]
  7674   000C22  0EF0               	movlw	-16
  7675   000C24  CFE3 F001          	movff	plusw1,btemp
  7676   000C28  0EFA               	movlw	-6
  7677   000C2A  C001  FFE3         	movff	btemp,plusw1
  7678   000C2E  0EF1               	movlw	-15
  7679   000C30  CFE3 F001          	movff	plusw1,btemp
  7680   000C34  0EFB               	movlw	-5
  7681   000C36  C001  FFE3         	movff	btemp,plusw1
  7682   000C3A                     
  7683                           ;C:\Program Files\Microchip\xc8\v2.41\pic\sources\c99\common\doprnt.c: 720:     pp = 0;
  7684                           ;stkvar	_pp @ sp[(-44)+43]
  7685   000C3A  0EFF               	movlw	-1
  7686   000C3C  6AE3               	clrf	plusw1,c
  7687   000C3E                     
  7688                           ;C:\Program Files\Microchip\xc8\v2.41\pic\sources\c99\common\doprnt.c: 721:     t = 0;
  7689                           ;stkvar	_t @ sp[(-44)+34]
  7690   000C3E  0EF6               	movlw	-10
  7691   000C40  6AE3               	clrf	plusw1,c
  7692   000C42  0EF7               	movlw	-9
  7693   000C44  6AE3               	clrf	plusw1,c
  7694   000C46                     
  7695                           ;C:\Program Files\Microchip\xc8\v2.41\pic\sources\c99\common\doprnt.c: 722:     i = 0;
  7696                           ;stkvar	_i @ sp[(-44)+24]
  7697   000C46  0EEC               	movlw	-20
  7698   000C48  6AE3               	clrf	plusw1,c
  7699   000C4A  0EED               	movlw	-19
  7700   000C4C  6AE3               	clrf	plusw1,c
  7701                           
  7702                           ;C:\Program Files\Microchip\xc8\v2.41\pic\sources\c99\common\doprnt.c: 723:     while ((
      +                          i < m) && (n < (80 - 5))) {
  7703   000C4E  EFA0  F007         	goto	l4180
  7704   000C52                     l4136:
  7705                           
  7706                           ;C:\Program Files\Microchip\xc8\v2.41\pic\sources\c99\common\doprnt.c: 724:         l = 
      +                          floorf(h/u.f);
  7707                           ;stkvar	_u @ sp[(-44)+2]
  7708   000C52  0ED6               	movlw	-42
  7709   000C54  CFE3 FFE6          	movff	plusw1,postinc1
  7710   000C58  CFE3 FFE6          	movff	plusw1,postinc1
  7711   000C5C  CFE3 FFE6          	movff	plusw1,postinc1
  7712   000C60  CFE3 FFE6          	movff	plusw1,postinc1
  7713                           
  7714                           ;stkvar	_h @ sp[(-48)+14]
  7715   000C64  0EDE               	movlw	-34
  7716   000C66  CFE3 FFE6          	movff	plusw1,postinc1
  7717   000C6A  CFE3 FFE6          	movff	plusw1,postinc1
  7718   000C6E  CFE3 FFE6          	movff	plusw1,postinc1
  7719   000C72  CFE3 FFE6          	movff	plusw1,postinc1
  7720   000C76  EC14  F011         	call	___fldiv	;wreg free
  7721   000C7A  C001  FFE6         	movff	btemp,postinc1
  7722   000C7E  C002  FFE6         	movff	btemp+1,postinc1
  7723   000C82  C003  FFE6         	movff	btemp+2,postinc1
  7724   000C86  C004  FFE6         	movff	btemp+3,postinc1
  7725   000C8A  EC62  F016         	call	_floorf	;wreg free
  7726                           
  7727                           ;stkvar	_l @ sp[(-44)+10]
  7728   000C8E  0EDE               	movlw	-34
  7729   000C90  C001  FFE3         	movff	btemp,plusw1
  7730   000C94  0EDF               	movlw	-33
  7731   000C96  C002  FFE3         	movff	btemp+1,plusw1
  7732   000C9A  0EE0               	movlw	-32
  7733   000C9C  C003  FFE3         	movff	btemp+2,plusw1
  7734   000CA0  0EE1               	movlw	-31
  7735   000CA2  C004  FFE3         	movff	btemp+3,plusw1
  7736   000CA6                     
  7737                           ;C:\Program Files\Microchip\xc8\v2.41\pic\sources\c99\common\doprnt.c: 725:         d = 
      +                          (int)l > 9 ? 9 : (int)l;
  7738                           ;stkvar	_l @ sp[(-44)+10]
  7739   000CA6  0EDE               	movlw	-34
  7740   000CA8  CFE3 FFE6          	movff	plusw1,postinc1
  7741   000CAC  CFE3 FFE6          	movff	plusw1,postinc1
  7742   000CB0  CFE3 FFE6          	movff	plusw1,postinc1
  7743   000CB4  CFE3 FFE6          	movff	plusw1,postinc1
  7744   000CB8  EC2C  F01B         	call	___fltol	;wreg free
  7745   000CBC  C001  F00B         	movff	btemp,btemp+10
  7746   000CC0  C002  F00C         	movff	btemp+1,btemp+11
  7747   000CC4  BE0C               	btfsc	(btemp+11)^0,7,c
  7748   000CC6  EF70  F006         	goto	u4160
  7749   000CCA  500C               	movf	(btemp+11)^0,w,c
  7750   000CCC  E107               	bnz	u4161
  7751   000CCE  0E0A               	movlw	10
  7752   000CD0  5C0B               	subwf	(btemp+10)^0,w,c
  7753   000CD2  B0D8               	btfsc	status,0,c
  7754   000CD4  EF6E  F006         	goto	u4161
  7755   000CD8  EF70  F006         	goto	u4160
  7756   000CDC                     u4161:
  7757   000CDC  EF87  F006         	goto	l4142
  7758   000CE0                     u4160:
  7759   000CE0                     
  7760                           ;stkvar	_l @ sp[(-44)+10]
  7761   000CE0  0EDE               	movlw	-34
  7762   000CE2  CFE3 FFE6          	movff	plusw1,postinc1
  7763   000CE6  CFE3 FFE6          	movff	plusw1,postinc1
  7764   000CEA  CFE3 FFE6          	movff	plusw1,postinc1
  7765   000CEE  CFE3 FFE6          	movff	plusw1,postinc1
  7766   000CF2  EC2C  F01B         	call	___fltol	;wreg free
  7767   000CF6  C001  F00B         	movff	btemp,btemp+10
  7768   000CFA  C002  F00C         	movff	btemp+1,btemp+11
  7769                           
  7770                           ;stkvar	_d @ sp[(-44)+32]
  7771   000CFE  0EF4               	movlw	-12
  7772   000D00  C00B  FFE3         	movff	btemp+10,plusw1
  7773   000D04  0EF5               	movlw	-11
  7774   000D06  C00C  FFE3         	movff	btemp+11,plusw1
  7775   000D0A  EF91  F006         	goto	l4144
  7776   000D0E                     l4142:
  7777   000D0E  0E09               	movlw	9
  7778   000D10  6E0B               	movwf	(btemp+10)^0,c
  7779   000D12  0E00               	movlw	0
  7780   000D14  6E0C               	movwf	(btemp+11)^0,c
  7781                           
  7782                           ;stkvar	_d @ sp[(-44)+32]
  7783   000D16  0EF4               	movlw	-12
  7784   000D18  C00B  FFE3         	movff	btemp+10,plusw1
  7785   000D1C  0EF5               	movlw	-11
  7786   000D1E  C00C  FFE3         	movff	btemp+11,plusw1
  7787   000D22                     l4144:
  7788                           
  7789                           ;C:\Program Files\Microchip\xc8\v2.41\pic\sources\c99\common\doprnt.c: 736:   {;C:\Progr
      +                          am Files\Microchip\xc8\v2.41\pic\sources\c99\common\doprnt.c: 737:             if (!pp &
      +                          & (ne < 0)) {
  7790                           ;stkvar	_pp @ sp[(-44)+43]
  7791   000D22  0EFF               	movlw	-1
  7792   000D24  50E3               	movf	plusw1,w,c
  7793   000D26  A4D8               	btfss	status,2,c
  7794   000D28  EF98  F006         	goto	u4171
  7795   000D2C  EF9A  F006         	goto	u4170
  7796   000D30                     u4171:
  7797   000D30  EFFF  F006         	goto	l4164
  7798   000D34                     u4170:
  7799   000D34                     
  7800                           ;stkvar	_ne @ sp[(-44)+38]
  7801   000D34  0EFB               	movlw	-5
  7802   000D36  BEE3               	btfsc	plusw1,7,c
  7803   000D38  EFA2  F006         	goto	u4180
  7804   000D3C  EFA0  F006         	goto	u4181
  7805   000D40                     u4181:
  7806   000D40  EFFF  F006         	goto	l4164
  7807   000D44                     u4180:
  7808   000D44                     
  7809                           ;C:\Program Files\Microchip\xc8\v2.41\pic\sources\c99\common\doprnt.c: 738:             
      +                              dbuf[n++] = '.';
  7810                           ;stkvar	_n @ sp[(-44)+22]
  7811   000D44  0EEA               	movlw	-22
  7812   000D46  CFE3 F00B          	movff	plusw1,btemp+10
  7813   000D4A  0EEB               	movlw	-21
  7814   000D4C  CFE3 F00C          	movff	plusw1,btemp+11
  7815   000D50  0E60               	movlw	low _dbuf
  7816   000D52  240B               	addwf	(btemp+10)^0,w,c
  7817   000D54  6ED9               	movwf	fsr2l,c
  7818   000D56  0E00               	movlw	high _dbuf
  7819   000D58  200C               	addwfc	(btemp+11)^0,w,c
  7820   000D5A  6EDA               	movwf	fsr2h,c
  7821   000D5C  0E2E               	movlw	46
  7822   000D5E  6EDF               	movwf	indf2,c
  7823   000D60                     
  7824                           ;stkvar	_n @ sp[(-44)+22]
  7825   000D60  0EEA               	movlw	-22
  7826   000D62  50E3               	movf	plusw1,w,c
  7827   000D64  0F01               	addlw	1
  7828   000D66  6E01               	movwf	btemp^0,c
  7829   000D68  0EEA               	movlw	-22
  7830   000D6A  C001  FFE3         	movff	btemp,plusw1
  7831   000D6E  6A01               	clrf	btemp^0,c
  7832   000D70  0EEB               	movlw	-21
  7833   000D72  50E3               	movf	plusw1,w,c
  7834   000D74  2001               	addwfc	btemp^0,w,c
  7835   000D76  6E01               	movwf	btemp^0,c
  7836   000D78  0EEB               	movlw	-21
  7837   000D7A  C001  FFE3         	movff	btemp,plusw1
  7838   000D7E                     
  7839                           ;C:\Program Files\Microchip\xc8\v2.41\pic\sources\c99\common\doprnt.c: 739:             
      +                              --w;
  7840                           ;stkvar	_w @ sp[(-44)+26]
  7841   000D7E  50E1               	movf	fsr1l,w,c
  7842   000D80  0FEE               	addlw	-18
  7843   000D82  6ED9               	movwf	fsr2l,c
  7844   000D84  50E2               	movf	fsr1h,w,c
  7845   000D86  6EDA               	movwf	fsr2h,c
  7846   000D88  0EFF               	movlw	255
  7847   000D8A  22DA               	addwfc	fsr2h,f,c
  7848   000D8C  06DE               	decf	postinc2,f,c
  7849   000D8E  0E00               	movlw	0
  7850   000D90  5ADD               	subwfb	postdec2,f,c
  7851   000D92                     
  7852                           ;C:\Program Files\Microchip\xc8\v2.41\pic\sources\c99\common\doprnt.c: 740:             
      +                              pp = 1;
  7853                           ;stkvar	_pp @ sp[(-44)+43]
  7854   000D92  0EFF               	movlw	-1
  7855   000D94  6AE3               	clrf	plusw1,c
  7856   000D96  2AE3               	incf	plusw1,f,c
  7857   000D98  EFFF  F006         	goto	l4164
  7858   000D9C                     l4156:
  7859                           
  7860                           ;C:\Program Files\Microchip\xc8\v2.41\pic\sources\c99\common\doprnt.c: 743:             
      +                              dbuf[n++] = '0';
  7861                           ;stkvar	_n @ sp[(-44)+22]
  7862   000D9C  0EEA               	movlw	-22
  7863   000D9E  CFE3 F00B          	movff	plusw1,btemp+10
  7864   000DA2  0EEB               	movlw	-21
  7865   000DA4  CFE3 F00C          	movff	plusw1,btemp+11
  7866   000DA8  0E60               	movlw	low _dbuf
  7867   000DAA  240B               	addwf	(btemp+10)^0,w,c
  7868   000DAC  6ED9               	movwf	fsr2l,c
  7869   000DAE  0E00               	movlw	high _dbuf
  7870   000DB0  200C               	addwfc	(btemp+11)^0,w,c
  7871   000DB2  6EDA               	movwf	fsr2h,c
  7872   000DB4  0E30               	movlw	48
  7873   000DB6  6EDF               	movwf	indf2,c
  7874   000DB8                     
  7875                           ;stkvar	_n @ sp[(-44)+22]
  7876   000DB8  0EEA               	movlw	-22
  7877   000DBA  50E3               	movf	plusw1,w,c
  7878   000DBC  0F01               	addlw	1
  7879   000DBE  6E01               	movwf	btemp^0,c
  7880   000DC0  0EEA               	movlw	-22
  7881   000DC2  C001  FFE3         	movff	btemp,plusw1
  7882   000DC6  6A01               	clrf	btemp^0,c
  7883   000DC8  0EEB               	movlw	-21
  7884   000DCA  50E3               	movf	plusw1,w,c
  7885   000DCC  2001               	addwfc	btemp^0,w,c
  7886   000DCE  6E01               	movwf	btemp^0,c
  7887   000DD0  0EEB               	movlw	-21
  7888   000DD2  C001  FFE3         	movff	btemp,plusw1
  7889   000DD6                     
  7890                           ;C:\Program Files\Microchip\xc8\v2.41\pic\sources\c99\common\doprnt.c: 744:             
      +                              --w;
  7891                           ;stkvar	_w @ sp[(-44)+26]
  7892   000DD6  50E1               	movf	fsr1l,w,c
  7893   000DD8  0FEE               	addlw	-18
  7894   000DDA  6ED9               	movwf	fsr2l,c
  7895   000DDC  50E2               	movf	fsr1h,w,c
  7896   000DDE  6EDA               	movwf	fsr2h,c
  7897   000DE0  0EFF               	movlw	255
  7898   000DE2  22DA               	addwfc	fsr2h,f,c
  7899   000DE4  06DE               	decf	postinc2,f,c
  7900   000DE6  0E00               	movlw	0
  7901   000DE8  5ADD               	subwfb	postdec2,f,c
  7902   000DEA                     
  7903                           ;C:\Program Files\Microchip\xc8\v2.41\pic\sources\c99\common\doprnt.c: 745:             
      +                              --t;
  7904                           ;stkvar	_t @ sp[(-44)+34]
  7905   000DEA  50E1               	movf	fsr1l,w,c
  7906   000DEC  0FF6               	addlw	-10
  7907   000DEE  6ED9               	movwf	fsr2l,c
  7908   000DF0  50E2               	movf	fsr1h,w,c
  7909   000DF2  6EDA               	movwf	fsr2h,c
  7910   000DF4  0EFF               	movlw	255
  7911   000DF6  22DA               	addwfc	fsr2h,f,c
  7912   000DF8  06DE               	decf	postinc2,f,c
  7913   000DFA  0E00               	movlw	0
  7914   000DFC  5ADD               	subwfb	postdec2,f,c
  7915   000DFE                     l4164:
  7916                           
  7917                           ;C:\Program Files\Microchip\xc8\v2.41\pic\sources\c99\common\doprnt.c: 742:             
      +                          while (t) {
  7918                           ;stkvar	_t @ sp[(-44)+34]
  7919   000DFE  0EF6               	movlw	-10
  7920   000E00  CFE3 F001          	movff	plusw1,btemp
  7921   000E04  0EF7               	movlw	-9
  7922   000E06  50E3               	movf	plusw1,w,c
  7923   000E08  1001               	iorwf	btemp^0,w,c
  7924   000E0A  A4D8               	btfss	status,2,c
  7925   000E0C  EF0A  F007         	goto	u4191
  7926   000E10  EF0C  F007         	goto	u4190
  7927   000E14                     u4191:
  7928   000E14  EFCE  F006         	goto	l4156
  7929   000E18                     u4190:
  7930   000E18                     
  7931                           ;C:\Program Files\Microchip\xc8\v2.41\pic\sources\c99\common\doprnt.c: 747:             
      +                          dbuf[n++] = (char)((int)'0' + d);
  7932                           ;stkvar	_n @ sp[(-44)+22]
  7933   000E18  0EEA               	movlw	-22
  7934   000E1A  CFE3 F00B          	movff	plusw1,btemp+10
  7935   000E1E  0EEB               	movlw	-21
  7936   000E20  CFE3 F00C          	movff	plusw1,btemp+11
  7937   000E24  0E60               	movlw	low _dbuf
  7938   000E26  240B               	addwf	(btemp+10)^0,w,c
  7939   000E28  6ED9               	movwf	fsr2l,c
  7940   000E2A  0E00               	movlw	high _dbuf
  7941   000E2C  200C               	addwfc	(btemp+11)^0,w,c
  7942   000E2E  6EDA               	movwf	fsr2h,c
  7943                           
  7944                           ;stkvar	_d @ sp[(-44)+32]
  7945   000E30  0EF4               	movlw	-12
  7946   000E32  50E3               	movf	plusw1,w,c
  7947   000E34  0F30               	addlw	48
  7948   000E36  6EDF               	movwf	indf2,c
  7949   000E38                     
  7950                           ;stkvar	_n @ sp[(-44)+22]
  7951   000E38  0EEA               	movlw	-22
  7952   000E3A  50E3               	movf	plusw1,w,c
  7953   000E3C  0F01               	addlw	1
  7954   000E3E  6E01               	movwf	btemp^0,c
  7955   000E40  0EEA               	movlw	-22
  7956   000E42  C001  FFE3         	movff	btemp,plusw1
  7957   000E46  6A01               	clrf	btemp^0,c
  7958   000E48  0EEB               	movlw	-21
  7959   000E4A  50E3               	movf	plusw1,w,c
  7960   000E4C  2001               	addwfc	btemp^0,w,c
  7961   000E4E  6E01               	movwf	btemp^0,c
  7962   000E50  0EEB               	movlw	-21
  7963   000E52  C001  FFE3         	movff	btemp,plusw1
  7964   000E56                     
  7965                           ;C:\Program Files\Microchip\xc8\v2.41\pic\sources\c99\common\doprnt.c: 748:             
      +                          --w;
  7966                           ;stkvar	_w @ sp[(-44)+26]
  7967   000E56  50E1               	movf	fsr1l,w,c
  7968   000E58  0FEE               	addlw	-18
  7969   000E5A  6ED9               	movwf	fsr2l,c
  7970   000E5C  50E2               	movf	fsr1h,w,c
  7971   000E5E  6EDA               	movwf	fsr2h,c
  7972   000E60  0EFF               	movlw	255
  7973   000E62  22DA               	addwfc	fsr2h,f,c
  7974   000E64  06DE               	decf	postinc2,f,c
  7975   000E66  0E00               	movlw	0
  7976   000E68  5ADD               	subwfb	postdec2,f,c
  7977   000E6A                     
  7978                           ;C:\Program Files\Microchip\xc8\v2.41\pic\sources\c99\common\doprnt.c: 749:         };C:
      +                          \Program Files\Microchip\xc8\v2.41\pic\sources\c99\common\doprnt.c: 750:         h -= l*
      +                          u.f;
  7979                           ;stkvar	_l @ sp[(-44)+10]
  7980   000E6A  0EDE               	movlw	-34
  7981   000E6C  CFE3 FFE6          	movff	plusw1,postinc1
  7982   000E70  CFE3 FFE6          	movff	plusw1,postinc1
  7983   000E74  CFE3 FFE6          	movff	plusw1,postinc1
  7984   000E78  CFE3 FFE6          	movff	plusw1,postinc1
  7985                           
  7986                           ;stkvar	_u @ sp[(-48)+2]
  7987   000E7C  0ED2               	movlw	-46
  7988   000E7E  CFE3 FFE6          	movff	plusw1,postinc1
  7989   000E82  CFE3 FFE6          	movff	plusw1,postinc1
  7990   000E86  CFE3 FFE6          	movff	plusw1,postinc1
  7991   000E8A  CFE3 FFE6          	movff	plusw1,postinc1
  7992   000E8E  ECE9  F00C         	call	___flmul	;wreg free
  7993   000E92  C001  FFE6         	movff	btemp,postinc1
  7994   000E96  C002  FFE6         	movff	btemp+1,postinc1
  7995   000E9A  C003  FFE6         	movff	btemp+2,postinc1
  7996   000E9E  C004  FFE6         	movff	btemp+3,postinc1
  7997                           
  7998                           ;stkvar	_h @ sp[(-48)+14]
  7999   000EA2  0EDE               	movlw	-34
  8000   000EA4  CFE3 FFE6          	movff	plusw1,postinc1
  8001   000EA8  CFE3 FFE6          	movff	plusw1,postinc1
  8002   000EAC  CFE3 FFE6          	movff	plusw1,postinc1
  8003   000EB0  CFE3 FFE6          	movff	plusw1,postinc1
  8004   000EB4  EC7C  F029         	call	___flsub	;wreg free
  8005                           
  8006                           ;stkvar	_h @ sp[(-44)+14]
  8007   000EB8  0EE2               	movlw	-30
  8008   000EBA  C001  FFE3         	movff	btemp,plusw1
  8009   000EBE  0EE3               	movlw	-29
  8010   000EC0  C002  FFE3         	movff	btemp+1,plusw1
  8011   000EC4  0EE4               	movlw	-28
  8012   000EC6  C003  FFE3         	movff	btemp+2,plusw1
  8013   000ECA  0EE5               	movlw	-27
  8014   000ECC  C004  FFE3         	movff	btemp+3,plusw1
  8015   000ED0                     
  8016                           ;C:\Program Files\Microchip\xc8\v2.41\pic\sources\c99\common\doprnt.c: 751:         u.f 
      +                          = u.f/10.0;
  8017   000ED0  0E00               	movlw	0
  8018   000ED2  6EE6               	movwf	postinc1,c
  8019   000ED4  0E00               	movlw	0
  8020   000ED6  6EE6               	movwf	postinc1,c
  8021   000ED8  0E20               	movlw	32
  8022   000EDA  6EE6               	movwf	postinc1,c
  8023   000EDC  0E41               	movlw	65
  8024   000EDE  6EE6               	movwf	postinc1,c
  8025                           
  8026                           ;stkvar	_u @ sp[(-48)+2]
  8027   000EE0  0ED2               	movlw	-46
  8028   000EE2  CFE3 FFE6          	movff	plusw1,postinc1
  8029   000EE6  CFE3 FFE6          	movff	plusw1,postinc1
  8030   000EEA  CFE3 FFE6          	movff	plusw1,postinc1
  8031   000EEE  CFE3 FFE6          	movff	plusw1,postinc1
  8032   000EF2  EC14  F011         	call	___fldiv	;wreg free
  8033                           
  8034                           ;stkvar	_u @ sp[(-44)+2]
  8035   000EF6  0ED6               	movlw	-42
  8036   000EF8  C001  FFE3         	movff	btemp,plusw1
  8037   000EFC  0ED7               	movlw	-41
  8038   000EFE  C002  FFE3         	movff	btemp+1,plusw1
  8039   000F02  0ED8               	movlw	-40
  8040   000F04  C003  FFE3         	movff	btemp+2,plusw1
  8041   000F08  0ED9               	movlw	-39
  8042   000F0A  C004  FFE3         	movff	btemp+3,plusw1
  8043   000F0E                     
  8044                           ;C:\Program Files\Microchip\xc8\v2.41\pic\sources\c99\common\doprnt.c: 752:         --ne
      +                          ;
  8045                           ;stkvar	_ne @ sp[(-44)+38]
  8046   000F0E  50E1               	movf	fsr1l,w,c
  8047   000F10  0FFA               	addlw	-6
  8048   000F12  6ED9               	movwf	fsr2l,c
  8049   000F14  50E2               	movf	fsr1h,w,c
  8050   000F16  6EDA               	movwf	fsr2h,c
  8051   000F18  0EFF               	movlw	255
  8052   000F1A  22DA               	addwfc	fsr2h,f,c
  8053   000F1C  06DE               	decf	postinc2,f,c
  8054   000F1E  0E00               	movlw	0
  8055   000F20  5ADD               	subwfb	postdec2,f,c
  8056   000F22                     
  8057                           ;C:\Program Files\Microchip\xc8\v2.41\pic\sources\c99\common\doprnt.c: 753:         ++i;
  8058                           ;stkvar	_i @ sp[(-44)+24]
  8059   000F22  0EEC               	movlw	-20
  8060   000F24  50E3               	movf	plusw1,w,c
  8061   000F26  0F01               	addlw	1
  8062   000F28  6E01               	movwf	btemp^0,c
  8063   000F2A  0EEC               	movlw	-20
  8064   000F2C  C001  FFE3         	movff	btemp,plusw1
  8065   000F30  6A01               	clrf	btemp^0,c
  8066   000F32  0EED               	movlw	-19
  8067   000F34  50E3               	movf	plusw1,w,c
  8068   000F36  2001               	addwfc	btemp^0,w,c
  8069   000F38  6E01               	movwf	btemp^0,c
  8070   000F3A  0EED               	movlw	-19
  8071   000F3C  C001  FFE3         	movff	btemp,plusw1
  8072   000F40                     l4180:
  8073                           
  8074                           ;C:\Program Files\Microchip\xc8\v2.41\pic\sources\c99\common\doprnt.c: 723:     while ((
      +                          i < m) && (n < (80 - 5))) {
  8075                           ;stkvar	_m @ sp[(-44)+30]
  8076                           ;stkvar	_i @ sp[(-44)+24]
  8077   000F40  50E1               	movf	fsr1l,w,c
  8078   000F42  0FEC               	addlw	-20
  8079   000F44  6ED9               	movwf	fsr2l,c
  8080   000F46  50E2               	movf	fsr1h,w,c
  8081   000F48  6EDA               	movwf	fsr2h,c
  8082   000F4A  0EFF               	movlw	255
  8083   000F4C  22DA               	addwfc	fsr2h,f,c
  8084   000F4E  0EF2               	movlw	-14
  8085   000F50  50E3               	movf	plusw1,w,c
  8086   000F52  5CDE               	subwf	postinc2,w,c
  8087   000F54  50DE               	movf	postinc2,w,c
  8088   000F56  0A80               	xorlw	128
  8089   000F58  6E01               	movwf	btemp^0,c
  8090   000F5A  0EF3               	movlw	-13
  8091   000F5C  50E3               	movf	plusw1,w,c
  8092   000F5E  0A80               	xorlw	128
  8093   000F60  5801               	subwfb	btemp^0,w,c
  8094   000F62  B0D8               	btfsc	status,0,c
  8095   000F64  EFB6  F007         	goto	u4201
  8096   000F68  EFB8  F007         	goto	u4200
  8097   000F6C                     u4201:
  8098   000F6C  EFCB  F007         	goto	l4184
  8099   000F70                     u4200:
  8100   000F70                     
  8101                           ;stkvar	_n @ sp[(-44)+22]
  8102   000F70  0EEB               	movlw	-21
  8103   000F72  BEE3               	btfsc	plusw1,7,c
  8104   000F74  EFC9  F007         	goto	u4211
  8105   000F78  0EEB               	movlw	-21
  8106   000F7A  50E3               	movf	plusw1,w,c
  8107   000F7C  E10C               	bnz	u4210
  8108   000F7E  0EEA               	movlw	-22
  8109   000F80  CFE3 F001          	movff	plusw1,btemp
  8110   000F84  0E4B               	movlw	75
  8111   000F86  5E01               	subwf	btemp^0,f,c
  8112   000F88  A0D8               	btfss	status,0,c
  8113   000F8A  EFC9  F007         	goto	u4211
  8114   000F8E  EFCB  F007         	goto	u4210
  8115   000F92                     u4211:
  8116   000F92  EF29  F006         	goto	l4136
  8117   000F96                     u4210:
  8118   000F96                     l4184:
  8119                           
  8120                           ;C:\Program Files\Microchip\xc8\v2.41\pic\sources\c99\common\doprnt.c: 760:  i = sizeof(
      +                          dbuf) - 1;
  8121   000F96  0E4F               	movlw	79
  8122   000F98  6E0B               	movwf	(btemp+10)^0,c
  8123   000F9A  0E00               	movlw	0
  8124   000F9C  6E0C               	movwf	(btemp+11)^0,c
  8125                           
  8126                           ;stkvar	_i @ sp[(-44)+24]
  8127   000F9E  0EEC               	movlw	-20
  8128   000FA0  C00B  FFE3         	movff	btemp+10,plusw1
  8129   000FA4  0EED               	movlw	-19
  8130   000FA6  C00C  FFE3         	movff	btemp+11,plusw1
  8131   000FAA                     
  8132                           ;C:\Program Files\Microchip\xc8\v2.41\pic\sources\c99\common\doprnt.c: 761:     dbuf[i] 
      +                          = '\0';
  8133                           ;stkvar	_i @ sp[(-44)+24]
  8134   000FAA  0EEC               	movlw	-20
  8135   000FAC  CFE3 F00B          	movff	plusw1,btemp+10
  8136   000FB0  0EED               	movlw	-19
  8137   000FB2  CFE3 F00C          	movff	plusw1,btemp+11
  8138   000FB6  0E60               	movlw	low _dbuf
  8139   000FB8  240B               	addwf	(btemp+10)^0,w,c
  8140   000FBA  6ED9               	movwf	fsr2l,c
  8141   000FBC  0E00               	movlw	high _dbuf
  8142   000FBE  200C               	addwfc	(btemp+11)^0,w,c
  8143   000FC0  6EDA               	movwf	fsr2h,c
  8144   000FC2  6ADF               	clrf	indf2,c
  8145   000FC4                     
  8146                           ;C:\Program Files\Microchip\xc8\v2.41\pic\sources\c99\common\doprnt.c: 792:  memcpy(&dbu
      +                          f[i-n], &dbuf[0], (size_t)n);
  8147                           ;stkvar	_n @ sp[(-44)+22]
  8148   000FC4  0EEA               	movlw	-22
  8149   000FC6  CFE3 FFE6          	movff	plusw1,postinc1
  8150   000FCA  CFE3 FFE6          	movff	plusw1,postinc1
  8151   000FCE  0E60               	movlw	low _dbuf
  8152   000FD0  6EE6               	movwf	postinc1,c
  8153   000FD2  0E00               	movlw	high _dbuf
  8154   000FD4  6EE6               	movwf	postinc1,c
  8155                           
  8156                           ;stkvar	_i @ sp[(-48)+24]
  8157                           ;stkvar	_n @ sp[(-48)+22]
  8158   000FD6  0E60               	movlw	low _dbuf
  8159   000FD8  6E0B               	movwf	(btemp+10)^0,c
  8160   000FDA  0E00               	movlw	high _dbuf
  8161   000FDC  6E0C               	movwf	(btemp+11)^0,c
  8162   000FDE  0EE6               	movlw	-26
  8163   000FE0  50E3               	movf	plusw1,w,c
  8164   000FE2  5E0B               	subwf	(btemp+10)^0,f,c
  8165   000FE4  0EE7               	movlw	-25
  8166   000FE6  50E3               	movf	plusw1,w,c
  8167   000FE8  5A0C               	subwfb	(btemp+11)^0,f,c
  8168   000FEA  0EE8               	movlw	-24
  8169   000FEC  50E3               	movf	plusw1,w,c
  8170   000FEE  260B               	addwf	(btemp+10)^0,f,c
  8171   000FF0  0EE9               	movlw	-23
  8172   000FF2  50E3               	movf	plusw1,w,c
  8173   000FF4  220C               	addwfc	(btemp+11)^0,f,c
  8174   000FF6  C00B  FFE6         	movff	btemp+10,postinc1
  8175   000FFA  C00C  FFE6         	movff	btemp+11,postinc1
  8176   000FFE  EC6B  F021         	call	_memcpy	;wreg free
  8177   001002                     
  8178                           ;C:\Program Files\Microchip\xc8\v2.41\pic\sources\c99\common\doprnt.c: 793:  n = i-n;
  8179                           ;stkvar	_n @ sp[(-44)+22]
  8180                           ;stkvar	_i @ sp[(-44)+24]
  8181   001002  0EEC               	movlw	-20
  8182   001004  CFE3 F00B          	movff	plusw1,btemp+10
  8183   001008  0EED               	movlw	-19
  8184   00100A  CFE3 F00C          	movff	plusw1,btemp+11
  8185   00100E  0EEA               	movlw	-22
  8186   001010  50E3               	movf	plusw1,w,c
  8187   001012  5E0B               	subwf	(btemp+10)^0,f,c
  8188   001014  0EEB               	movlw	-21
  8189   001016  50E3               	movf	plusw1,w,c
  8190   001018  5A0C               	subwfb	(btemp+11)^0,f,c
  8191                           
  8192                           ;stkvar	_n @ sp[(-44)+22]
  8193   00101A  0EEA               	movlw	-22
  8194   00101C  C00B  FFE3         	movff	btemp+10,plusw1
  8195   001020  0EEB               	movlw	-21
  8196   001022  C00C  FFE3         	movff	btemp+11,plusw1
  8197   001026                     
  8198                           ;C:\Program Files\Microchip\xc8\v2.41\pic\sources\c99\common\doprnt.c: 794:  i = sign ==
      +                           0 ? 0 : 1;
  8199                           ;stkvar	_sign @ sp[(-44)+40]
  8200   001026  0EFC               	movlw	-4
  8201   001028  50E3               	movf	plusw1,w,c
  8202   00102A  A4D8               	btfss	status,2,c
  8203   00102C  EF1A  F008         	goto	u4221
  8204   001030  EF1D  F008         	goto	u4220
  8205   001034                     u4221:
  8206   001034  0E01               	movlw	1
  8207   001036  EF1E  F008         	goto	u4230
  8208   00103A                     u4220:
  8209   00103A  0E00               	movlw	0
  8210   00103C                     u4230:
  8211   00103C  6E0B               	movwf	(btemp+10)^0,c
  8212   00103E  6A0C               	clrf	(btemp+11)^0,c
  8213                           
  8214                           ;stkvar	_i @ sp[(-44)+24]
  8215   001040  0EEC               	movlw	-20
  8216   001042  C00B  FFE3         	movff	btemp+10,plusw1
  8217   001046  0EED               	movlw	-19
  8218   001048  C00C  FFE3         	movff	btemp+11,plusw1
  8219   00104C                     
  8220                           ;C:\Program Files\Microchip\xc8\v2.41\pic\sources\c99\common\doprnt.c: 805:  if (sign) {
  8221                           ;stkvar	_sign @ sp[(-44)+40]
  8222   00104C  0EFC               	movlw	-4
  8223   00104E  50E3               	movf	plusw1,w,c
  8224   001050  B4D8               	btfsc	status,2,c
  8225   001052  EF2D  F008         	goto	u4241
  8226   001056  EF2F  F008         	goto	u4240
  8227   00105A                     u4241:
  8228   00105A  EF46  F008         	goto	l4198
  8229   00105E                     u4240:
  8230   00105E                     
  8231                           ;C:\Program Files\Microchip\xc8\v2.41\pic\sources\c99\common\doprnt.c: 806:   dbuf[--n] 
      +                          = sign;
  8232                           ;stkvar	_sign @ sp[(-44)+40]
  8233                           ;stkvar	_n @ sp[(-44)+22]
  8234   00105E  50E1               	movf	fsr1l,w,c
  8235   001060  0FEA               	addlw	-22
  8236   001062  6ED9               	movwf	fsr2l,c
  8237   001064  50E2               	movf	fsr1h,w,c
  8238   001066  6EDA               	movwf	fsr2h,c
  8239   001068  0EFF               	movlw	255
  8240   00106A  22DA               	addwfc	fsr2h,f,c
  8241   00106C  06DE               	decf	postinc2,f,c
  8242   00106E  0E00               	movlw	0
  8243   001070  5ADD               	subwfb	postdec2,f,c
  8244   001072  CFDE F00B          	movff	postinc2,btemp+10
  8245   001076  CFDD F00C          	movff	postdec2,btemp+11
  8246   00107A  0E60               	movlw	low _dbuf
  8247   00107C  240B               	addwf	(btemp+10)^0,w,c
  8248   00107E  6ED9               	movwf	fsr2l,c
  8249   001080  0E00               	movlw	high _dbuf
  8250   001082  200C               	addwfc	(btemp+11)^0,w,c
  8251   001084  6EDA               	movwf	fsr2h,c
  8252   001086  0EFC               	movlw	-4
  8253   001088  CFE3 FFDF          	movff	plusw1,indf2
  8254   00108C                     l4198:
  8255                           
  8256                           ;C:\Program Files\Microchip\xc8\v2.41\pic\sources\c99\common\doprnt.c: 808:  w -= i;
  8257                           ;stkvar	_i @ sp[(-44)+24]
  8258                           ;stkvar	_w @ sp[(-44)+26]
  8259   00108C  0EEE               	movlw	-18
  8260   00108E  50E3               	movf	plusw1,w,c
  8261   001090  6E01               	movwf	btemp^0,c
  8262   001092  0EEC               	movlw	-20
  8263   001094  50E3               	movf	plusw1,w,c
  8264   001096  5E01               	subwf	btemp^0,f,c
  8265   001098  0EEE               	movlw	-18
  8266   00109A  C001  FFE3         	movff	btemp,plusw1
  8267   00109E  0EEF               	movlw	-17
  8268   0010A0  50E3               	movf	plusw1,w,c
  8269   0010A2  6E01               	movwf	btemp^0,c
  8270   0010A4  0EED               	movlw	-19
  8271   0010A6  50E3               	movf	plusw1,w,c
  8272   0010A8  5A01               	subwfb	btemp^0,f,c
  8273   0010AA  0EEF               	movlw	-17
  8274   0010AC  C001  FFE3         	movff	btemp,plusw1
  8275   0010B0                     
  8276                           ;C:\Program Files\Microchip\xc8\v2.41\pic\sources\c99\common\doprnt.c: 811:     return (
      +                          void) pad(fp, &dbuf[n], w);
  8277                           ;stkvar	_w @ sp[(-44)+26]
  8278   0010B0  0EEE               	movlw	-18
  8279   0010B2  CFE3 FFE6          	movff	plusw1,postinc1
  8280   0010B6  CFE3 FFE6          	movff	plusw1,postinc1
  8281                           
  8282                           ;stkvar	_n @ sp[(-46)+22]
  8283   0010BA  0E60               	movlw	low _dbuf
  8284   0010BC  6E0B               	movwf	(btemp+10)^0,c
  8285   0010BE  0E00               	movlw	high _dbuf
  8286   0010C0  6E0C               	movwf	(btemp+11)^0,c
  8287   0010C2  0EE8               	movlw	-24
  8288   0010C4  50E3               	movf	plusw1,w,c
  8289   0010C6  260B               	addwf	(btemp+10)^0,f,c
  8290   0010C8  0EE9               	movlw	-23
  8291   0010CA  50E3               	movf	plusw1,w,c
  8292   0010CC  220C               	addwfc	(btemp+11)^0,f,c
  8293   0010CE  C00B  FFE6         	movff	btemp+10,postinc1
  8294   0010D2  C00C  FFE6         	movff	btemp+11,postinc1
  8295                           
  8296                           ;stkvar	_fp @ sp[(-48)+-2]
  8297   0010D6  0ECE               	movlw	-50
  8298   0010D8  CFE3 FFE6          	movff	plusw1,postinc1
  8299   0010DC  CFE3 FFE6          	movff	plusw1,postinc1
  8300   0010E0  EC63  F024         	call	_pad	;wreg free
  8301   0010E4                     l1130:
  8302                           
  8303                           ; _efgtoa: autosize = 44, savesize = 0, parsavesize = 0, tempsize = 0 parsize = 7, argsi
      +                          ze = 7, vargsize = 0
  8304   0010E4  0ECD               	movlw	205
  8305   0010E6  26E1               	addwf	fsr1l,f,c
  8306   0010E8  0EFF               	movlw	255
  8307   0010EA  22E2               	addwfc	fsr1h,f,c
  8308   0010EC  0012               	return		;funcret
  8309   0010EE                     __end_of_efgtoa:
  8310                           	callstack 0
  8311                           
  8312 ;; *************** function _strcpy *****************
  8313 ;; Defined at:
  8314 ;;		line 3 in file "C:\Program Files\Microchip\xc8\v2.41\pic\sources\c99\common\strcpy.c"
  8315 ;; Parameters:    Size  Location     Type
  8316 ;;  dest            2  [STACK] PTR unsigned char 
  8317 ;;		 -> dbuf(80), 
  8318 ;;  src             2  [STACK] PTR const unsigned char 
  8319 ;;		 -> STR_28(4), STR_25(4), 
  8320 ;; Auto vars:     Size  Location     Type
  8321 ;;  d               2  [STACK] PTR unsigned char 
  8322 ;;		 -> dbuf(80), 
  8323 ;;  s               2  [STACK] PTR const unsigned char 
  8324 ;;		 -> STR_28(4), STR_25(4), 
  8325 ;; Return value:  Size  Location     Type
  8326 ;;                  2  [STACK] PTR unsigned char 
  8327 ;; Registers used:
  8328 ;;		wreg, fsr1l, fsr1h, fsr2l, fsr2h, status,2, status,0, btemp, btemp+10, btemp+11, tblptrl, tblptrh, tblptru
  8329 ;; Tracked objects:
  8330 ;;		On entry : 0/F
  8331 ;;		On exit  : 0/0
  8332 ;;		Unchanged: 0/0
  8333 ;; Data sizes:     COMRAM   BANK0   BANK1   BANK2   BANK3   BANK4   BANK5   BANK6   BANK7   BANK8   BANK9  BANK10  BANK1
      +1  BANK12  BANK13  BANK14  BANK15
  8334 ;;      Params:         0       0       0       0       0       0       0       0       0       0       0       0       
      +0       0       0       0       0
  8335 ;;      Locals:         0       0       0       0       0       0       0       0       0       0       0       0       
      +0       0       0       0       0
  8336 ;;      Temps:          0       0       0       0       0       0       0       0       0       0       0       0       
      +0       0       0       0       0
  8337 ;;      Totals:         0       0       0       0       0       0       0       0       0       0       0       0       
      +0       0       0       0       0
  8338 ;;Total ram usage:        0 bytes
  8339 ;; Hardware stack levels used: 1
  8340 ;; Hardware stack levels required when called: 7
  8341 ;; This function calls:
  8342 ;;		Nothing
  8343 ;; This function is called by:
  8344 ;;		_efgtoa
  8345 ;; This function uses a reentrant model
  8346 ;;
  8347                           
  8348                           	psect	text31
  8349   004C86                     __ptext31:
  8350                           	callstack 0
  8351   004C86                     _strcpy:
  8352                           	callstack 0
  8353                           
  8354                           ; autosize = 4, savesize = 0, parsavesize = 0, tempsize = 0 parsize = 4, argsize = 4 var
      +                          gsize = 0, retsize = 0 argfudge = 0
  8355   004C86  52E6               	movf	postinc1,f,c
  8356   004C88  52E6               	movf	postinc1,f,c
  8357   004C8A  52E6               	movf	postinc1,f,c
  8358   004C8C  52E6               	movf	postinc1,f,c
  8359   004C8E                     
  8360                           ;stkvar	_src @ sp[(-4)+-4]
  8361   004C8E  0EF8               	movlw	-8
  8362   004C90  CFE3 F00B          	movff	plusw1,btemp+10
  8363   004C94  0EF9               	movlw	-7
  8364   004C96  CFE3 F00C          	movff	plusw1,btemp+11
  8365                           
  8366                           ;stkvar	_s @ sp[(-4)+2]
  8367   004C9A  0EFF               	movlw	-1
  8368   004C9C  C00C  FFE3         	movff	btemp+11,plusw1
  8369   004CA0  0EFE               	movlw	-2
  8370   004CA2  C00B  FFE3         	movff	btemp+10,plusw1
  8371                           
  8372                           ;stkvar	_dest @ sp[(-4)+-2]
  8373   004CA6  0EFA               	movlw	-6
  8374   004CA8  CFE3 F00B          	movff	plusw1,btemp+10
  8375   004CAC  0EFB               	movlw	-5
  8376   004CAE  CFE3 F00C          	movff	plusw1,btemp+11
  8377                           
  8378                           ;stkvar	_d @ sp[(-4)+0]
  8379   004CB2  0EFD               	movlw	-3
  8380   004CB4  C00C  FFE3         	movff	btemp+11,plusw1
  8381   004CB8  0EFC               	movlw	-4
  8382   004CBA  C00B  FFE3         	movff	btemp+10,plusw1
  8383   004CBE                     l3898:
  8384                           
  8385                           ;stkvar	_s @ sp[(-4)+2]
  8386   004CBE  50E1               	movf	fsr1l,w,c
  8387   004CC0  0FFE               	addlw	-2
  8388   004CC2  6ED9               	movwf	fsr2l,c
  8389   004CC4  50E2               	movf	fsr1h,w,c
  8390   004CC6  6EDA               	movwf	fsr2h,c
  8391   004CC8  0EFF               	movlw	255
  8392   004CCA  22DA               	addwfc	fsr2h,f,c
  8393   004CCC  CFDF F00B          	movff	indf2,btemp+10
  8394   004CD0  0E01               	movlw	1
  8395   004CD2  26DE               	addwf	postinc2,f,c
  8396   004CD4  CFDF F00C          	movff	indf2,btemp+11
  8397   004CD8  0E00               	movlw	0
  8398   004CDA  22DD               	addwfc	postdec2,f,c
  8399   004CDC  C00B  FFF6         	movff	btemp+10,tblptrl
  8400   004CE0  C00C  FFF7         	movff	btemp+11,tblptrh
  8401   004CE4                     	if	1	;Program memory is < 0x10000, tblptru is always zero
  8402   004CE4  6AF8               	clrf	tblptru,c
  8403   004CE6                     	endif
  8404   004CE6                     	if	0	;tblptru may be non-zero
  8405   004CE6                     	endif
  8406                           
  8407                           ;stkvar	_d @ sp[(-4)+0]
  8408   004CE6  50E1               	movf	fsr1l,w,c
  8409   004CE8  0FFC               	addlw	-4
  8410   004CEA  6ED9               	movwf	fsr2l,c
  8411   004CEC  50E2               	movf	fsr1h,w,c
  8412   004CEE  6EDA               	movwf	fsr2h,c
  8413   004CF0  0EFF               	movlw	255
  8414   004CF2  22DA               	addwfc	fsr2h,f,c
  8415   004CF4  CFDF F00B          	movff	indf2,btemp+10
  8416   004CF8  0E01               	movlw	1
  8417   004CFA  26DE               	addwf	postinc2,f,c
  8418   004CFC  CFDF F00C          	movff	indf2,btemp+11
  8419   004D00  0E00               	movlw	0
  8420   004D02  22DD               	addwfc	postdec2,f,c
  8421   004D04  C00B  FFD9         	movff	btemp+10,fsr2l
  8422   004D08  C00C  FFDA         	movff	btemp+11,fsr2h
  8423   004D0C  0008               	tblrd		*
  8424   004D0E  CFF5 FFDF          	movff	tablat,indf2
  8425   004D12  50DF               	movf	indf2,w,c
  8426   004D14  A4D8               	btfss	status,2,c
  8427   004D16  EF8F  F026         	goto	u3791
  8428   004D1A  EF91  F026         	goto	u3790
  8429   004D1E                     u3791:
  8430   004D1E  EF5F  F026         	goto	l3898
  8431   004D22                     u3790:
  8432   004D22                     
  8433                           ; _strcpy: autosize = 4, savesize = 0, parsavesize = 0, tempsize = 0 parsize = 4, argsiz
      +                          e = 4, vargsize = 0
  8434   004D22  0EF8               	movlw	248
  8435   004D24  26E1               	addwf	fsr1l,f,c
  8436   004D26  0EFF               	movlw	255
  8437   004D28  22E2               	addwfc	fsr1h,f,c
  8438   004D2A  0012               	return		;funcret
  8439   004D2C                     __end_of_strcpy:
  8440                           	callstack 0
  8441                           
  8442 ;; *************** function _pad *****************
  8443 ;; Defined at:
  8444 ;;		line 152 in file "C:\Program Files\Microchip\xc8\v2.41\pic\sources\c99\common\doprnt.c"
  8445 ;; Parameters:    Size  Location     Type
  8446 ;;  fp              2  [STACK] PTR struct _IO_FILE
  8447 ;;		 -> f(12), NULL(0), 
  8448 ;;  buf             2  [STACK] PTR unsigned char 
  8449 ;;		 -> dbuf(80), 
  8450 ;;  p               2  [STACK] int 
  8451 ;; Auto vars:     Size  Location     Type
  8452 ;;  w               2  [STACK] int 
  8453 ;;  i               2  [STACK] int 
  8454 ;; Return value:  Size  Location     Type
  8455 ;;                  1  [STACK] void 
  8456 ;; Registers used:
  8457 ;;		wreg, fsr0l, fsr0h, fsr1l, fsr1h, fsr2l, fsr2h, status,2, status,0, btemp, btemp+8, btemp+9, btemp+10, btemp+11, pro
      +dl
  8458 ;; Tracked objects:
  8459 ;;		On entry : 0/F
  8460 ;;		On exit  : 0/0
  8461 ;;		Unchanged: 0/0
  8462 ;; Data sizes:     COMRAM   BANK0   BANK1   BANK2   BANK3   BANK4   BANK5   BANK6   BANK7   BANK8   BANK9  BANK10  BANK1
      +1  BANK12  BANK13  BANK14  BANK15
  8463 ;;      Params:         0       0       0       0       0       0       0       0       0       0       0       0       
      +0       0       0       0       0
  8464 ;;      Locals:         0       0       0       0       0       0       0       0       0       0       0       0       
      +0       0       0       0       0
  8465 ;;      Temps:          0       0       0       0       0       0       0       0       0       0       0       0       
      +0       0       0       0       0
  8466 ;;      Totals:         0       0       0       0       0       0       0       0       0       0       0       0       
      +0       0       0       0       0
  8467 ;;Total ram usage:        0 bytes
  8468 ;; Hardware stack levels used: 1
  8469 ;; Hardware stack levels required when called: 10
  8470 ;; This function calls:
  8471 ;;		_fputc
  8472 ;;		_fputs
  8473 ;; This function is called by:
  8474 ;;		_efgtoa
  8475 ;; This function uses a reentrant model
  8476 ;;
  8477                           
  8478                           	psect	text32
  8479   0048C6                     __ptext32:
  8480                           	callstack 0
  8481   0048C6                     _pad:
  8482                           	callstack 0
  8483                           
  8484                           ; autosize = 4, savesize = 0, parsavesize = 0, tempsize = 0 parsize = 6, argsize = 6 var
      +                          gsize = 0, retsize = 0 argfudge = 0
  8485   0048C6  52E6               	movf	postinc1,f,c
  8486   0048C8  52E6               	movf	postinc1,f,c
  8487   0048CA  52E6               	movf	postinc1,f,c
  8488   0048CC  52E6               	movf	postinc1,f,c
  8489   0048CE                     
  8490                           ;C:\Program Files\Microchip\xc8\v2.41\pic\sources\c99\common\doprnt.c: 152: static void 
      +                          pad(FILE *fp, char *buf, int p);C:\Program Files\Microchip\xc8\v2.41\pic\sources\c99\com
      +                          mon\doprnt.c: 153: {;C:\Program Files\Microchip\xc8\v2.41\pic\sources\c99\common\doprnt.
      +                          c: 154:     int i, w;;C:\Program Files\Microchip\xc8\v2.41\pic\sources\c99\common\doprnt
      +                          .c: 164:     w = (p < 0) ? 0 : p;
  8491                           ;stkvar	_p @ sp[(-4)+-6]
  8492   0048CE  0EF7               	movlw	-9
  8493   0048D0  BEE3               	btfsc	plusw1,7,c
  8494   0048D2  EF6D  F024         	goto	u3701
  8495   0048D6  EF6F  F024         	goto	u3700
  8496   0048DA                     u3701:
  8497   0048DA  EF7D  F024         	goto	l3862
  8498   0048DE                     u3700:
  8499   0048DE                     
  8500                           ;stkvar	_p @ sp[(-4)+-6]
  8501                           ;stkvar	_w @ sp[(-4)+0]
  8502   0048DE  0EF6               	movlw	-10
  8503   0048E0  CFE3 F001          	movff	plusw1,btemp
  8504   0048E4  0EFC               	movlw	-4
  8505   0048E6  C001  FFE3         	movff	btemp,plusw1
  8506   0048EA  0EF7               	movlw	-9
  8507   0048EC  CFE3 F001          	movff	plusw1,btemp
  8508   0048F0  0EFD               	movlw	-3
  8509   0048F2  C001  FFE3         	movff	btemp,plusw1
  8510   0048F6  EF81  F024         	goto	l1115
  8511   0048FA                     l3862:
  8512                           
  8513                           ;stkvar	_w @ sp[(-4)+0]
  8514   0048FA  0EFC               	movlw	-4
  8515   0048FC  6AE3               	clrf	plusw1,c
  8516   0048FE  0EFD               	movlw	-3
  8517   004900  6AE3               	clrf	plusw1,c
  8518   004902                     l1115:
  8519                           
  8520                           ;C:\Program Files\Microchip\xc8\v2.41\pic\sources\c99\common\doprnt.c: 165:     i = 0;
  8521                           ;stkvar	_i @ sp[(-4)+2]
  8522   004902  0EFE               	movlw	-2
  8523   004904  6AE3               	clrf	plusw1,c
  8524   004906  0EFF               	movlw	-1
  8525   004908  6AE3               	clrf	plusw1,c
  8526                           
  8527                           ;C:\Program Files\Microchip\xc8\v2.41\pic\sources\c99\common\doprnt.c: 166:     while (i
      +                           < w) {
  8528   00490A  EFA1  F024         	goto	l3868
  8529   00490E                     l3864:
  8530                           
  8531                           ;C:\Program Files\Microchip\xc8\v2.41\pic\sources\c99\common\doprnt.c: 167:         fput
      +                          c(' ', fp);
  8532                           ;stkvar	_fp @ sp[(-4)+-2]
  8533   00490E  0EFA               	movlw	-6
  8534   004910  CFE3 FFE6          	movff	plusw1,postinc1
  8535   004914  CFE3 FFE6          	movff	plusw1,postinc1
  8536   004918  0E20               	movlw	32
  8537   00491A  6EE6               	movwf	postinc1,c
  8538   00491C  0E00               	movlw	0
  8539   00491E  6EE6               	movwf	postinc1,c
  8540   004920  ECCC  F01E         	call	_fputc	;wreg free
  8541   004924                     
  8542                           ;C:\Program Files\Microchip\xc8\v2.41\pic\sources\c99\common\doprnt.c: 168:         ++i;
  8543                           ;stkvar	_i @ sp[(-4)+2]
  8544   004924  0EFE               	movlw	-2
  8545   004926  50E3               	movf	plusw1,w,c
  8546   004928  0F01               	addlw	1
  8547   00492A  6E01               	movwf	btemp^0,c
  8548   00492C  0EFE               	movlw	-2
  8549   00492E  C001  FFE3         	movff	btemp,plusw1
  8550   004932  6A01               	clrf	btemp^0,c
  8551   004934  0EFF               	movlw	-1
  8552   004936  50E3               	movf	plusw1,w,c
  8553   004938  2001               	addwfc	btemp^0,w,c
  8554   00493A  6E01               	movwf	btemp^0,c
  8555   00493C  0EFF               	movlw	-1
  8556   00493E  C001  FFE3         	movff	btemp,plusw1
  8557   004942                     l3868:
  8558                           
  8559                           ;C:\Program Files\Microchip\xc8\v2.41\pic\sources\c99\common\doprnt.c: 166:     while (i
      +                           < w) {
  8560                           ;stkvar	_w @ sp[(-4)+0]
  8561                           ;stkvar	_i @ sp[(-4)+2]
  8562   004942  50E1               	movf	fsr1l,w,c
  8563   004944  0FFE               	addlw	-2
  8564   004946  6ED9               	movwf	fsr2l,c
  8565   004948  50E2               	movf	fsr1h,w,c
  8566   00494A  6EDA               	movwf	fsr2h,c
  8567   00494C  0EFF               	movlw	255
  8568   00494E  22DA               	addwfc	fsr2h,f,c
  8569   004950  0EFC               	movlw	-4
  8570   004952  50E3               	movf	plusw1,w,c
  8571   004954  5CDE               	subwf	postinc2,w,c
  8572   004956  50DE               	movf	postinc2,w,c
  8573   004958  0A80               	xorlw	128
  8574   00495A  6E01               	movwf	btemp^0,c
  8575   00495C  0EFD               	movlw	-3
  8576   00495E  50E3               	movf	plusw1,w,c
  8577   004960  0A80               	xorlw	128
  8578   004962  5801               	subwfb	btemp^0,w,c
  8579   004964  A0D8               	btfss	status,0,c
  8580   004966  EFB7  F024         	goto	u3711
  8581   00496A  EFB9  F024         	goto	u3710
  8582   00496E                     u3711:
  8583   00496E  EF87  F024         	goto	l3864
  8584   004972                     u3710:
  8585   004972                     
  8586                           ;C:\Program Files\Microchip\xc8\v2.41\pic\sources\c99\common\doprnt.c: 175:         fput
      +                          s((const char *)buf, fp);
  8587                           ;stkvar	_fp @ sp[(-4)+-2]
  8588   004972  0EFA               	movlw	-6
  8589   004974  CFE3 FFE6          	movff	plusw1,postinc1
  8590   004978  CFE3 FFE6          	movff	plusw1,postinc1
  8591                           
  8592                           ;stkvar	_buf @ sp[(-6)+-4]
  8593   00497C  0EF6               	movlw	-10
  8594   00497E  CFE3 FFE6          	movff	plusw1,postinc1
  8595   004982  CFE3 FFE6          	movff	plusw1,postinc1
  8596   004986  ECE1  F026         	call	_fputs	;wreg free
  8597   00498A                     
  8598                           ; _pad: autosize = 4, savesize = 0, parsavesize = 0, tempsize = 0 parsize = 6, argsize =
      +                           6, vargsize = 0
  8599   00498A  0EF6               	movlw	246
  8600   00498C  26E1               	addwf	fsr1l,f,c
  8601   00498E  0EFF               	movlw	255
  8602   004990  22E2               	addwfc	fsr1h,f,c
  8603   004992  0012               	return		;funcret
  8604   004994                     __end_of_pad:
  8605                           	callstack 0
  8606                           
  8607 ;; *************** function _fputs *****************
  8608 ;; Defined at:
  8609 ;;		line 8 in file "C:\Program Files\Microchip\xc8\v2.41\pic\sources\c99\common\nf_fputs.c"
  8610 ;; Parameters:    Size  Location     Type
  8611 ;;  s               2  [STACK] PTR const unsigned char 
  8612 ;;		 -> dbuf(80), 
  8613 ;;  fp              2  [STACK] PTR struct _IO_FILE
  8614 ;;		 -> f(12), NULL(0), 
  8615 ;; Auto vars:     Size  Location     Type
  8616 ;;  i               2  [STACK] int 
  8617 ;;  c               1  [STACK] unsigned char 
  8618 ;; Return value:  Size  Location     Type
  8619 ;;                  2  [STACK] int 
  8620 ;; Registers used:
  8621 ;;		wreg, fsr0l, fsr0h, fsr1l, fsr1h, fsr2l, fsr2h, status,2, status,0, btemp, btemp+8, btemp+9, btemp+10, btemp+11, pro
      +dl
  8622 ;; Tracked objects:
  8623 ;;		On entry : 0/F
  8624 ;;		On exit  : 0/0
  8625 ;;		Unchanged: 0/0
  8626 ;; Data sizes:     COMRAM   BANK0   BANK1   BANK2   BANK3   BANK4   BANK5   BANK6   BANK7   BANK8   BANK9  BANK10  BANK1
      +1  BANK12  BANK13  BANK14  BANK15
  8627 ;;      Params:         0       0       0       0       0       0       0       0       0       0       0       0       
      +0       0       0       0       0
  8628 ;;      Locals:         0       0       0       0       0       0       0       0       0       0       0       0       
      +0       0       0       0       0
  8629 ;;      Temps:          0       0       0       0       0       0       0       0       0       0       0       0       
      +0       0       0       0       0
  8630 ;;      Totals:         0       0       0       0       0       0       0       0       0       0       0       0       
      +0       0       0       0       0
  8631 ;;Total ram usage:        0 bytes
  8632 ;; Hardware stack levels used: 1
  8633 ;; Hardware stack levels required when called: 9
  8634 ;; This function calls:
  8635 ;;		_fputc
  8636 ;; This function is called by:
  8637 ;;		_pad
  8638 ;; This function uses a reentrant model
  8639 ;;
  8640                           
  8641                           	psect	text33
  8642   004DC2                     __ptext33:
  8643                           	callstack 0
  8644   004DC2                     _fputs:
  8645                           	callstack 0
  8646                           
  8647                           ; autosize = 3, savesize = 0, parsavesize = 0, tempsize = 0 parsize = 4, argsize = 4 var
      +                          gsize = 0, retsize = 0 argfudge = 0
  8648   004DC2  52E6               	movf	postinc1,f,c
  8649   004DC4  52E6               	movf	postinc1,f,c
  8650   004DC6  52E6               	movf	postinc1,f,c
  8651   004DC8                     
  8652                           ;stkvar	_i @ sp[(-3)+0]
  8653   004DC8  0EFD               	movlw	-3
  8654   004DCA  6AE3               	clrf	plusw1,c
  8655   004DCC  0EFE               	movlw	-2
  8656   004DCE  6AE3               	clrf	plusw1,c
  8657   004DD0  EF05  F027         	goto	l3446
  8658   004DD4                     l3442:
  8659                           
  8660                           ;stkvar	_fp @ sp[(-3)+-4]
  8661   004DD4  0EF9               	movlw	-7
  8662   004DD6  CFE3 FFE6          	movff	plusw1,postinc1
  8663   004DDA  CFE3 FFE6          	movff	plusw1,postinc1
  8664                           
  8665                           ;stkvar	_c @ sp[(-5)+2]
  8666   004DDE  0EFD               	movlw	-3
  8667   004DE0  50E3               	movf	plusw1,w,c
  8668   004DE2  6EE6               	movwf	postinc1,c
  8669   004DE4  0E00               	movlw	0
  8670   004DE6  6EE6               	movwf	postinc1,c
  8671   004DE8  ECCC  F01E         	call	_fputc	;wreg free
  8672   004DEC                     
  8673                           ;stkvar	_i @ sp[(-3)+0]
  8674   004DEC  0EFD               	movlw	-3
  8675   004DEE  50E3               	movf	plusw1,w,c
  8676   004DF0  0F01               	addlw	1
  8677   004DF2  6E01               	movwf	btemp^0,c
  8678   004DF4  0EFD               	movlw	-3
  8679   004DF6  C001  FFE3         	movff	btemp,plusw1
  8680   004DFA  6A01               	clrf	btemp^0,c
  8681   004DFC  0EFE               	movlw	-2
  8682   004DFE  50E3               	movf	plusw1,w,c
  8683   004E00  2001               	addwfc	btemp^0,w,c
  8684   004E02  6E01               	movwf	btemp^0,c
  8685   004E04  0EFE               	movlw	-2
  8686   004E06  C001  FFE3         	movff	btemp,plusw1
  8687   004E0A                     l3446:
  8688                           
  8689                           ;stkvar	_i @ sp[(-3)+0]
  8690   004E0A  0EFD               	movlw	-3
  8691   004E0C  CFE3 F00B          	movff	plusw1,btemp+10
  8692   004E10  0EFE               	movlw	-2
  8693   004E12  CFE3 F00C          	movff	plusw1,btemp+11
  8694                           
  8695                           ;stkvar	_s @ sp[(-3)+-2]
  8696   004E16  0EFB               	movlw	-5
  8697   004E18  CFE3 F009          	movff	plusw1,btemp+8
  8698   004E1C  0EFC               	movlw	-4
  8699   004E1E  CFE3 F00A          	movff	plusw1,btemp+9
  8700   004E22  500B               	movf	(btemp+10)^0,w,c
  8701   004E24  2409               	addwf	(btemp+8)^0,w,c
  8702   004E26  6ED9               	movwf	fsr2l,c
  8703   004E28  500C               	movf	(btemp+11)^0,w,c
  8704   004E2A  200A               	addwfc	(btemp+9)^0,w,c
  8705   004E2C  6EDA               	movwf	fsr2h,c
  8706   004E2E  50DF               	movf	indf2,w,c
  8707   004E30  6E0C               	movwf	(btemp+11)^0,c
  8708                           
  8709                           ;stkvar	_c @ sp[(-3)+2]
  8710   004E32  0EFF               	movlw	-1
  8711   004E34  C00C  FFE3         	movff	btemp+11,plusw1
  8712   004E38  0EFF               	movlw	-1
  8713   004E3A  50E3               	movf	plusw1,w,c
  8714   004E3C  A4D8               	btfss	status,2,c
  8715   004E3E  EF23  F027         	goto	u3041
  8716   004E42  EF25  F027         	goto	u3040
  8717   004E46                     u3041:
  8718   004E46  EFEA  F026         	goto	l3442
  8719   004E4A                     u3040:
  8720   004E4A                     
  8721                           ; _fputs: autosize = 3, savesize = 0, parsavesize = 0, tempsize = 0 parsize = 4, argsize
      +                           = 4, vargsize = 0
  8722   004E4A  0EF9               	movlw	249
  8723   004E4C  26E1               	addwf	fsr1l,f,c
  8724   004E4E  0EFF               	movlw	255
  8725   004E50  22E2               	addwfc	fsr1h,f,c
  8726   004E52  0012               	return		;funcret
  8727   004E54                     __end_of_fputs:
  8728                           	callstack 0
  8729                           
  8730 ;; *************** function _fputc *****************
  8731 ;; Defined at:
  8732 ;;		line 8 in file "C:\Program Files\Microchip\xc8\v2.41\pic\sources\c99\common\nf_fputc.c"
  8733 ;; Parameters:    Size  Location     Type
  8734 ;;  c               2  [STACK] int 
  8735 ;;  fp              2  [STACK] PTR struct _IO_FILE
  8736 ;;		 -> f(12), NULL(0), 
  8737 ;; Auto vars:     Size  Location     Type
  8738 ;;		None
  8739 ;; Return value:  Size  Location     Type
  8740 ;;                  2  [STACK] int 
  8741 ;; Registers used:
  8742 ;;		wreg, fsr0l, fsr0h, fsr1l, fsr1h, fsr2l, fsr2h, status,2, status,0, btemp, btemp+8, btemp+9, btemp+10, btemp+11, pro
      +dl
  8743 ;; Tracked objects:
  8744 ;;		On entry : 0/F
  8745 ;;		On exit  : 0/0
  8746 ;;		Unchanged: 0/0
  8747 ;; Data sizes:     COMRAM   BANK0   BANK1   BANK2   BANK3   BANK4   BANK5   BANK6   BANK7   BANK8   BANK9  BANK10  BANK1
      +1  BANK12  BANK13  BANK14  BANK15
  8748 ;;      Params:         0       0       0       0       0       0       0       0       0       0       0       0       
      +0       0       0       0       0
  8749 ;;      Locals:         0       0       0       0       0       0       0       0       0       0       0       0       
      +0       0       0       0       0
  8750 ;;      Temps:          0       0       0       0       0       0       0       0       0       0       0       0       
      +0       0       0       0       0
  8751 ;;      Totals:         0       0       0       0       0       0       0       0       0       0       0       0       
      +0       0       0       0       0
  8752 ;;Total ram usage:        0 bytes
  8753 ;; Hardware stack levels used: 1
  8754 ;; Hardware stack levels required when called: 8
  8755 ;; This function calls:
  8756 ;;		_putch
  8757 ;; This function is called by:
  8758 ;;		_pad
  8759 ;;		_stoa
  8760 ;;		_vfpfcnvrt
  8761 ;;		_fputs
  8762 ;; This function uses a reentrant model
  8763 ;;
  8764                           
  8765                           	psect	text34
  8766   003D98                     __ptext34:
  8767                           	callstack 0
  8768   003D98                     _fputc:
  8769                           	callstack 0
  8770   003D98                     
  8771                           ;stkvar	_fp @ sp[(0)+-4]
  8772   003D98  0EFC               	movlw	-4
  8773   003D9A  CFE3 F001          	movff	plusw1,btemp
  8774   003D9E  0EFD               	movlw	-3
  8775   003DA0  50E3               	movf	plusw1,w,c
  8776   003DA2  1001               	iorwf	btemp^0,w,c
  8777   003DA4  B4D8               	btfsc	status,2,c
  8778   003DA6  EFD7  F01E         	goto	u2581
  8779   003DAA  EFD9  F01E         	goto	u2580
  8780   003DAE                     u2581:
  8781   003DAE  EFE6  F01E         	goto	l3208
  8782   003DB2                     u2580:
  8783   003DB2                     
  8784                           ;stkvar	_fp @ sp[(0)+-4]
  8785   003DB2  0EFC               	movlw	-4
  8786   003DB4  CFE3 F001          	movff	plusw1,btemp
  8787   003DB8  0EFD               	movlw	-3
  8788   003DBA  50E3               	movf	plusw1,w,c
  8789   003DBC  1001               	iorwf	btemp^0,w,c
  8790   003DBE  A4D8               	btfss	status,2,c
  8791   003DC0  EFE4  F01E         	goto	u2591
  8792   003DC4  EFE6  F01E         	goto	u2590
  8793   003DC8                     u2591:
  8794   003DC8  EFED  F01E         	goto	l3210
  8795   003DCC                     u2590:
  8796   003DCC                     l3208:
  8797                           
  8798                           ;stkvar	_c @ sp[(0)+-2]
  8799   003DCC  0EFE               	movlw	-2
  8800   003DCE  50E3               	movf	plusw1,w,c
  8801   003DD0  6EE6               	movwf	postinc1,c
  8802   003DD2  ECEB  F029         	call	_putch	;wreg free
  8803   003DD6  EF5B  F01F         	goto	l1280
  8804   003DDA                     l3210:
  8805                           
  8806                           ;stkvar	_fp @ sp[(0)+-4]
  8807   003DDA  0EFC               	movlw	-4
  8808   003DDC  CFE3 F00B          	movff	plusw1,btemp+10
  8809   003DE0  0EFD               	movlw	-3
  8810   003DE2  CFE3 F00C          	movff	plusw1,btemp+11
  8811   003DE6  0E0A               	movlw	10
  8812   003DE8  240B               	addwf	(btemp+10)^0,w,c
  8813   003DEA  6ED9               	movwf	fsr2l,c
  8814   003DEC  0E00               	movlw	0
  8815   003DEE  200C               	addwfc	(btemp+11)^0,w,c
  8816   003DF0  6EDA               	movwf	fsr2h,c
  8817   003DF2  50DE               	movf	postinc2,w,c
  8818   003DF4  10DE               	iorwf	postinc2,w,c
  8819   003DF6  B4D8               	btfsc	status,2,c
  8820   003DF8  EF00  F01F         	goto	u2601
  8821   003DFC  EF02  F01F         	goto	u2600
  8822   003E00                     u2601:
  8823   003E00  EF29  F01F         	goto	l3214
  8824   003E04                     u2600:
  8825   003E04                     
  8826                           ;stkvar	_fp @ sp[(0)+-4]
  8827   003E04  0EFC               	movlw	-4
  8828   003E06  CFE3 F00B          	movff	plusw1,btemp+10
  8829   003E0A  0EFD               	movlw	-3
  8830   003E0C  CFE3 F00C          	movff	plusw1,btemp+11
  8831   003E10  0E0A               	movlw	10
  8832   003E12  240B               	addwf	(btemp+10)^0,w,c
  8833   003E14  6ED9               	movwf	fsr2l,c
  8834   003E16  0E00               	movlw	0
  8835   003E18  200C               	addwfc	(btemp+11)^0,w,c
  8836   003E1A  6EDA               	movwf	fsr2h,c
  8837                           
  8838                           ;stkvar	_fp @ sp[(0)+-4]
  8839   003E1C  0EFC               	movlw	-4
  8840   003E1E  CFE3 F00B          	movff	plusw1,btemp+10
  8841   003E22  0EFD               	movlw	-3
  8842   003E24  CFE3 F00C          	movff	plusw1,btemp+11
  8843   003E28  0E03               	movlw	3
  8844   003E2A  240B               	addwf	(btemp+10)^0,w,c
  8845   003E2C  6EE9               	movwf	fsr0l,c
  8846   003E2E  0E00               	movlw	0
  8847   003E30  200C               	addwfc	(btemp+11)^0,w,c
  8848   003E32  6EEA               	movwf	fsr0h,c
  8849   003E34  50DE               	movf	postinc2,w,c
  8850   003E36  5CEE               	subwf	postinc0,w,c
  8851   003E38  50EE               	movf	postinc0,w,c
  8852   003E3A  0A80               	xorlw	128
  8853   003E3C  6E01               	movwf	btemp^0,c
  8854   003E3E  50DE               	movf	postinc2,w,c
  8855   003E40  0A80               	xorlw	128
  8856   003E42  5801               	subwfb	btemp^0,w,c
  8857   003E44  B0D8               	btfsc	status,0,c
  8858   003E46  EF27  F01F         	goto	u2611
  8859   003E4A  EF29  F01F         	goto	u2610
  8860   003E4E                     u2611:
  8861   003E4E  EF5B  F01F         	goto	l1280
  8862   003E52                     u2610:
  8863   003E52                     l3214:
  8864                           
  8865                           ;stkvar	_c @ sp[(0)+-2]
  8866                           ;stkvar	_fp @ sp[(0)+-4]
  8867   003E52  0EFC               	movlw	-4
  8868   003E54  CFE3 F00B          	movff	plusw1,btemp+10
  8869   003E58  0EFD               	movlw	-3
  8870   003E5A  CFE3 F00C          	movff	plusw1,btemp+11
  8871   003E5E  0E03               	movlw	3
  8872   003E60  240B               	addwf	(btemp+10)^0,w,c
  8873   003E62  6ED9               	movwf	fsr2l,c
  8874   003E64  0E00               	movlw	0
  8875   003E66  200C               	addwfc	(btemp+11)^0,w,c
  8876   003E68  6EDA               	movwf	fsr2h,c
  8877   003E6A  CFDE F00B          	movff	postinc2,btemp+10
  8878   003E6E  CFDD F00C          	movff	postdec2,btemp+11
  8879                           
  8880                           ;stkvar	_fp @ sp[(0)+-4]
  8881   003E72  0EFC               	movlw	-4
  8882   003E74  CFE3 FFD9          	movff	plusw1,fsr2l
  8883   003E78  0EFD               	movlw	-3
  8884   003E7A  CFE3 FFDA          	movff	plusw1,fsr2h
  8885   003E7E  CFDE F009          	movff	postinc2,btemp+8
  8886   003E82  CFDD F00A          	movff	postdec2,btemp+9
  8887   003E86  500B               	movf	(btemp+10)^0,w,c
  8888   003E88  2409               	addwf	(btemp+8)^0,w,c
  8889   003E8A  6ED9               	movwf	fsr2l,c
  8890   003E8C  500C               	movf	(btemp+11)^0,w,c
  8891   003E8E  200A               	addwfc	(btemp+9)^0,w,c
  8892   003E90  6EDA               	movwf	fsr2h,c
  8893   003E92  0EFE               	movlw	-2
  8894   003E94  CFE3 FFDF          	movff	plusw1,indf2
  8895   003E98                     
  8896                           ;stkvar	_fp @ sp[(0)+-4]
  8897   003E98  0EFC               	movlw	-4
  8898   003E9A  CFE3 F00B          	movff	plusw1,btemp+10
  8899   003E9E  0EFD               	movlw	-3
  8900   003EA0  CFE3 F00C          	movff	plusw1,btemp+11
  8901   003EA4  0E03               	movlw	3
  8902   003EA6  240B               	addwf	(btemp+10)^0,w,c
  8903   003EA8  6ED9               	movwf	fsr2l,c
  8904   003EAA  0E00               	movlw	0
  8905   003EAC  200C               	addwfc	(btemp+11)^0,w,c
  8906   003EAE  6EDA               	movwf	fsr2h,c
  8907   003EB0  2ADE               	incf	postinc2,f,c
  8908   003EB2  0E00               	movlw	0
  8909   003EB4  22DD               	addwfc	postdec2,f,c
  8910   003EB6                     l1280:
  8911                           
  8912                           ; _fputc: autosize = 0, savesize = 0, parsavesize = 0, tempsize = 0 parsize = 4, argsize
      +                           = 4, vargsize = 0
  8913   003EB6  52E5               	movf	postdec1,f,c
  8914   003EB8  52E5               	movf	postdec1,f,c
  8915   003EBA  52E5               	movf	postdec1,f,c
  8916   003EBC  52E5               	movf	postdec1,f,c
  8917   003EBE  0012               	return		;funcret
  8918   003EC0                     __end_of_fputc:
  8919                           	callstack 0
  8920                           
  8921 ;; *************** function _putch *****************
  8922 ;; Defined at:
  8923 ;;		line 22 in file "uart.c"
  8924 ;; Parameters:    Size  Location     Type
  8925 ;;  data            1  [STACK] unsigned char 
  8926 ;; Auto vars:     Size  Location     Type
  8927 ;;		None
  8928 ;; Return value:  Size  Location     Type
  8929 ;;                  1  [STACK] void 
  8930 ;; Registers used:
  8931 ;;		fsr1l, fsr1h
  8932 ;; Tracked objects:
  8933 ;;		On entry : 0/F
  8934 ;;		On exit  : 0/0
  8935 ;;		Unchanged: 0/0
  8936 ;; Data sizes:     COMRAM   BANK0   BANK1   BANK2   BANK3   BANK4   BANK5   BANK6   BANK7   BANK8   BANK9  BANK10  BANK1
      +1  BANK12  BANK13  BANK14  BANK15
  8937 ;;      Params:         0       0       0       0       0       0       0       0       0       0       0       0       
      +0       0       0       0       0
  8938 ;;      Locals:         0       0       0       0       0       0       0       0       0       0       0       0       
      +0       0       0       0       0
  8939 ;;      Temps:          0       0       0       0       0       0       0       0       0       0       0       0       
      +0       0       0       0       0
  8940 ;;      Totals:         0       0       0       0       0       0       0       0       0       0       0       0       
      +0       0       0       0       0
  8941 ;;Total ram usage:        0 bytes
  8942 ;; Hardware stack levels used: 1
  8943 ;; Hardware stack levels required when called: 7
  8944 ;; This function calls:
  8945 ;;		Nothing
  8946 ;; This function is called by:
  8947 ;;		_fputc
  8948 ;; This function uses a reentrant model
  8949 ;;
  8950                           
  8951                           	psect	text35
  8952   0053D6                     __ptext35:
  8953                           	callstack 0
  8954   0053D6                     _putch:
  8955                           	callstack 0
  8956   0053D6                     l56:
  8957   0053D6  A89E               	btfss	3998,4,c	;volatile
  8958   0053D8  EFF0  F029         	goto	u2571
  8959   0053DC  EFF2  F029         	goto	u2570
  8960   0053E0                     u2571:
  8961   0053E0  EFEB  F029         	goto	l56
  8962   0053E4                     u2570:
  8963   0053E4                     
  8964                           ;uart.c: 24:     TXREG1 = data;
  8965                           ;stkvar	_data @ sp[(0)+-1]
  8966   0053E4  0EFF               	movlw	-1
  8967   0053E6  CFE3 FFAD          	movff	plusw1,4013	;volatile
  8968   0053EA                     
  8969                           ; _putch: autosize = 0, savesize = 0, parsavesize = 0, tempsize = 0 parsize = 1, argsize
      +                           = 1, vargsize = 0
  8970   0053EA  52E5               	movf	postdec1,f,c
  8971   0053EC  0012               	return		;funcret
  8972   0053EE                     __end_of_putch:
  8973                           	callstack 0
  8974                           
  8975 ;; *************** function _memcpy *****************
  8976 ;; Defined at:
  8977 ;;		line 4 in file "C:\Program Files\Microchip\xc8\v2.41\pic\sources\c99\common\memcpy.c"
  8978 ;; Parameters:    Size  Location     Type
  8979 ;;  d1              2  [STACK] PTR void 
  8980 ;;		 -> dbuf(80), 
  8981 ;;  s1              2  [STACK] PTR const void 
  8982 ;;		 -> dbuf(80), 
  8983 ;;  n               2  [STACK] unsigned int 
  8984 ;; Auto vars:     Size  Location     Type
  8985 ;;  s               2  [STACK] PTR const unsigned char 
  8986 ;;		 -> dbuf(80), 
  8987 ;;  d               2  [STACK] PTR unsigned char 
  8988 ;;		 -> dbuf(80), 
  8989 ;;  tmp             1  [STACK] unsigned char 
  8990 ;; Return value:  Size  Location     Type
  8991 ;;                  2  [STACK] PTR void 
  8992 ;; Registers used:
  8993 ;;		wreg, fsr1l, fsr1h, fsr2l, fsr2h, status,2, status,0, btemp, btemp+10, btemp+11
  8994 ;; Tracked objects:
  8995 ;;		On entry : 0/F
  8996 ;;		On exit  : 0/0
  8997 ;;		Unchanged: 0/0
  8998 ;; Data sizes:     COMRAM   BANK0   BANK1   BANK2   BANK3   BANK4   BANK5   BANK6   BANK7   BANK8   BANK9  BANK10  BANK1
      +1  BANK12  BANK13  BANK14  BANK15
  8999 ;;      Params:         0       0       0       0       0       0       0       0       0       0       0       0       
      +0       0       0       0       0
  9000 ;;      Locals:         0       0       0       0       0       0       0       0       0       0       0       0       
      +0       0       0       0       0
  9001 ;;      Temps:          0       0       0       0       0       0       0       0       0       0       0       0       
      +0       0       0       0       0
  9002 ;;      Totals:         0       0       0       0       0       0       0       0       0       0       0       0       
      +0       0       0       0       0
  9003 ;;Total ram usage:        0 bytes
  9004 ;; Hardware stack levels used: 1
  9005 ;; Hardware stack levels required when called: 7
  9006 ;; This function calls:
  9007 ;;		Nothing
  9008 ;; This function is called by:
  9009 ;;		_efgtoa
  9010 ;; This function uses a reentrant model
  9011 ;;
  9012                           
  9013                           	psect	text36
  9014   0042D6                     __ptext36:
  9015                           	callstack 0
  9016   0042D6                     _memcpy:
  9017                           	callstack 0
  9018                           
  9019                           ; autosize = 5, savesize = 0, parsavesize = 0, tempsize = 0 parsize = 6, argsize = 6 var
      +                          gsize = 0, retsize = 0 argfudge = 0
  9020   0042D6  0E05               	movlw	5
  9021   0042D8  26E1               	addwf	fsr1l,f,c
  9022   0042DA  0E00               	movlw	0
  9023   0042DC  22E2               	addwfc	fsr1h,f,c
  9024   0042DE                     
  9025                           ;stkvar	_s1 @ sp[(-5)+-4]
  9026   0042DE  0EF7               	movlw	-9
  9027   0042E0  CFE3 F00B          	movff	plusw1,btemp+10
  9028   0042E4  0EF8               	movlw	-8
  9029   0042E6  CFE3 F00C          	movff	plusw1,btemp+11
  9030                           
  9031                           ;stkvar	_s @ sp[(-5)+0]
  9032   0042EA  0EFC               	movlw	-4
  9033   0042EC  C00C  FFE3         	movff	btemp+11,plusw1
  9034   0042F0  0EFB               	movlw	-5
  9035   0042F2  C00B  FFE3         	movff	btemp+10,plusw1
  9036                           
  9037                           ;stkvar	_d1 @ sp[(-5)+-2]
  9038   0042F6  0EF9               	movlw	-7
  9039   0042F8  CFE3 F00B          	movff	plusw1,btemp+10
  9040   0042FC  0EFA               	movlw	-6
  9041   0042FE  CFE3 F00C          	movff	plusw1,btemp+11
  9042                           
  9043                           ;stkvar	_d @ sp[(-5)+2]
  9044   004302  0EFE               	movlw	-2
  9045   004304  C00C  FFE3         	movff	btemp+11,plusw1
  9046   004308  0EFD               	movlw	-3
  9047   00430A  C00B  FFE3         	movff	btemp+10,plusw1
  9048   00430E  EFBB  F021         	goto	l3956
  9049   004312                     l3948:
  9050                           
  9051                           ;stkvar	_s @ sp[(-5)+0]
  9052   004312  0EFB               	movlw	-5
  9053   004314  CFE3 FFD9          	movff	plusw1,fsr2l
  9054   004318  0EFC               	movlw	-4
  9055   00431A  CFE3 FFDA          	movff	plusw1,fsr2h
  9056   00431E  50DF               	movf	indf2,w,c
  9057   004320  6E0C               	movwf	(btemp+11)^0,c
  9058                           
  9059                           ;stkvar	_tmp @ sp[(-5)+4]
  9060   004322  0EFF               	movlw	-1
  9061   004324  C00C  FFE3         	movff	btemp+11,plusw1
  9062   004328                     
  9063                           ;stkvar	_s @ sp[(-5)+0]
  9064   004328  0EFB               	movlw	-5
  9065   00432A  50E3               	movf	plusw1,w,c
  9066   00432C  0F01               	addlw	1
  9067   00432E  6E01               	movwf	btemp^0,c
  9068   004330  0EFB               	movlw	-5
  9069   004332  C001  FFE3         	movff	btemp,plusw1
  9070   004336  6A01               	clrf	btemp^0,c
  9071   004338  0EFC               	movlw	-4
  9072   00433A  50E3               	movf	plusw1,w,c
  9073   00433C  2001               	addwfc	btemp^0,w,c
  9074   00433E  6E01               	movwf	btemp^0,c
  9075   004340  0EFC               	movlw	-4
  9076   004342  C001  FFE3         	movff	btemp,plusw1
  9077   004346                     
  9078                           ;stkvar	_tmp @ sp[(-5)+4]
  9079                           ;stkvar	_d @ sp[(-5)+2]
  9080   004346  0EFD               	movlw	-3
  9081   004348  CFE3 FFD9          	movff	plusw1,fsr2l
  9082   00434C  0EFE               	movlw	-2
  9083   00434E  CFE3 FFDA          	movff	plusw1,fsr2h
  9084   004352  0EFF               	movlw	-1
  9085   004354  CFE3 FFDF          	movff	plusw1,indf2
  9086   004358                     
  9087                           ;stkvar	_d @ sp[(-5)+2]
  9088   004358  0EFD               	movlw	-3
  9089   00435A  50E3               	movf	plusw1,w,c
  9090   00435C  0F01               	addlw	1
  9091   00435E  6E01               	movwf	btemp^0,c
  9092   004360  0EFD               	movlw	-3
  9093   004362  C001  FFE3         	movff	btemp,plusw1
  9094   004366  6A01               	clrf	btemp^0,c
  9095   004368  0EFE               	movlw	-2
  9096   00436A  50E3               	movf	plusw1,w,c
  9097   00436C  2001               	addwfc	btemp^0,w,c
  9098   00436E  6E01               	movwf	btemp^0,c
  9099   004370  0EFE               	movlw	-2
  9100   004372  C001  FFE3         	movff	btemp,plusw1
  9101   004376                     l3956:
  9102                           
  9103                           ;stkvar	_n @ sp[(-5)+-6]
  9104   004376  0EF5               	movlw	-11
  9105   004378  CFE3 F001          	movff	plusw1,btemp
  9106   00437C  0E01               	movlw	1
  9107   00437E  5E01               	subwf	btemp^0,f,c
  9108   004380  0EF5               	movlw	-11
  9109   004382  C001  FFE3         	movff	btemp,plusw1
  9110   004386  0EF6               	movlw	-10
  9111   004388  CFE3 F001          	movff	plusw1,btemp
  9112   00438C  0E00               	movlw	0
  9113   00438E  5A01               	subwfb	btemp^0,f,c
  9114   004390  0EF6               	movlw	-10
  9115   004392  C001  FFE3         	movff	btemp,plusw1
  9116   004396  0EF5               	movlw	-11
  9117   004398  28E3               	incf	plusw1,w,c
  9118   00439A  E107               	bnz	u3911
  9119   00439C  0EF6               	movlw	-10
  9120   00439E  28E3               	incf	plusw1,w,c
  9121   0043A0  A4D8               	btfss	status,2,c
  9122   0043A2  EFD5  F021         	goto	u3911
  9123   0043A6  EFD7  F021         	goto	u3910
  9124   0043AA                     u3911:
  9125   0043AA  EF89  F021         	goto	l3948
  9126   0043AE                     u3910:
  9127   0043AE                     
  9128                           ; _memcpy: autosize = 5, savesize = 0, parsavesize = 0, tempsize = 0 parsize = 6, argsiz
      +                          e = 6, vargsize = 0
  9129   0043AE  0EF5               	movlw	245
  9130   0043B0  26E1               	addwf	fsr1l,f,c
  9131   0043B2  0EFF               	movlw	255
  9132   0043B4  22E2               	addwfc	fsr1h,f,c
  9133   0043B6  0012               	return		;funcret
  9134   0043B8                     __end_of_memcpy:
  9135                           	callstack 0
  9136                           
  9137 ;; *************** function _labs *****************
  9138 ;; Defined at:
  9139 ;;		line 1 in file "C:\Program Files\Microchip\xc8\v2.41\pic\sources\c99\common\labs.c"
  9140 ;; Parameters:    Size  Location     Type
  9141 ;;  a               4  [STACK] long 
  9142 ;; Auto vars:     Size  Location     Type
  9143 ;;		None
  9144 ;; Return value:  Size  Location     Type
  9145 ;;                  4  [STACK] long 
  9146 ;; Registers used:
  9147 ;;		wreg, fsr1l, fsr1h, status,2, status,0, btemp, btemp+1, btemp+2, btemp+3
  9148 ;; Tracked objects:
  9149 ;;		On entry : 0/F
  9150 ;;		On exit  : 0/0
  9151 ;;		Unchanged: 0/0
  9152 ;; Data sizes:     COMRAM   BANK0   BANK1   BANK2   BANK3   BANK4   BANK5   BANK6   BANK7   BANK8   BANK9  BANK10  BANK1
      +1  BANK12  BANK13  BANK14  BANK15
  9153 ;;      Params:         0       0       0       0       0       0       0       0       0       0       0       0       
      +0       0       0       0       0
  9154 ;;      Locals:         0       0       0       0       0       0       0       0       0       0       0       0       
      +0       0       0       0       0
  9155 ;;      Temps:          0       0       0       0       0       0       0       0       0       0       0       0       
      +0       0       0       0       0
  9156 ;;      Totals:         0       0       0       0       0       0       0       0       0       0       0       0       
      +0       0       0       0       0
  9157 ;;Total ram usage:        0 bytes
  9158 ;; Hardware stack levels used: 1
  9159 ;; Hardware stack levels required when called: 7
  9160 ;; This function calls:
  9161 ;;		Nothing
  9162 ;; This function is called by:
  9163 ;;		_efgtoa
  9164 ;; This function uses a reentrant model
  9165 ;;
  9166                           
  9167                           	psect	text37
  9168   004F5A                     __ptext37:
  9169                           	callstack 0
  9170   004F5A                     _labs:
  9171                           	callstack 0
  9172   004F5A                     
  9173                           ;stkvar	_a @ sp[(0)+-4]
  9174   004F5A  0EFF               	movlw	-1
  9175   004F5C  BEE3               	btfsc	plusw1,7,c
  9176   004F5E  EFC3  F027         	goto	u3800
  9177   004F62  0EFF               	movlw	-1
  9178   004F64  50E3               	movf	plusw1,w,c
  9179   004F66  E10D               	bnz	u3801
  9180   004F68  0EFE               	movlw	-2
  9181   004F6A  50E3               	movf	plusw1,w,c
  9182   004F6C  E10A               	bnz	u3801
  9183   004F6E  0EFD               	movlw	-3
  9184   004F70  50E3               	movf	plusw1,w,c
  9185   004F72  E107               	bnz	u3801
  9186   004F74  0EFC               	movlw	-4
  9187   004F76  04E3               	decf	plusw1,w,c
  9188   004F78  B0D8               	btfsc	status,0,c
  9189   004F7A  EFC1  F027         	goto	u3801
  9190   004F7E  EFC3  F027         	goto	u3800
  9191   004F82                     u3801:
  9192   004F82  EFDA  F027         	goto	l3904
  9193   004F86                     u3800:
  9194   004F86                     
  9195                           ;stkvar	_a @ sp[(0)+-4]
  9196   004F86  0EFC               	movlw	-4
  9197   004F88  CFE3 F001          	movff	plusw1,btemp
  9198   004F8C  0EFD               	movlw	-3
  9199   004F8E  CFE3 F002          	movff	plusw1,btemp+1
  9200   004F92  0EFE               	movlw	-2
  9201   004F94  CFE3 F003          	movff	plusw1,btemp+2
  9202   004F98  0EFF               	movlw	-1
  9203   004F9A  CFE3 F004          	movff	plusw1,btemp+3
  9204   004F9E  1E01               	comf	btemp^0,f,c
  9205   004FA0  1E02               	comf	(btemp+1)^0,f,c
  9206   004FA2  1E03               	comf	(btemp+2)^0,f,c
  9207   004FA4  1E04               	comf	(btemp+3)^0,f,c
  9208   004FA6  2A01               	incf	btemp^0,f,c
  9209   004FA8  0E00               	movlw	0
  9210   004FAA  2202               	addwfc	(btemp+1)^0,f,c
  9211   004FAC  2203               	addwfc	(btemp+2)^0,f,c
  9212   004FAE  2204               	addwfc	(btemp+3)^0,f,c
  9213   004FB0  EFE6  F027         	goto	l1262
  9214   004FB4                     l3904:
  9215                           
  9216                           ;stkvar	_a @ sp[(0)+-4]
  9217   004FB4  0EFC               	movlw	-4
  9218   004FB6  CFE3 F001          	movff	plusw1,btemp
  9219   004FBA  0EFD               	movlw	-3
  9220   004FBC  CFE3 F002          	movff	plusw1,btemp+1
  9221   004FC0  0EFE               	movlw	-2
  9222   004FC2  CFE3 F003          	movff	plusw1,btemp+2
  9223   004FC6  0EFF               	movlw	-1
  9224   004FC8  CFE3 F004          	movff	plusw1,btemp+3
  9225   004FCC                     l1262:
  9226                           
  9227                           ; _labs: autosize = 0, savesize = 0, parsavesize = 0, tempsize = 0 parsize = 4, argsize 
      +                          = 4, vargsize = 0
  9228   004FCC  52E5               	movf	postdec1,f,c
  9229   004FCE  52E5               	movf	postdec1,f,c
  9230   004FD0  52E5               	movf	postdec1,f,c
  9231   004FD2  52E5               	movf	postdec1,f,c
  9232   004FD4  0012               	return		;funcret
  9233   004FD6                     __end_of_labs:
  9234                           	callstack 0
  9235                           
  9236 ;; *************** function _floorf *****************
  9237 ;; Defined at:
  9238 ;;		line 3 in file "C:\Program Files\Microchip\xc8\v2.41\pic\sources\c99\common\floorf.c"
  9239 ;; Parameters:    Size  Location     Type
  9240 ;;  x               4  [STACK] float 
  9241 ;; Auto vars:     Size  Location     Type
  9242 ;;  u               4  [STACK] struct .
  9243 ;;  m               4  [STACK] unsigned long 
  9244 ;;  e               2  [STACK] int 
  9245 ;; Return value:  Size  Location     Type
  9246 ;;                  4  [STACK] float 
  9247 ;; Registers used:
  9248 ;;		wreg, fsr1l, fsr1h, fsr2l, fsr2h, status,2, status,0, btemp, btemp+1, btemp+2, btemp+3, btemp+4, btemp+5, btemp+6, b
      +temp+7, btemp+8, btemp+9, btemp+10, btemp+11
  9249 ;; Tracked objects:
  9250 ;;		On entry : 0/F
  9251 ;;		On exit  : 0/0
  9252 ;;		Unchanged: 0/0
  9253 ;; Data sizes:     COMRAM   BANK0   BANK1   BANK2   BANK3   BANK4   BANK5   BANK6   BANK7   BANK8   BANK9  BANK10  BANK1
      +1  BANK12  BANK13  BANK14  BANK15
  9254 ;;      Params:         0       0       0       0       0       0       0       0       0       0       0       0       
      +0       0       0       0       0
  9255 ;;      Locals:         0       0       0       0       0       0       0       0       0       0       0       0       
      +0       0       0       0       0
  9256 ;;      Temps:          0       0       0       0       0       0       0       0       0       0       0       0       
      +0       0       0       0       0
  9257 ;;      Totals:         0       0       0       0       0       0       0       0       0       0       0       0       
      +0       0       0       0       0
  9258 ;;Total ram usage:        0 bytes
  9259 ;; Hardware stack levels used: 1
  9260 ;; Hardware stack levels required when called: 7
  9261 ;; This function calls:
  9262 ;;		Nothing
  9263 ;; This function is called by:
  9264 ;;		_efgtoa
  9265 ;; This function uses a reentrant model
  9266 ;;
  9267                           
  9268                           	psect	text38
  9269   002CC4                     __ptext38:
  9270                           	callstack 0
  9271   002CC4                     _floorf:
  9272                           	callstack 0
  9273                           
  9274                           ; autosize = 10, savesize = 0, parsavesize = 0, tempsize = 0 parsize = 4, argsize = 4 va
      +                          rgsize = 0, retsize = 0 argfudge = 0
  9275   002CC4  0E0A               	movlw	10
  9276   002CC6  26E1               	addwf	fsr1l,f,c
  9277   002CC8  0E00               	movlw	0
  9278   002CCA  22E2               	addwfc	fsr1h,f,c
  9279   002CCC  C029  F009         	movff	floorf@F526,btemp+8
  9280   002CD0  C02A  F00A         	movff	floorf@F526+1,btemp+9
  9281   002CD4  C02B  F00B         	movff	floorf@F526+2,btemp+10
  9282   002CD8  C02C  F00C         	movff	floorf@F526+3,btemp+11
  9283                           
  9284                           ;stkvar	_u @ sp[(-10)+0]
  9285   002CDC  0EF6               	movlw	-10
  9286   002CDE  C009  FFE3         	movff	btemp+8,plusw1
  9287   002CE2  0EF7               	movlw	-9
  9288   002CE4  C00A  FFE3         	movff	btemp+9,plusw1
  9289   002CE8  0EF8               	movlw	-8
  9290   002CEA  C00B  FFE3         	movff	btemp+10,plusw1
  9291   002CEE  0EF9               	movlw	-7
  9292   002CF0  C00C  FFE3         	movff	btemp+11,plusw1
  9293                           
  9294                           ;stkvar	_x @ sp[(-10)+-4]
  9295   002CF4  0EF2               	movlw	-14
  9296   002CF6  CFE3 F009          	movff	plusw1,btemp+8
  9297   002CFA  0EF3               	movlw	-13
  9298   002CFC  CFE3 F00A          	movff	plusw1,btemp+9
  9299   002D00  0EF4               	movlw	-12
  9300   002D02  CFE3 F00B          	movff	plusw1,btemp+10
  9301   002D06  0EF5               	movlw	-11
  9302   002D08  CFE3 F00C          	movff	plusw1,btemp+11
  9303                           
  9304                           ;stkvar	_u @ sp[(-10)+0]
  9305   002D0C  0EF6               	movlw	-10
  9306   002D0E  C009  FFE3         	movff	btemp+8,plusw1
  9307   002D12  0EF7               	movlw	-9
  9308   002D14  C00A  FFE3         	movff	btemp+9,plusw1
  9309   002D18  0EF8               	movlw	-8
  9310   002D1A  C00B  FFE3         	movff	btemp+10,plusw1
  9311   002D1E  0EF9               	movlw	-7
  9312   002D20  C00C  FFE3         	movff	btemp+11,plusw1
  9313   002D24  0E81               	movlw	129
  9314   002D26  6E0B               	movwf	(btemp+10)^0,c
  9315   002D28  0EFF               	movlw	255
  9316   002D2A  6E0C               	movwf	(btemp+11)^0,c
  9317                           
  9318                           ;stkvar	_u @ sp[(-10)+0]
  9319   002D2C  0EF6               	movlw	-10
  9320   002D2E  CFE3 F005          	movff	plusw1,btemp+4
  9321   002D32  0EF7               	movlw	-9
  9322   002D34  CFE3 F006          	movff	plusw1,btemp+5
  9323   002D38  0EF8               	movlw	-8
  9324   002D3A  CFE3 F007          	movff	plusw1,btemp+6
  9325   002D3E  0EF9               	movlw	-7
  9326   002D40  CFE3 F008          	movff	plusw1,btemp+7
  9327   002D44  0E18               	movlw	24
  9328   002D46  EFAA  F016         	goto	u3810
  9329   002D4A                     u3815:
  9330   002D4A  90D8               	bcf	status,0,c
  9331   002D4C  3208               	rrcf	(btemp+7)^0,f,c
  9332   002D4E  3207               	rrcf	(btemp+6)^0,f,c
  9333   002D50  3206               	rrcf	(btemp+5)^0,f,c
  9334   002D52  3205               	rrcf	(btemp+4)^0,f,c
  9335   002D54                     u3810:
  9336   002D54  2EE8               	decfsz	wreg,f,c
  9337   002D56  EFA5  F016         	goto	u3815
  9338   002D5A  C005  F009         	movff	btemp+4,btemp+8
  9339   002D5E  C006  F00A         	movff	btemp+5,btemp+9
  9340   002D62  5009               	movf	(btemp+8)^0,w,c
  9341   002D64  240B               	addwf	(btemp+10)^0,w,c
  9342   002D66  6E09               	movwf	(btemp+8)^0,c
  9343   002D68  0E00               	movlw	0
  9344   002D6A  200C               	addwfc	(btemp+11)^0,w,c
  9345   002D6C  6E0A               	movwf	(btemp+9)^0,c
  9346                           
  9347                           ;stkvar	_e @ sp[(-10)+8]
  9348   002D6E  0EFE               	movlw	-2
  9349   002D70  C009  FFE3         	movff	btemp+8,plusw1
  9350   002D74  0EFF               	movlw	-1
  9351   002D76  C00A  FFE3         	movff	btemp+9,plusw1
  9352   002D7A                     
  9353                           ;stkvar	_e @ sp[(-10)+8]
  9354   002D7A  0EFF               	movlw	-1
  9355   002D7C  BEE3               	btfsc	plusw1,7,c
  9356   002D7E  EFCE  F016         	goto	u3821
  9357   002D82  0EFF               	movlw	-1
  9358   002D84  50E3               	movf	plusw1,w,c
  9359   002D86  E10C               	bnz	u3820
  9360   002D88  0EFE               	movlw	-2
  9361   002D8A  CFE3 F001          	movff	plusw1,btemp
  9362   002D8E  0E17               	movlw	23
  9363   002D90  5E01               	subwf	btemp^0,f,c
  9364   002D92  A0D8               	btfss	status,0,c
  9365   002D94  EFCE  F016         	goto	u3821
  9366   002D98  EFD0  F016         	goto	u3820
  9367   002D9C                     u3821:
  9368   002D9C  EFDE  F016         	goto	l3918
  9369   002DA0                     u3820:
  9370   002DA0                     l3914:
  9371                           
  9372                           ;stkvar	_x @ sp[(-10)+-4]
  9373   002DA0  0EF2               	movlw	-14
  9374   002DA2  CFE3 F001          	movff	plusw1,btemp
  9375   002DA6  0EF3               	movlw	-13
  9376   002DA8  CFE3 F002          	movff	plusw1,btemp+1
  9377   002DAC  0EF4               	movlw	-12
  9378   002DAE  CFE3 F003          	movff	plusw1,btemp+2
  9379   002DB2  0EF5               	movlw	-11
  9380   002DB4  CFE3 F004          	movff	plusw1,btemp+3
  9381   002DB8  EFFB  F017         	goto	l1248
  9382   002DBC                     l3918:
  9383                           
  9384                           ;stkvar	_e @ sp[(-10)+8]
  9385   002DBC  0EFF               	movlw	-1
  9386   002DBE  BEE3               	btfsc	plusw1,7,c
  9387   002DC0  EFE4  F016         	goto	u3831
  9388   002DC4  EFE6  F016         	goto	u3830
  9389   002DC8                     u3831:
  9390   002DC8  EF97  F017         	goto	l3934
  9391   002DCC                     u3830:
  9392   002DCC                     
  9393                           ;stkvar	_e @ sp[(-10)+8]
  9394   002DCC  0EFE               	movlw	-2
  9395   002DCE  CFE3 F00C          	movff	plusw1,btemp+11
  9396   002DD2  0EFF               	movlw	255
  9397   002DD4  6E05               	movwf	(btemp+4)^0,c
  9398   002DD6  0EFF               	movlw	255
  9399   002DD8  6E06               	movwf	(btemp+5)^0,c
  9400   002DDA  0E7F               	movlw	127
  9401   002DDC  6E07               	movwf	(btemp+6)^0,c
  9402   002DDE  0E00               	movlw	0
  9403   002DE0  6E08               	movwf	(btemp+7)^0,c
  9404   002DE2                     u3845:
  9405   002DE2  660C               	tstfsz	(btemp+11)^0,c
  9406   002DE4  EFF6  F016         	goto	u3846
  9407   002DE8  EFFE  F016         	goto	u3847
  9408   002DEC                     u3846:
  9409   002DEC  3408               	rlcf	(btemp+7)^0,w,c
  9410   002DEE  3208               	rrcf	(btemp+7)^0,f,c
  9411   002DF0  3207               	rrcf	(btemp+6)^0,f,c
  9412   002DF2  3206               	rrcf	(btemp+5)^0,f,c
  9413   002DF4  3205               	rrcf	(btemp+4)^0,f,c
  9414   002DF6  2E0C               	decfsz	(btemp+11)^0,f,c
  9415   002DF8  EFF1  F016         	goto	u3845
  9416   002DFC                     u3847:
  9417                           
  9418                           ;stkvar	_m @ sp[(-10)+4]
  9419   002DFC  0EFA               	movlw	-6
  9420   002DFE  C005  FFE3         	movff	btemp+4,plusw1
  9421   002E02  0EFB               	movlw	-5
  9422   002E04  C006  FFE3         	movff	btemp+5,plusw1
  9423   002E08  0EFC               	movlw	-4
  9424   002E0A  C007  FFE3         	movff	btemp+6,plusw1
  9425   002E0E  0EFD               	movlw	-3
  9426   002E10  C008  FFE3         	movff	btemp+7,plusw1
  9427   002E14                     
  9428                           ;stkvar	_m @ sp[(-10)+4]
  9429                           ;stkvar	_u @ sp[(-10)+0]
  9430   002E14  0EF6               	movlw	-10
  9431   002E16  CFE3 F009          	movff	plusw1,btemp+8
  9432   002E1A  0EF7               	movlw	-9
  9433   002E1C  CFE3 F00A          	movff	plusw1,btemp+9
  9434   002E20  0EF8               	movlw	-8
  9435   002E22  CFE3 F00B          	movff	plusw1,btemp+10
  9436   002E26  0EF9               	movlw	-7
  9437   002E28  CFE3 F00C          	movff	plusw1,btemp+11
  9438   002E2C  0EFA               	movlw	-6
  9439   002E2E  50E3               	movf	plusw1,w,c
  9440   002E30  1609               	andwf	(btemp+8)^0,f,c
  9441   002E32  0EFB               	movlw	-5
  9442   002E34  50E3               	movf	plusw1,w,c
  9443   002E36  160A               	andwf	(btemp+9)^0,f,c
  9444   002E38  0EFC               	movlw	-4
  9445   002E3A  50E3               	movf	plusw1,w,c
  9446   002E3C  160B               	andwf	(btemp+10)^0,f,c
  9447   002E3E  0EFD               	movlw	-3
  9448   002E40  50E3               	movf	plusw1,w,c
  9449   002E42  160C               	andwf	(btemp+11)^0,f,c
  9450   002E44  5009               	movf	(btemp+8)^0,w,c
  9451   002E46  100A               	iorwf	(btemp+9)^0,w,c
  9452   002E48  100B               	iorwf	(btemp+10)^0,w,c
  9453   002E4A  100C               	iorwf	(btemp+11)^0,w,c
  9454   002E4C  A4D8               	btfss	status,2,c
  9455   002E4E  EF2B  F017         	goto	u3851
  9456   002E52  EF2D  F017         	goto	u3850
  9457   002E56                     u3851:
  9458   002E56  EF2F  F017         	goto	l3928
  9459   002E5A                     u3850:
  9460   002E5A  EFD0  F016         	goto	l3914
  9461   002E5E                     l3928:
  9462                           
  9463                           ;stkvar	_u @ sp[(-10)+0]
  9464   002E5E  0EF6               	movlw	-10
  9465   002E60  CFE3 F009          	movff	plusw1,btemp+8
  9466   002E64  0EF7               	movlw	-9
  9467   002E66  CFE3 F00A          	movff	plusw1,btemp+9
  9468   002E6A  0EF8               	movlw	-8
  9469   002E6C  CFE3 F00B          	movff	plusw1,btemp+10
  9470   002E70  0EF9               	movlw	-7
  9471   002E72  CFE3 F00C          	movff	plusw1,btemp+11
  9472   002E76  0E20               	movlw	32
  9473   002E78  EF43  F017         	goto	u3860
  9474   002E7C                     u3865:
  9475   002E7C  90D8               	bcf	status,0,c
  9476   002E7E  320C               	rrcf	(btemp+11)^0,f,c
  9477   002E80  320B               	rrcf	(btemp+10)^0,f,c
  9478   002E82  320A               	rrcf	(btemp+9)^0,f,c
  9479   002E84  3209               	rrcf	(btemp+8)^0,f,c
  9480   002E86                     u3860:
  9481   002E86  2EE8               	decfsz	wreg,f,c
  9482   002E88  EF3E  F017         	goto	u3865
  9483   002E8C  5009               	movf	(btemp+8)^0,w,c
  9484   002E8E  B4D8               	btfsc	status,2,c
  9485   002E90  EF4C  F017         	goto	u3871
  9486   002E94  EF4E  F017         	goto	u3870
  9487   002E98                     u3871:
  9488   002E98  EF72  F017         	goto	l3932
  9489   002E9C                     u3870:
  9490   002E9C                     
  9491                           ;stkvar	_m @ sp[(-10)+4]
  9492                           ;stkvar	_u @ sp[(-10)+0]
  9493   002E9C  0EF6               	movlw	-10
  9494   002E9E  50E3               	movf	plusw1,w,c
  9495   002EA0  6E01               	movwf	btemp^0,c
  9496   002EA2  0EFA               	movlw	-6
  9497   002EA4  50E3               	movf	plusw1,w,c
  9498   002EA6  2601               	addwf	btemp^0,f,c
  9499   002EA8  0EF6               	movlw	-10
  9500   002EAA  C001  FFE3         	movff	btemp,plusw1
  9501   002EAE  0EF7               	movlw	-9
  9502   002EB0  50E3               	movf	plusw1,w,c
  9503   002EB2  6E01               	movwf	btemp^0,c
  9504   002EB4  0EFB               	movlw	-5
  9505   002EB6  50E3               	movf	plusw1,w,c
  9506   002EB8  2201               	addwfc	btemp^0,f,c
  9507   002EBA  0EF7               	movlw	-9
  9508   002EBC  C001  FFE3         	movff	btemp,plusw1
  9509   002EC0  0EF8               	movlw	-8
  9510   002EC2  50E3               	movf	plusw1,w,c
  9511   002EC4  6E01               	movwf	btemp^0,c
  9512   002EC6  0EFC               	movlw	-4
  9513   002EC8  50E3               	movf	plusw1,w,c
  9514   002ECA  2201               	addwfc	btemp^0,f,c
  9515   002ECC  0EF8               	movlw	-8
  9516   002ECE  C001  FFE3         	movff	btemp,plusw1
  9517   002ED2  0EF9               	movlw	-7
  9518   002ED4  50E3               	movf	plusw1,w,c
  9519   002ED6  6E01               	movwf	btemp^0,c
  9520   002ED8  0EFD               	movlw	-3
  9521   002EDA  50E3               	movf	plusw1,w,c
  9522   002EDC  2201               	addwfc	btemp^0,f,c
  9523   002EDE  0EF9               	movlw	-7
  9524   002EE0  C001  FFE3         	movff	btemp,plusw1
  9525   002EE4                     l3932:
  9526                           
  9527                           ;stkvar	_m @ sp[(-10)+4]
  9528   002EE4  0EFA               	movlw	-6
  9529   002EE6  CFE3 F009          	movff	plusw1,btemp+8
  9530   002EEA  0EFB               	movlw	-5
  9531   002EEC  CFE3 F00A          	movff	plusw1,btemp+9
  9532   002EF0  0EFC               	movlw	-4
  9533   002EF2  CFE3 F00B          	movff	plusw1,btemp+10
  9534   002EF6  0EFD               	movlw	-3
  9535   002EF8  CFE3 F00C          	movff	plusw1,btemp+11
  9536   002EFC  1C09               	comf	(btemp+8)^0,w,c
  9537   002EFE  6E05               	movwf	(btemp+4)^0,c
  9538   002F00  1C0A               	comf	(btemp+9)^0,w,c
  9539   002F02  6E06               	movwf	(btemp+5)^0,c
  9540   002F04  1C0B               	comf	(btemp+10)^0,w,c
  9541   002F06  6E07               	movwf	(btemp+6)^0,c
  9542   002F08  1C0C               	comf	(btemp+11)^0,w,c
  9543   002F0A  6E08               	movwf	(btemp+7)^0,c
  9544                           
  9545                           ;stkvar	_u @ sp[(-10)+0]
  9546   002F0C  50E1               	movf	fsr1l,w,c
  9547   002F0E  0FF6               	addlw	-10
  9548   002F10  6ED9               	movwf	fsr2l,c
  9549   002F12  50E2               	movf	fsr1h,w,c
  9550   002F14  6EDA               	movwf	fsr2h,c
  9551   002F16  0EFF               	movlw	255
  9552   002F18  22DA               	addwfc	fsr2h,f,c
  9553   002F1A  5005               	movf	(btemp+4)^0,w,c
  9554   002F1C  16DE               	andwf	postinc2,f,c
  9555   002F1E  5006               	movf	(btemp+5)^0,w,c
  9556   002F20  16DE               	andwf	postinc2,f,c
  9557   002F22  5007               	movf	(btemp+6)^0,w,c
  9558   002F24  16DE               	andwf	postinc2,f,c
  9559   002F26  5008               	movf	(btemp+7)^0,w,c
  9560   002F28  16DE               	andwf	postinc2,f,c
  9561   002F2A  EFEF  F017         	goto	l3942
  9562   002F2E                     l3934:
  9563                           
  9564                           ;stkvar	_u @ sp[(-10)+0]
  9565   002F2E  0EF6               	movlw	-10
  9566   002F30  CFE3 F009          	movff	plusw1,btemp+8
  9567   002F34  0EF7               	movlw	-9
  9568   002F36  CFE3 F00A          	movff	plusw1,btemp+9
  9569   002F3A  0EF8               	movlw	-8
  9570   002F3C  CFE3 F00B          	movff	plusw1,btemp+10
  9571   002F40  0EF9               	movlw	-7
  9572   002F42  CFE3 F00C          	movff	plusw1,btemp+11
  9573   002F46  0E20               	movlw	32
  9574   002F48  EFAB  F017         	goto	u3880
  9575   002F4C                     u3885:
  9576   002F4C  90D8               	bcf	status,0,c
  9577   002F4E  320C               	rrcf	(btemp+11)^0,f,c
  9578   002F50  320B               	rrcf	(btemp+10)^0,f,c
  9579   002F52  320A               	rrcf	(btemp+9)^0,f,c
  9580   002F54  3209               	rrcf	(btemp+8)^0,f,c
  9581   002F56                     u3880:
  9582   002F56  2EE8               	decfsz	wreg,f,c
  9583   002F58  EFA6  F017         	goto	u3885
  9584   002F5C  6609               	tstfsz	(btemp+8)^0,c
  9585   002F5E  EFBB  F017         	goto	l3938
  9586   002F62                     
  9587                           ;stkvar	_u @ sp[(-10)+0]
  9588   002F62  0EF6               	movlw	-10
  9589   002F64  6AE3               	clrf	plusw1,c
  9590   002F66  0EF7               	movlw	-9
  9591   002F68  6AE3               	clrf	plusw1,c
  9592   002F6A  0EF8               	movlw	-8
  9593   002F6C  6AE3               	clrf	plusw1,c
  9594   002F6E  0EF9               	movlw	-7
  9595   002F70  6AE3               	clrf	plusw1,c
  9596   002F72  EFEF  F017         	goto	l3942
  9597   002F76                     l3938:
  9598                           
  9599                           ;stkvar	_u @ sp[(-10)+0]
  9600   002F76  0EF6               	movlw	-10
  9601   002F78  CFE3 F009          	movff	plusw1,btemp+8
  9602   002F7C  0EF7               	movlw	-9
  9603   002F7E  CFE3 F00A          	movff	plusw1,btemp+9
  9604   002F82  0EF8               	movlw	-8
  9605   002F84  CFE3 F00B          	movff	plusw1,btemp+10
  9606   002F88  0EF9               	movlw	-7
  9607   002F8A  CFE3 F00C          	movff	plusw1,btemp+11
  9608   002F8E  90D8               	bcf	status,0,c
  9609   002F90  3409               	rlcf	(btemp+8)^0,w,c
  9610   002F92  6E05               	movwf	(btemp+4)^0,c
  9611   002F94  340A               	rlcf	(btemp+9)^0,w,c
  9612   002F96  6E06               	movwf	(btemp+5)^0,c
  9613   002F98  340B               	rlcf	(btemp+10)^0,w,c
  9614   002F9A  6E07               	movwf	(btemp+6)^0,c
  9615   002F9C  340C               	rlcf	(btemp+11)^0,w,c
  9616   002F9E  6E08               	movwf	(btemp+7)^0,c
  9617   002FA0  5005               	movf	(btemp+4)^0,w,c
  9618   002FA2  1006               	iorwf	(btemp+5)^0,w,c
  9619   002FA4  1007               	iorwf	(btemp+6)^0,w,c
  9620   002FA6  1008               	iorwf	(btemp+7)^0,w,c
  9621   002FA8  B4D8               	btfsc	status,2,c
  9622   002FAA  EFD9  F017         	goto	u3901
  9623   002FAE  EFDB  F017         	goto	u3900
  9624   002FB2                     u3901:
  9625   002FB2  EFEF  F017         	goto	l3942
  9626   002FB6                     u3900:
  9627   002FB6  0E00               	movlw	0
  9628   002FB8  6E09               	movwf	(btemp+8)^0,c
  9629   002FBA  0E00               	movlw	0
  9630   002FBC  6E0A               	movwf	(btemp+9)^0,c
  9631   002FBE  0E80               	movlw	128
  9632   002FC0  6E0B               	movwf	(btemp+10)^0,c
  9633   002FC2  0EBF               	movlw	191
  9634   002FC4  6E0C               	movwf	(btemp+11)^0,c
  9635                           
  9636                           ;stkvar	_u @ sp[(-10)+0]
  9637   002FC6  0EF6               	movlw	-10
  9638   002FC8  C009  FFE3         	movff	btemp+8,plusw1
  9639   002FCC  0EF7               	movlw	-9
  9640   002FCE  C00A  FFE3         	movff	btemp+9,plusw1
  9641   002FD2  0EF8               	movlw	-8
  9642   002FD4  C00B  FFE3         	movff	btemp+10,plusw1
  9643   002FD8  0EF9               	movlw	-7
  9644   002FDA  C00C  FFE3         	movff	btemp+11,plusw1
  9645   002FDE                     l3942:
  9646                           
  9647                           ;stkvar	_u @ sp[(-10)+0]
  9648   002FDE  0EF6               	movlw	-10
  9649   002FE0  CFE3 F001          	movff	plusw1,btemp
  9650   002FE4  0EF7               	movlw	-9
  9651   002FE6  CFE3 F002          	movff	plusw1,btemp+1
  9652   002FEA  0EF8               	movlw	-8
  9653   002FEC  CFE3 F003          	movff	plusw1,btemp+2
  9654   002FF0  0EF9               	movlw	-7
  9655   002FF2  CFE3 F004          	movff	plusw1,btemp+3
  9656   002FF6                     l1248:
  9657                           
  9658                           ; _floorf: autosize = 10, savesize = 0, parsavesize = 0, tempsize = 0 parsize = 4, argsi
      +                          ze = 4, vargsize = 0
  9659   002FF6  0EF2               	movlw	242
  9660   002FF8  26E1               	addwf	fsr1l,f,c
  9661   002FFA  0EFF               	movlw	255
  9662   002FFC  22E2               	addwfc	fsr1h,f,c
  9663   002FFE  0012               	return		;funcret
  9664   003000                     __end_of_floorf:
  9665                           	callstack 0
  9666                           
  9667 ;; *************** function ___fpclassifyf *****************
  9668 ;; Defined at:
  9669 ;;		line 4 in file "C:\Program Files\Microchip\xc8\v2.41\pic\sources\c99\common\__fpclassifyf.c"
  9670 ;; Parameters:    Size  Location     Type
  9671 ;;  x               4  [STACK] float 
  9672 ;; Auto vars:     Size  Location     Type
  9673 ;;  u               4  [STACK] struct .
  9674 ;;  e               2  [STACK] int 
  9675 ;; Return value:  Size  Location     Type
  9676 ;;                  2  [STACK] int 
  9677 ;; Registers used:
  9678 ;;		wreg, fsr1l, fsr1h, status,2, status,0, btemp, btemp+1, btemp+4, btemp+5, btemp+6, btemp+7, btemp+8, btemp+9, btemp+
      +10, btemp+11, prodl
  9679 ;; Tracked objects:
  9680 ;;		On entry : 0/F
  9681 ;;		On exit  : 0/0
  9682 ;;		Unchanged: 0/0
  9683 ;; Data sizes:     COMRAM   BANK0   BANK1   BANK2   BANK3   BANK4   BANK5   BANK6   BANK7   BANK8   BANK9  BANK10  BANK1
      +1  BANK12  BANK13  BANK14  BANK15
  9684 ;;      Params:         0       0       0       0       0       0       0       0       0       0       0       0       
      +0       0       0       0       0
  9685 ;;      Locals:         0       0       0       0       0       0       0       0       0       0       0       0       
      +0       0       0       0       0
  9686 ;;      Temps:          0       0       0       0       0       0       0       0       0       0       0       0       
      +0       0       0       0       0
  9687 ;;      Totals:         0       0       0       0       0       0       0       0       0       0       0       0       
      +0       0       0       0       0
  9688 ;;Total ram usage:        0 bytes
  9689 ;; Hardware stack levels used: 1
  9690 ;; Hardware stack levels required when called: 7
  9691 ;; This function calls:
  9692 ;;		Nothing
  9693 ;; This function is called by:
  9694 ;;		_efgtoa
  9695 ;; This function uses a reentrant model
  9696 ;;
  9697                           
  9698                           	psect	text39
  9699   003800                     __ptext39:
  9700                           	callstack 0
  9701   003800                     ___fpclassifyf:
  9702                           	callstack 0
  9703                           
  9704                           ; autosize = 6, savesize = 0, parsavesize = 0, tempsize = 0 parsize = 4, argsize = 4 var
      +                          gsize = 0, retsize = 0 argfudge = 0
  9705   003800  0E06               	movlw	6
  9706   003802  26E1               	addwf	fsr1l,f,c
  9707   003804  0E00               	movlw	0
  9708   003806  22E2               	addwfc	fsr1h,f,c
  9709   003808  C02D  F009         	movff	___fpclassifyf@F465,btemp+8
  9710   00380C  C02E  F00A         	movff	___fpclassifyf@F465+1,btemp+9
  9711   003810  C02F  F00B         	movff	___fpclassifyf@F465+2,btemp+10
  9712   003814  C030  F00C         	movff	___fpclassifyf@F465+3,btemp+11
  9713                           
  9714                           ;stkvar	_u @ sp[(-6)+0]
  9715   003818  0EFA               	movlw	-6
  9716   00381A  C009  FFE3         	movff	btemp+8,plusw1
  9717   00381E  0EFB               	movlw	-5
  9718   003820  C00A  FFE3         	movff	btemp+9,plusw1
  9719   003824  0EFC               	movlw	-4
  9720   003826  C00B  FFE3         	movff	btemp+10,plusw1
  9721   00382A  0EFD               	movlw	-3
  9722   00382C  C00C  FFE3         	movff	btemp+11,plusw1
  9723                           
  9724                           ;stkvar	_x @ sp[(-6)+-4]
  9725   003830  0EF6               	movlw	-10
  9726   003832  CFE3 F009          	movff	plusw1,btemp+8
  9727   003836  0EF7               	movlw	-9
  9728   003838  CFE3 F00A          	movff	plusw1,btemp+9
  9729   00383C  0EF8               	movlw	-8
  9730   00383E  CFE3 F00B          	movff	plusw1,btemp+10
  9731   003842  0EF9               	movlw	-7
  9732   003844  CFE3 F00C          	movff	plusw1,btemp+11
  9733                           
  9734                           ;stkvar	_u @ sp[(-6)+0]
  9735   003848  0EFA               	movlw	-6
  9736   00384A  C009  FFE3         	movff	btemp+8,plusw1
  9737   00384E  0EFB               	movlw	-5
  9738   003850  C00A  FFE3         	movff	btemp+9,plusw1
  9739   003854  0EFC               	movlw	-4
  9740   003856  C00B  FFE3         	movff	btemp+10,plusw1
  9741   00385A  0EFD               	movlw	-3
  9742   00385C  C00C  FFE3         	movff	btemp+11,plusw1
  9743   003860                     
  9744                           ;stkvar	_u @ sp[(-6)+0]
  9745   003860  0EFA               	movlw	-6
  9746   003862  CFE3 F009          	movff	plusw1,btemp+8
  9747   003866  0EFB               	movlw	-5
  9748   003868  CFE3 F00A          	movff	plusw1,btemp+9
  9749   00386C  0EFC               	movlw	-4
  9750   00386E  CFE3 F00B          	movff	plusw1,btemp+10
  9751   003872  0EFD               	movlw	-3
  9752   003874  CFE3 F00C          	movff	plusw1,btemp+11
  9753   003878  0E18               	movlw	24
  9754   00387A  EF44  F01C         	goto	u3720
  9755   00387E                     u3725:
  9756   00387E  90D8               	bcf	status,0,c
  9757   003880  320C               	rrcf	(btemp+11)^0,f,c
  9758   003882  320B               	rrcf	(btemp+10)^0,f,c
  9759   003884  320A               	rrcf	(btemp+9)^0,f,c
  9760   003886  3209               	rrcf	(btemp+8)^0,f,c
  9761   003888                     u3720:
  9762   003888  2EE8               	decfsz	wreg,f,c
  9763   00388A  EF3F  F01C         	goto	u3725
  9764   00388E  C009  F007         	movff	btemp+8,btemp+6
  9765   003892  C00A  F008         	movff	btemp+9,btemp+7
  9766   003896  0EFF               	movlw	255
  9767   003898  1607               	andwf	(btemp+6)^0,f,c
  9768   00389A  0E00               	movlw	0
  9769   00389C  1608               	andwf	(btemp+7)^0,f,c
  9770                           
  9771                           ;stkvar	_e @ sp[(-6)+4]
  9772   00389E  0EFE               	movlw	-2
  9773   0038A0  C007  FFE3         	movff	btemp+6,plusw1
  9774   0038A4  0EFF               	movlw	-1
  9775   0038A6  C008  FFE3         	movff	btemp+7,plusw1
  9776   0038AA                     
  9777                           ;stkvar	_e @ sp[(-6)+4]
  9778   0038AA  0EFE               	movlw	-2
  9779   0038AC  CFE3 F001          	movff	plusw1,btemp
  9780   0038B0  0EFF               	movlw	-1
  9781   0038B2  50E3               	movf	plusw1,w,c
  9782   0038B4  1001               	iorwf	btemp^0,w,c
  9783   0038B6  A4D8               	btfss	status,2,c
  9784   0038B8  EF60  F01C         	goto	u3731
  9785   0038BC  EF62  F01C         	goto	u3730
  9786   0038C0                     u3731:
  9787   0038C0  EF8E  F01C         	goto	l3886
  9788   0038C4                     u3730:
  9789   0038C4                     
  9790                           ;stkvar	_u @ sp[(-6)+0]
  9791   0038C4  0EFA               	movlw	-6
  9792   0038C6  CFE3 F009          	movff	plusw1,btemp+8
  9793   0038CA  0EFB               	movlw	-5
  9794   0038CC  CFE3 F00A          	movff	plusw1,btemp+9
  9795   0038D0  0EFC               	movlw	-4
  9796   0038D2  CFE3 F00B          	movff	plusw1,btemp+10
  9797   0038D6  0EFD               	movlw	-3
  9798   0038D8  CFE3 F00C          	movff	plusw1,btemp+11
  9799   0038DC  90D8               	bcf	status,0,c
  9800   0038DE  3409               	rlcf	(btemp+8)^0,w,c
  9801   0038E0  6E05               	movwf	(btemp+4)^0,c
  9802   0038E2  340A               	rlcf	(btemp+9)^0,w,c
  9803   0038E4  6E06               	movwf	(btemp+5)^0,c
  9804   0038E6  340B               	rlcf	(btemp+10)^0,w,c
  9805   0038E8  6E07               	movwf	(btemp+6)^0,c
  9806   0038EA  340C               	rlcf	(btemp+11)^0,w,c
  9807   0038EC  6E08               	movwf	(btemp+7)^0,c
  9808   0038EE  5005               	movf	(btemp+4)^0,w,c
  9809   0038F0  1006               	iorwf	(btemp+5)^0,w,c
  9810   0038F2  1007               	iorwf	(btemp+6)^0,w,c
  9811   0038F4  1008               	iorwf	(btemp+7)^0,w,c
  9812   0038F6  A4D8               	btfss	status,2,c
  9813   0038F8  EF80  F01C         	goto	u3741
  9814   0038FC  EF82  F01C         	goto	u3740
  9815   003900                     u3741:
  9816   003900  EF88  F01C         	goto	l3882
  9817   003904                     u3740:
  9818   003904  0E02               	movlw	2
  9819   003906  6E01               	movwf	btemp^0,c
  9820   003908  0E00               	movlw	0
  9821   00390A  6E02               	movwf	(btemp+1)^0,c
  9822   00390C  EFC4  F01C         	goto	l1241
  9823   003910                     l3882:
  9824   003910  0E03               	movlw	3
  9825   003912  6E01               	movwf	btemp^0,c
  9826   003914  0E00               	movlw	0
  9827   003916  6E02               	movwf	(btemp+1)^0,c
  9828   003918  EFC4  F01C         	goto	l1241
  9829   00391C                     l3886:
  9830                           
  9831                           ;stkvar	_e @ sp[(-6)+4]
  9832   00391C  0EFE               	movlw	-2
  9833   00391E  28E3               	incf	plusw1,w,c
  9834   003920  E107               	bnz	u3751
  9835   003922  0EFF               	movlw	-1
  9836   003924  50E3               	movf	plusw1,w,c
  9837   003926  A4D8               	btfss	status,2,c
  9838   003928  EF98  F01C         	goto	u3751
  9839   00392C  EF9A  F01C         	goto	u3750
  9840   003930                     u3751:
  9841   003930  EFC0  F01C         	goto	l3892
  9842   003934                     u3750:
  9843   003934                     
  9844                           ;stkvar	_u @ sp[(-6)+0]
  9845   003934  0EFA               	movlw	-6
  9846   003936  CFE3 F009          	movff	plusw1,btemp+8
  9847   00393A  0EFB               	movlw	-5
  9848   00393C  CFE3 F00A          	movff	plusw1,btemp+9
  9849   003940  0EFC               	movlw	-4
  9850   003942  CFE3 F00B          	movff	plusw1,btemp+10
  9851   003946  0EFD               	movlw	-3
  9852   003948  CFE3 F00C          	movff	plusw1,btemp+11
  9853   00394C  0E09               	movlw	9
  9854   00394E                     u3765:
  9855   00394E  90D8               	bcf	status,0,c
  9856   003950  3609               	rlcf	(btemp+8)^0,f,c
  9857   003952  360A               	rlcf	(btemp+9)^0,f,c
  9858   003954  360B               	rlcf	(btemp+10)^0,f,c
  9859   003956  360C               	rlcf	(btemp+11)^0,f,c
  9860   003958  2EE8               	decfsz	wreg,f,c
  9861   00395A  EFA7  F01C         	goto	u3765
  9862   00395E  5009               	movf	(btemp+8)^0,w,c
  9863   003960  100A               	iorwf	(btemp+9)^0,w,c
  9864   003962  100B               	iorwf	(btemp+10)^0,w,c
  9865   003964  100C               	iorwf	(btemp+11)^0,w,c
  9866   003966  B4D8               	btfsc	status,2,c
  9867   003968  EFB8  F01C         	goto	u3771
  9868   00396C  EFBB  F01C         	goto	u3770
  9869   003970                     u3771:
  9870   003970  0E01               	movlw	1
  9871   003972  EFBC  F01C         	goto	u3780
  9872   003976                     u3770:
  9873   003976  0E00               	movlw	0
  9874   003978                     u3780:
  9875   003978  6E01               	movwf	btemp^0,c
  9876   00397A  6A02               	clrf	(btemp+1)^0,c
  9877   00397C  EFC4  F01C         	goto	l1241
  9878   003980                     l3892:
  9879   003980  0E04               	movlw	4
  9880   003982  6E01               	movwf	btemp^0,c
  9881   003984  0E00               	movlw	0
  9882   003986  6E02               	movwf	(btemp+1)^0,c
  9883   003988                     l1241:
  9884                           
  9885                           ; ___fpclassifyf: autosize = 6, savesize = 0, parsavesize = 0, tempsize = 0 parsize = 4,
      +                           argsize = 4, vargsize = 0
  9886   003988  0EF6               	movlw	246
  9887   00398A  26E1               	addwf	fsr1l,f,c
  9888   00398C  0EFF               	movlw	255
  9889   00398E  22E2               	addwfc	fsr1h,f,c
  9890   003990  0012               	return		;funcret
  9891   003992                     __end_of___fpclassifyf:
  9892                           	callstack 0
  9893                           
  9894 ;; *************** function ___fltol *****************
  9895 ;; Defined at:
  9896 ;;		line 43 in file "C:\Program Files\Microchip\xc8\v2.41\pic\sources\c99\common\fltol.c"
  9897 ;; Parameters:    Size  Location     Type
  9898 ;;  f1              4  [STACK] int 
  9899 ;; Auto vars:     Size  Location     Type
  9900 ;;  exp1            1  [STACK] unsigned char 
  9901 ;;  sign1           1  [STACK] unsigned char 
  9902 ;; Return value:  Size  Location     Type
  9903 ;;                  4  [STACK] long 
  9904 ;; Registers used:
  9905 ;;		wreg, fsr1l, fsr1h, fsr2l, fsr2h, status,2, status,0, btemp, btemp+1, btemp+2, btemp+3, btemp+8, btemp+9, btemp+10, 
      +btemp+11
  9906 ;; Tracked objects:
  9907 ;;		On entry : 0/F
  9908 ;;		On exit  : 0/0
  9909 ;;		Unchanged: 0/0
  9910 ;; Data sizes:     COMRAM   BANK0   BANK1   BANK2   BANK3   BANK4   BANK5   BANK6   BANK7   BANK8   BANK9  BANK10  BANK1
      +1  BANK12  BANK13  BANK14  BANK15
  9911 ;;      Params:         0       0       0       0       0       0       0       0       0       0       0       0       
      +0       0       0       0       0
  9912 ;;      Locals:         0       0       0       0       0       0       0       0       0       0       0       0       
      +0       0       0       0       0
  9913 ;;      Temps:          0       0       0       0       0       0       0       0       0       0       0       0       
      +0       0       0       0       0
  9914 ;;      Totals:         0       0       0       0       0       0       0       0       0       0       0       0       
      +0       0       0       0       0
  9915 ;;Total ram usage:        0 bytes
  9916 ;; Hardware stack levels used: 1
  9917 ;; Hardware stack levels required when called: 7
  9918 ;; This function calls:
  9919 ;;		Nothing
  9920 ;; This function is called by:
  9921 ;;		_efgtoa
  9922 ;; This function uses a reentrant model
  9923 ;;
  9924                           
  9925                           	psect	text40
  9926   003658                     __ptext40:
  9927                           	callstack 0
  9928   003658                     ___fltol:
  9929                           	callstack 0
  9930                           
  9931                           ; autosize = 2, savesize = 0, parsavesize = 0, tempsize = 0 parsize = 4, argsize = 4 var
      +                          gsize = 0, retsize = 0 argfudge = 0
  9932   003658  52E6               	movf	postinc1,f,c
  9933   00365A  52E6               	movf	postinc1,f,c
  9934   00365C                     
  9935                           ;stkvar	_f1 @ sp[(-2)+-4]
  9936   00365C  0EFA               	movlw	-6
  9937   00365E  CFE3 F009          	movff	plusw1,btemp+8
  9938   003662  0EFB               	movlw	-5
  9939   003664  CFE3 F00A          	movff	plusw1,btemp+9
  9940   003668  0EFC               	movlw	-4
  9941   00366A  CFE3 F00B          	movff	plusw1,btemp+10
  9942   00366E  0EFD               	movlw	-3
  9943   003670  CFE3 F00C          	movff	plusw1,btemp+11
  9944   003674  0E18               	movlw	24
  9945   003676  EF42  F01B         	goto	u3600
  9946   00367A                     u3605:
  9947   00367A  90D8               	bcf	status,0,c
  9948   00367C  320C               	rrcf	(btemp+11)^0,f,c
  9949   00367E  320B               	rrcf	(btemp+10)^0,f,c
  9950   003680  320A               	rrcf	(btemp+9)^0,f,c
  9951   003682  3209               	rrcf	(btemp+8)^0,f,c
  9952   003684                     u3600:
  9953   003684  2EE8               	decfsz	wreg,f,c
  9954   003686  EF3D  F01B         	goto	u3605
  9955                           
  9956                           ;stkvar	_exp1 @ sp[(-2)+0]
  9957   00368A  0EFE               	movlw	-2
  9958   00368C  C009  FFE3         	movff	btemp+8,plusw1
  9959   003690  0EFE               	movlw	-2
  9960   003692  50E3               	movf	plusw1,w,c
  9961   003694  A4D8               	btfss	status,2,c
  9962   003696  EF4F  F01B         	goto	u3611
  9963   00369A  EF51  F01B         	goto	u3610
  9964   00369E                     u3611:
  9965   00369E  EF58  F01B         	goto	l3822
  9966   0036A2                     u3610:
  9967   0036A2                     l3818:
  9968   0036A2  0E00               	movlw	0
  9969   0036A4  6E01               	movwf	btemp^0,c
  9970   0036A6  6A02               	clrf	(btemp+1)^0,c
  9971   0036A8  6A03               	clrf	(btemp+2)^0,c
  9972   0036AA  6A04               	clrf	(btemp+3)^0,c
  9973   0036AC  EFFB  F01B         	goto	l700
  9974   0036B0                     l3822:
  9975                           
  9976                           ;stkvar	_f1 @ sp[(-2)+-4]
  9977   0036B0  0EFA               	movlw	-6
  9978   0036B2  CFE3 F009          	movff	plusw1,btemp+8
  9979   0036B6  0EFB               	movlw	-5
  9980   0036B8  CFE3 F00A          	movff	plusw1,btemp+9
  9981   0036BC  0EFC               	movlw	-4
  9982   0036BE  CFE3 F00B          	movff	plusw1,btemp+10
  9983   0036C2  0EFD               	movlw	-3
  9984   0036C4  CFE3 F00C          	movff	plusw1,btemp+11
  9985   0036C8  0E20               	movlw	32
  9986   0036CA  EF6C  F01B         	goto	u3620
  9987   0036CE                     u3625:
  9988   0036CE  90D8               	bcf	status,0,c
  9989   0036D0  320C               	rrcf	(btemp+11)^0,f,c
  9990   0036D2  320B               	rrcf	(btemp+10)^0,f,c
  9991   0036D4  320A               	rrcf	(btemp+9)^0,f,c
  9992   0036D6  3209               	rrcf	(btemp+8)^0,f,c
  9993   0036D8                     u3620:
  9994   0036D8  2EE8               	decfsz	wreg,f,c
  9995   0036DA  EF67  F01B         	goto	u3625
  9996                           
  9997                           ;stkvar	_sign1 @ sp[(-2)+1]
  9998   0036DE  0EFF               	movlw	-1
  9999   0036E0  C009  FFE3         	movff	btemp+8,plusw1
 10000   0036E4                     
 10001                           ;stkvar	_f1 @ sp[(-2)+-4]
 10002   0036E4  0EFC               	movlw	-4
 10003   0036E6  8EE3               	bsf	plusw1,7,c
 10004   0036E8                     
 10005                           ;stkvar	_f1 @ sp[(-2)+-4]
 10006   0036E8  50E1               	movf	fsr1l,w,c
 10007   0036EA  0FFA               	addlw	-6
 10008   0036EC  6ED9               	movwf	fsr2l,c
 10009   0036EE  50E2               	movf	fsr1h,w,c
 10010   0036F0  6EDA               	movwf	fsr2h,c
 10011   0036F2  0EFF               	movlw	255
 10012   0036F4  22DA               	addwfc	fsr2h,f,c
 10013   0036F6  0EFF               	movlw	255
 10014   0036F8  16DE               	andwf	postinc2,f,c
 10015   0036FA  0EFF               	movlw	255
 10016   0036FC  16DE               	andwf	postinc2,f,c
 10017   0036FE  0EFF               	movlw	255
 10018   003700  16DE               	andwf	postinc2,f,c
 10019   003702  0E00               	movlw	0
 10020   003704  16DE               	andwf	postinc2,f,c
 10021   003706                     
 10022                           ;stkvar	_exp1 @ sp[(-2)+0]
 10023   003706  0EFE               	movlw	-2
 10024   003708  CFE3 F001          	movff	plusw1,btemp
 10025   00370C  0E96               	movlw	150
 10026   00370E  5E01               	subwf	btemp^0,f,c
 10027   003710  0EFE               	movlw	-2
 10028   003712  C001  FFE3         	movff	btemp,plusw1
 10029   003716                     
 10030                           ;stkvar	_exp1 @ sp[(-2)+0]
 10031   003716  0EFE               	movlw	-2
 10032   003718  BEE3               	btfsc	plusw1,7,c
 10033   00371A  EF93  F01B         	goto	u3630
 10034   00371E  EF91  F01B         	goto	u3631
 10035   003722                     u3631:
 10036   003722  EFB4  F01B         	goto	l3840
 10037   003726                     u3630:
 10038   003726                     
 10039                           ;stkvar	_exp1 @ sp[(-2)+0]
 10040   003726  0EFE               	movlw	-2
 10041   003728  50E3               	movf	plusw1,w,c
 10042   00372A  0A80               	xorlw	128
 10043   00372C  0F97               	addlw	151
 10044   00372E  B0D8               	btfsc	status,0,c
 10045   003730  EF9C  F01B         	goto	u3641
 10046   003734  EF9E  F01B         	goto	u3640
 10047   003738                     u3641:
 10048   003738  EFA0  F01B         	goto	l3838
 10049   00373C                     u3640:
 10050   00373C  EF51  F01B         	goto	l3818
 10051   003740                     l3838:
 10052                           
 10053                           ;stkvar	_f1 @ sp[(-2)+-4]
 10054   003740  90D8               	bcf	status,0,c
 10055   003742  0EFD               	movlw	-3
 10056   003744  32E3               	rrcf	plusw1,f,c
 10057   003746  0EFC               	movlw	-4
 10058   003748  32E3               	rrcf	plusw1,f,c
 10059   00374A  0EFB               	movlw	-5
 10060   00374C  32E3               	rrcf	plusw1,f,c
 10061   00374E  0EFA               	movlw	-6
 10062   003750  32E3               	rrcf	plusw1,f,c
 10063                           
 10064                           ;stkvar	_exp1 @ sp[(-2)+0]
 10065   003752  0EFE               	movlw	-2
 10066   003754  2AE3               	incf	plusw1,f,c
 10067   003756  A4D8               	btfss	status,2,c
 10068   003758  EFB0  F01B         	goto	u3651
 10069   00375C  EFB2  F01B         	goto	u3650
 10070   003760                     u3651:
 10071   003760  EFA0  F01B         	goto	l3838
 10072   003764                     u3650:
 10073   003764  EFD5  F01B         	goto	l3850
 10074   003768                     l3840:
 10075                           
 10076                           ;stkvar	_exp1 @ sp[(-2)+0]
 10077   003768  0EFE               	movlw	-2
 10078   00376A  CFE3 F001          	movff	plusw1,btemp
 10079   00376E  0E1F               	movlw	31
 10080   003770  6401               	cpfsgt	btemp^0,c
 10081   003772  EFBD  F01B         	goto	u3661
 10082   003776  EFBF  F01B         	goto	u3660
 10083   00377A                     u3661:
 10084   00377A  EFCC  F01B         	goto	l3848
 10085   00377E                     u3660:
 10086   00377E  EF51  F01B         	goto	l3818
 10087   003782                     l3846:
 10088                           
 10089                           ;stkvar	_f1 @ sp[(-2)+-4]
 10090   003782  90D8               	bcf	status,0,c
 10091   003784  0EFA               	movlw	-6
 10092   003786  36E3               	rlcf	plusw1,f,c
 10093   003788  0EFB               	movlw	-5
 10094   00378A  36E3               	rlcf	plusw1,f,c
 10095   00378C  0EFC               	movlw	-4
 10096   00378E  36E3               	rlcf	plusw1,f,c
 10097   003790  0EFD               	movlw	-3
 10098   003792  36E3               	rlcf	plusw1,f,c
 10099                           
 10100                           ;stkvar	_exp1 @ sp[(-2)+0]
 10101   003794  0EFE               	movlw	-2
 10102   003796  06E3               	decf	plusw1,f,c
 10103   003798                     l3848:
 10104                           
 10105                           ;stkvar	_exp1 @ sp[(-2)+0]
 10106   003798  0EFE               	movlw	-2
 10107   00379A  50E3               	movf	plusw1,w,c
 10108   00379C  A4D8               	btfss	status,2,c
 10109   00379E  EFD3  F01B         	goto	u3671
 10110   0037A2  EFD5  F01B         	goto	u3670
 10111   0037A6                     u3671:
 10112   0037A6  EFC1  F01B         	goto	l3846
 10113   0037AA                     u3670:
 10114   0037AA                     l3850:
 10115                           
 10116                           ;stkvar	_sign1 @ sp[(-2)+1]
 10117   0037AA  0EFF               	movlw	-1
 10118   0037AC  50E3               	movf	plusw1,w,c
 10119   0037AE  B4D8               	btfsc	status,2,c
 10120   0037B0  EFDC  F01B         	goto	u3681
 10121   0037B4  EFDE  F01B         	goto	u3680
 10122   0037B8                     u3681:
 10123   0037B8  EFEF  F01B         	goto	l3854
 10124   0037BC                     u3680:
 10125   0037BC                     
 10126                           ;stkvar	_f1 @ sp[(-2)+-4]
 10127                           ;stkvar	_f1 @ sp[(-2)+-4]
 10128   0037BC  0EFA               	movlw	-6
 10129   0037BE  6CE3               	negf	plusw1,c
 10130   0037C0  0EFB               	movlw	-5
 10131   0037C2  1EE3               	comf	plusw1,f,c
 10132   0037C4  0EFC               	movlw	-4
 10133   0037C6  1EE3               	comf	plusw1,f,c
 10134   0037C8  0EFD               	movlw	-3
 10135   0037CA  1EE3               	comf	plusw1,f,c
 10136   0037CC  E308               	bnc	u3690
 10137   0037CE  0EFB               	movlw	-5
 10138   0037D0  2AE3               	incf	plusw1,f,c
 10139   0037D2  E305               	bnc	u3690
 10140   0037D4  0EFC               	movlw	-4
 10141   0037D6  2AE3               	incf	plusw1,f,c
 10142   0037D8  E302               	bnc	u3690
 10143   0037DA  0EFD               	movlw	-3
 10144   0037DC  2AE3               	incf	plusw1,f,c
 10145   0037DE                     u3690:
 10146   0037DE                     l3854:
 10147                           
 10148                           ;stkvar	_f1 @ sp[(-2)+-4]
 10149   0037DE  0EFA               	movlw	-6
 10150   0037E0  CFE3 F001          	movff	plusw1,btemp
 10151   0037E4  0EFB               	movlw	-5
 10152   0037E6  CFE3 F002          	movff	plusw1,btemp+1
 10153   0037EA  0EFC               	movlw	-4
 10154   0037EC  CFE3 F003          	movff	plusw1,btemp+2
 10155   0037F0  0EFD               	movlw	-3
 10156   0037F2  CFE3 F004          	movff	plusw1,btemp+3
 10157   0037F6                     l700:
 10158                           
 10159                           ; ___fltol: autosize = 2, savesize = 0, parsavesize = 0, tempsize = 0 parsize = 4, argsi
      +                          ze = 4, vargsize = 0
 10160   0037F6  0EFA               	movlw	250
 10161   0037F8  26E1               	addwf	fsr1l,f,c
 10162   0037FA  0EFF               	movlw	255
 10163   0037FC  22E2               	addwfc	fsr1h,f,c
 10164   0037FE  0012               	return		;funcret
 10165   003800                     __end_of___fltol:
 10166                           	callstack 0
 10167                           
 10168 ;; *************** function ___flsub *****************
 10169 ;; Defined at:
 10170 ;;		line 245 in file "C:\Program Files\Microchip\xc8\v2.41\pic\sources\c99\common\sprcadd.c"
 10171 ;; Parameters:    Size  Location     Type
 10172 ;;  b               4  [STACK] long 
 10173 ;;  a               4  [STACK] long 
 10174 ;; Auto vars:     Size  Location     Type
 10175 ;;		None
 10176 ;; Return value:  Size  Location     Type
 10177 ;;                  4  [STACK] long 
 10178 ;; Registers used:
 10179 ;;		wreg, fsr0l, fsr0h, fsr1l, fsr1h, fsr2l, fsr2h, status,2, status,0, btemp, btemp+1, btemp+2, btemp+3, btemp+4, btemp
      ++5, btemp+6, btemp+7, btemp+8, btemp+9, btemp+10, btemp+11
 10180 ;; Tracked objects:
 10181 ;;		On entry : 0/F
 10182 ;;		On exit  : 0/0
 10183 ;;		Unchanged: 0/0
 10184 ;; Data sizes:     COMRAM   BANK0   BANK1   BANK2   BANK3   BANK4   BANK5   BANK6   BANK7   BANK8   BANK9  BANK10  BANK1
      +1  BANK12  BANK13  BANK14  BANK15
 10185 ;;      Params:         0       0       0       0       0       0       0       0       0       0       0       0       
      +0       0       0       0       0
 10186 ;;      Locals:         0       0       0       0       0       0       0       0       0       0       0       0       
      +0       0       0       0       0
 10187 ;;      Temps:          0       0       0       0       0       0       0       0       0       0       0       0       
      +0       0       0       0       0
 10188 ;;      Totals:         0       0       0       0       0       0       0       0       0       0       0       0       
      +0       0       0       0       0
 10189 ;;Total ram usage:        0 bytes
 10190 ;; Hardware stack levels used: 1
 10191 ;; Hardware stack levels required when called: 8
 10192 ;; This function calls:
 10193 ;;		___fladd
 10194 ;; This function is called by:
 10195 ;;		_efgtoa
 10196 ;; This function uses a reentrant model
 10197 ;;
 10198                           
 10199                           	psect	text41
 10200   0052F8                     __ptext41:
 10201                           	callstack 0
 10202   0052F8                     ___flsub:
 10203                           	callstack 0
 10204   0052F8                     
 10205                           ;stkvar	_a @ sp[(0)+-8]
 10206   0052F8  0EFB               	movlw	-5
 10207   0052FA  7EE3               	btg	plusw1,7,c
 10208   0052FC                     
 10209                           ;stkvar	_a @ sp[(0)+-8]
 10210   0052FC  0EF8               	movlw	-8
 10211   0052FE  CFE3 FFE6          	movff	plusw1,postinc1
 10212   005302  CFE3 FFE6          	movff	plusw1,postinc1
 10213   005306  CFE3 FFE6          	movff	plusw1,postinc1
 10214   00530A  CFE3 FFE6          	movff	plusw1,postinc1
 10215                           
 10216                           ;stkvar	_b @ sp[(-4)+-4]
 10217   00530E  0EF8               	movlw	-8
 10218   005310  CFE3 FFE6          	movff	plusw1,postinc1
 10219   005314  CFE3 FFE6          	movff	plusw1,postinc1
 10220   005318  CFE3 FFE6          	movff	plusw1,postinc1
 10221   00531C  CFE3 FFE6          	movff	plusw1,postinc1
 10222   005320  EC77  F008         	call	___fladd	;wreg free
 10223   005324                     
 10224                           ; ___flsub: autosize = 0, savesize = 0, parsavesize = 0, tempsize = 0 parsize = 8, argsi
      +                          ze = 8, vargsize = 0
 10225   005324  0EF8               	movlw	248
 10226   005326  26E1               	addwf	fsr1l,f,c
 10227   005328  0EFF               	movlw	255
 10228   00532A  22E2               	addwfc	fsr1h,f,c
 10229   00532C  0012               	return		;funcret
 10230   00532E                     __end_of___flsub:
 10231                           	callstack 0
 10232                           
 10233 ;; *************** function ___fladd *****************
 10234 ;; Defined at:
 10235 ;;		line 10 in file "C:\Program Files\Microchip\xc8\v2.41\pic\sources\c99\common\sprcadd.c"
 10236 ;; Parameters:    Size  Location     Type
 10237 ;;  b               4  [STACK] long 
 10238 ;;  a               4  [STACK] long 
 10239 ;; Auto vars:     Size  Location     Type
 10240 ;;  grs             1  [STACK] unsigned char 
 10241 ;;  bexp            1  [STACK] unsigned char 
 10242 ;;  aexp            1  [STACK] unsigned char 
 10243 ;;  signs           1  [STACK] unsigned char 
 10244 ;; Return value:  Size  Location     Type
 10245 ;;                  4  [STACK] unsigned char 
 10246 ;; Registers used:
 10247 ;;		wreg, fsr0l, fsr0h, fsr1l, fsr1h, fsr2l, fsr2h, status,2, status,0, btemp, btemp+1, btemp+2, btemp+3, btemp+4, btemp
      ++5, btemp+6, btemp+7, btemp+8, btemp+9, btemp+10, btemp+11
 10248 ;; Tracked objects:
 10249 ;;		On entry : 0/F
 10250 ;;		On exit  : 0/0
 10251 ;;		Unchanged: 0/0
 10252 ;; Data sizes:     COMRAM   BANK0   BANK1   BANK2   BANK3   BANK4   BANK5   BANK6   BANK7   BANK8   BANK9  BANK10  BANK1
      +1  BANK12  BANK13  BANK14  BANK15
 10253 ;;      Params:         0       0       0       0       0       0       0       0       0       0       0       0       
      +0       0       0       0       0
 10254 ;;      Locals:         0       0       0       0       0       0       0       0       0       0       0       0       
      +0       0       0       0       0
 10255 ;;      Temps:          0       0       0       0       0       0       0       0       0       0       0       0       
      +0       0       0       0       0
 10256 ;;      Totals:         0       0       0       0       0       0       0       0       0       0       0       0       
      +0       0       0       0       0
 10257 ;;Total ram usage:        0 bytes
 10258 ;; Hardware stack levels used: 1
 10259 ;; Hardware stack levels required when called: 7
 10260 ;; This function calls:
 10261 ;;		Nothing
 10262 ;; This function is called by:
 10263 ;;		___flsub
 10264 ;;		_efgtoa
 10265 ;; This function uses a reentrant model
 10266 ;;
 10267                           
 10268                           	psect	text42
 10269   0010EE                     __ptext42:
 10270                           	callstack 0
 10271   0010EE                     ___fladd:
 10272                           	callstack 0
 10273                           
 10274                           ; autosize = 4, savesize = 0, parsavesize = 0, tempsize = 0 parsize = 8, argsize = 8 var
      +                          gsize = 0, retsize = 0 argfudge = 0
 10275   0010EE  52E6               	movf	postinc1,f,c
 10276   0010F0  52E6               	movf	postinc1,f,c
 10277   0010F2  52E6               	movf	postinc1,f,c
 10278   0010F4  52E6               	movf	postinc1,f,c
 10279   0010F6                     
 10280                           ;stkvar	_b @ sp[(-4)+-4]
 10281   0010F6  0EFB               	movlw	251
 10282   0010F8  24E1               	addwf	fsr1l,w,c
 10283   0010FA  6ED9               	movwf	fsr2l,c
 10284   0010FC  0EFF               	movlw	255
 10285   0010FE  20E2               	addwfc	fsr1h,w,c
 10286   001100  6EDA               	movwf	fsr2h,c
 10287   001102  50DF               	movf	indf2,w,c
 10288   001104  6E0C               	movwf	(btemp+11)^0,c
 10289   001106  0E80               	movlw	128
 10290   001108  160C               	andwf	(btemp+11)^0,f,c
 10291                           
 10292                           ;stkvar	_signs @ sp[(-4)+3]
 10293   00110A  0EFF               	movlw	-1
 10294   00110C  C00C  FFE3         	movff	btemp+11,plusw1
 10295   001110                     
 10296                           ;stkvar	_b @ sp[(-4)+-4]
 10297   001110  0EFB               	movlw	251
 10298   001112  24E1               	addwf	fsr1l,w,c
 10299   001114  6ED9               	movwf	fsr2l,c
 10300   001116  0EFF               	movlw	255
 10301   001118  20E2               	addwfc	fsr1h,w,c
 10302   00111A  6EDA               	movwf	fsr2h,c
 10303   00111C  50DF               	movf	indf2,w,c
 10304   00111E  6E0C               	movwf	(btemp+11)^0,c
 10305   001120  90D8               	bcf	status,0,c
 10306   001122  340C               	rlcf	(btemp+11)^0,w,c
 10307   001124  6E0B               	movwf	(btemp+10)^0,c
 10308                           
 10309                           ;stkvar	_bexp @ sp[(-4)+1]
 10310   001126  0EFD               	movlw	-3
 10311   001128  C00B  FFE3         	movff	btemp+10,plusw1
 10312   00112C                     
 10313                           ;stkvar	_b @ sp[(-4)+-4]
 10314   00112C  0EFA               	movlw	250
 10315   00112E  24E1               	addwf	fsr1l,w,c
 10316   001130  6ED9               	movwf	fsr2l,c
 10317   001132  0EFF               	movlw	255
 10318   001134  20E2               	addwfc	fsr1h,w,c
 10319   001136  6EDA               	movwf	fsr2h,c
 10320   001138  AEDF               	btfss	indf2,7,c
 10321   00113A  EFA1  F008         	goto	u2621
 10322   00113E  EFA3  F008         	goto	u2620
 10323   001142                     u2621:
 10324   001142  EFA5  F008         	goto	l3228
 10325   001146                     u2620:
 10326   001146                     
 10327                           ;stkvar	_bexp @ sp[(-4)+1]
 10328   001146  0EFD               	movlw	-3
 10329   001148  80E3               	bsf	plusw1,0,c
 10330   00114A                     l3228:
 10331                           
 10332                           ;stkvar	_bexp @ sp[(-4)+1]
 10333   00114A  0EFD               	movlw	-3
 10334   00114C  50E3               	movf	plusw1,w,c
 10335   00114E  B4D8               	btfsc	status,2,c
 10336   001150  EFAC  F008         	goto	u2631
 10337   001154  EFAE  F008         	goto	u2630
 10338   001158                     u2631:
 10339   001158  EFD6  F008         	goto	l3238
 10340   00115C                     u2630:
 10341   00115C                     
 10342                           ;stkvar	_bexp @ sp[(-4)+1]
 10343   00115C  0EFD               	movlw	-3
 10344   00115E  28E3               	incf	plusw1,w,c
 10345   001160  A4D8               	btfss	status,2,c
 10346   001162  EFB5  F008         	goto	u2641
 10347   001166  EFB7  F008         	goto	u2640
 10348   00116A                     u2641:
 10349   00116A  EFCB  F008         	goto	l3234
 10350   00116E                     u2640:
 10351   00116E  0E00               	movlw	0
 10352   001170  6E09               	movwf	(btemp+8)^0,c
 10353   001172  0E00               	movlw	0
 10354   001174  6E0A               	movwf	(btemp+9)^0,c
 10355   001176  0E00               	movlw	0
 10356   001178  6E0B               	movwf	(btemp+10)^0,c
 10357   00117A  0E00               	movlw	0
 10358   00117C  6E0C               	movwf	(btemp+11)^0,c
 10359                           
 10360                           ;stkvar	_b @ sp[(-4)+-4]
 10361   00117E  0EF8               	movlw	-8
 10362   001180  C009  FFE3         	movff	btemp+8,plusw1
 10363   001184  0EF9               	movlw	-7
 10364   001186  C00A  FFE3         	movff	btemp+9,plusw1
 10365   00118A  0EFA               	movlw	-6
 10366   00118C  C00B  FFE3         	movff	btemp+10,plusw1
 10367   001190  0EFB               	movlw	-5
 10368   001192  C00C  FFE3         	movff	btemp+11,plusw1
 10369   001196                     l3234:
 10370                           
 10371                           ;stkvar	_b @ sp[(-4)+-4]
 10372   001196  0EFA               	movlw	-6
 10373   001198  8EE3               	bsf	plusw1,7,c
 10374   00119A                     
 10375                           ;stkvar	_b @ sp[(-4)+-4]
 10376   00119A  0EFB               	movlw	251
 10377   00119C  24E1               	addwf	fsr1l,w,c
 10378   00119E  6ED9               	movwf	fsr2l,c
 10379   0011A0  0EFF               	movlw	255
 10380   0011A2  20E2               	addwfc	fsr1h,w,c
 10381   0011A4  6EDA               	movwf	fsr2h,c
 10382   0011A6  6ADF               	clrf	indf2,c
 10383   0011A8  EFEA  F008         	goto	l3240
 10384   0011AC                     l3238:
 10385   0011AC  0E00               	movlw	0
 10386   0011AE  6E09               	movwf	(btemp+8)^0,c
 10387   0011B0  0E00               	movlw	0
 10388   0011B2  6E0A               	movwf	(btemp+9)^0,c
 10389   0011B4  0E00               	movlw	0
 10390   0011B6  6E0B               	movwf	(btemp+10)^0,c
 10391   0011B8  0E00               	movlw	0
 10392   0011BA  6E0C               	movwf	(btemp+11)^0,c
 10393                           
 10394                           ;stkvar	_b @ sp[(-4)+-4]
 10395   0011BC  0EF8               	movlw	-8
 10396   0011BE  C009  FFE3         	movff	btemp+8,plusw1
 10397   0011C2  0EF9               	movlw	-7
 10398   0011C4  C00A  FFE3         	movff	btemp+9,plusw1
 10399   0011C8  0EFA               	movlw	-6
 10400   0011CA  C00B  FFE3         	movff	btemp+10,plusw1
 10401   0011CE  0EFB               	movlw	-5
 10402   0011D0  C00C  FFE3         	movff	btemp+11,plusw1
 10403   0011D4                     l3240:
 10404                           
 10405                           ;stkvar	_a @ sp[(-4)+-8]
 10406   0011D4  0EF7               	movlw	247
 10407   0011D6  24E1               	addwf	fsr1l,w,c
 10408   0011D8  6ED9               	movwf	fsr2l,c
 10409   0011DA  0EFF               	movlw	255
 10410   0011DC  20E2               	addwfc	fsr1h,w,c
 10411   0011DE  6EDA               	movwf	fsr2h,c
 10412   0011E0  50DF               	movf	indf2,w,c
 10413   0011E2  6E0C               	movwf	(btemp+11)^0,c
 10414   0011E4  0E80               	movlw	128
 10415   0011E6  160C               	andwf	(btemp+11)^0,f,c
 10416                           
 10417                           ;stkvar	_aexp @ sp[(-4)+2]
 10418   0011E8  0EFE               	movlw	-2
 10419   0011EA  C00C  FFE3         	movff	btemp+11,plusw1
 10420   0011EE                     
 10421                           ;stkvar	_signs @ sp[(-4)+3]
 10422                           ;stkvar	_aexp @ sp[(-4)+2]
 10423   0011EE  50E1               	movf	fsr1l,w,c
 10424   0011F0  0FFE               	addlw	-2
 10425   0011F2  6ED9               	movwf	fsr2l,c
 10426   0011F4  50E2               	movf	fsr1h,w,c
 10427   0011F6  6EDA               	movwf	fsr2h,c
 10428   0011F8  0EFF               	movlw	255
 10429   0011FA  22DA               	addwfc	fsr2h,f,c
 10430   0011FC  0EFF               	movlw	-1
 10431   0011FE  50E3               	movf	plusw1,w,c
 10432   001200  18DE               	xorwf	postinc2,w,c
 10433   001202  B4D8               	btfsc	status,2,c
 10434   001204  EF06  F009         	goto	u2651
 10435   001208  EF08  F009         	goto	u2650
 10436   00120C                     u2651:
 10437   00120C  EF0A  F009         	goto	l3246
 10438   001210                     u2650:
 10439   001210                     
 10440                           ;stkvar	_signs @ sp[(-4)+3]
 10441   001210  0EFF               	movlw	-1
 10442   001212  8CE3               	bsf	plusw1,6,c
 10443   001214                     l3246:
 10444                           
 10445                           ;stkvar	_a @ sp[(-4)+-8]
 10446   001214  0EF7               	movlw	247
 10447   001216  24E1               	addwf	fsr1l,w,c
 10448   001218  6ED9               	movwf	fsr2l,c
 10449   00121A  0EFF               	movlw	255
 10450   00121C  20E2               	addwfc	fsr1h,w,c
 10451   00121E  6EDA               	movwf	fsr2h,c
 10452   001220  50DF               	movf	indf2,w,c
 10453   001222  6E0C               	movwf	(btemp+11)^0,c
 10454   001224  90D8               	bcf	status,0,c
 10455   001226  340C               	rlcf	(btemp+11)^0,w,c
 10456   001228  6E0B               	movwf	(btemp+10)^0,c
 10457                           
 10458                           ;stkvar	_aexp @ sp[(-4)+2]
 10459   00122A  0EFE               	movlw	-2
 10460   00122C  C00B  FFE3         	movff	btemp+10,plusw1
 10461   001230                     
 10462                           ;stkvar	_a @ sp[(-4)+-8]
 10463   001230  0EF6               	movlw	246
 10464   001232  24E1               	addwf	fsr1l,w,c
 10465   001234  6ED9               	movwf	fsr2l,c
 10466   001236  0EFF               	movlw	255
 10467   001238  20E2               	addwfc	fsr1h,w,c
 10468   00123A  6EDA               	movwf	fsr2h,c
 10469   00123C  AEDF               	btfss	indf2,7,c
 10470   00123E  EF23  F009         	goto	u2661
 10471   001242  EF25  F009         	goto	u2660
 10472   001246                     u2661:
 10473   001246  EF27  F009         	goto	l3252
 10474   00124A                     u2660:
 10475   00124A                     
 10476                           ;stkvar	_aexp @ sp[(-4)+2]
 10477   00124A  0EFE               	movlw	-2
 10478   00124C  80E3               	bsf	plusw1,0,c
 10479   00124E                     l3252:
 10480                           
 10481                           ;stkvar	_aexp @ sp[(-4)+2]
 10482   00124E  0EFE               	movlw	-2
 10483   001250  50E3               	movf	plusw1,w,c
 10484   001252  B4D8               	btfsc	status,2,c
 10485   001254  EF2E  F009         	goto	u2671
 10486   001258  EF30  F009         	goto	u2670
 10487   00125C                     u2671:
 10488   00125C  EF58  F009         	goto	l3262
 10489   001260                     u2670:
 10490   001260                     
 10491                           ;stkvar	_aexp @ sp[(-4)+2]
 10492   001260  0EFE               	movlw	-2
 10493   001262  28E3               	incf	plusw1,w,c
 10494   001264  A4D8               	btfss	status,2,c
 10495   001266  EF37  F009         	goto	u2681
 10496   00126A  EF39  F009         	goto	u2680
 10497   00126E                     u2681:
 10498   00126E  EF4D  F009         	goto	l3258
 10499   001272                     u2680:
 10500   001272  0E00               	movlw	0
 10501   001274  6E09               	movwf	(btemp+8)^0,c
 10502   001276  0E00               	movlw	0
 10503   001278  6E0A               	movwf	(btemp+9)^0,c
 10504   00127A  0E00               	movlw	0
 10505   00127C  6E0B               	movwf	(btemp+10)^0,c
 10506   00127E  0E00               	movlw	0
 10507   001280  6E0C               	movwf	(btemp+11)^0,c
 10508                           
 10509                           ;stkvar	_a @ sp[(-4)+-8]
 10510   001282  0EF4               	movlw	-12
 10511   001284  C009  FFE3         	movff	btemp+8,plusw1
 10512   001288  0EF5               	movlw	-11
 10513   00128A  C00A  FFE3         	movff	btemp+9,plusw1
 10514   00128E  0EF6               	movlw	-10
 10515   001290  C00B  FFE3         	movff	btemp+10,plusw1
 10516   001294  0EF7               	movlw	-9
 10517   001296  C00C  FFE3         	movff	btemp+11,plusw1
 10518   00129A                     l3258:
 10519                           
 10520                           ;stkvar	_a @ sp[(-4)+-8]
 10521   00129A  0EF6               	movlw	-10
 10522   00129C  8EE3               	bsf	plusw1,7,c
 10523   00129E                     
 10524                           ;stkvar	_a @ sp[(-4)+-8]
 10525   00129E  0EF7               	movlw	247
 10526   0012A0  24E1               	addwf	fsr1l,w,c
 10527   0012A2  6ED9               	movwf	fsr2l,c
 10528   0012A4  0EFF               	movlw	255
 10529   0012A6  20E2               	addwfc	fsr1h,w,c
 10530   0012A8  6EDA               	movwf	fsr2h,c
 10531   0012AA  6ADF               	clrf	indf2,c
 10532   0012AC  EF6C  F009         	goto	l3264
 10533   0012B0                     l3262:
 10534   0012B0  0E00               	movlw	0
 10535   0012B2  6E09               	movwf	(btemp+8)^0,c
 10536   0012B4  0E00               	movlw	0
 10537   0012B6  6E0A               	movwf	(btemp+9)^0,c
 10538   0012B8  0E00               	movlw	0
 10539   0012BA  6E0B               	movwf	(btemp+10)^0,c
 10540   0012BC  0E00               	movlw	0
 10541   0012BE  6E0C               	movwf	(btemp+11)^0,c
 10542                           
 10543                           ;stkvar	_a @ sp[(-4)+-8]
 10544   0012C0  0EF4               	movlw	-12
 10545   0012C2  C009  FFE3         	movff	btemp+8,plusw1
 10546   0012C6  0EF5               	movlw	-11
 10547   0012C8  C00A  FFE3         	movff	btemp+9,plusw1
 10548   0012CC  0EF6               	movlw	-10
 10549   0012CE  C00B  FFE3         	movff	btemp+10,plusw1
 10550   0012D2  0EF7               	movlw	-9
 10551   0012D4  C00C  FFE3         	movff	btemp+11,plusw1
 10552   0012D8                     l3264:
 10553                           
 10554                           ;stkvar	_bexp @ sp[(-4)+1]
 10555                           ;stkvar	_aexp @ sp[(-4)+2]
 10556   0012D8  50E1               	movf	fsr1l,w,c
 10557   0012DA  0FFE               	addlw	-2
 10558   0012DC  6ED9               	movwf	fsr2l,c
 10559   0012DE  50E2               	movf	fsr1h,w,c
 10560   0012E0  6EDA               	movwf	fsr2h,c
 10561   0012E2  0EFF               	movlw	255
 10562   0012E4  22DA               	addwfc	fsr2h,f,c
 10563   0012E6  0EFD               	movlw	-3
 10564   0012E8  50E3               	movf	plusw1,w,c
 10565   0012EA  5CDE               	subwf	postinc2,w,c
 10566   0012EC  B0D8               	btfsc	status,0,c
 10567   0012EE  EF7B  F009         	goto	u2691
 10568   0012F2  EF7D  F009         	goto	u2690
 10569   0012F6                     u2691:
 10570   0012F6  EF11  F00A         	goto	l3300
 10571   0012FA                     u2690:
 10572   0012FA                     
 10573                           ;stkvar	_signs @ sp[(-4)+3]
 10574   0012FA  0EFF               	movlw	-1
 10575   0012FC  ACE3               	btfss	plusw1,6,c
 10576   0012FE  EF83  F009         	goto	u2701
 10577   001302  EF85  F009         	goto	u2700
 10578   001306                     u2701:
 10579   001306  EF87  F009         	goto	l3270
 10580   00130A                     u2700:
 10581   00130A                     
 10582                           ;stkvar	_signs @ sp[(-4)+3]
 10583   00130A  0EFF               	movlw	-1
 10584   00130C  7EE3               	btg	plusw1,7,c
 10585   00130E                     l3270:
 10586                           
 10587                           ;stkvar	_bexp @ sp[(-4)+1]
 10588                           ;stkvar	_grs @ sp[(-4)+0]
 10589   00130E  0EFD               	movlw	-3
 10590   001310  CFE3 F001          	movff	plusw1,btemp
 10591   001314  0EFC               	movlw	-4
 10592   001316  C001  FFE3         	movff	btemp,plusw1
 10593   00131A                     
 10594                           ;stkvar	_aexp @ sp[(-4)+2]
 10595                           ;stkvar	_bexp @ sp[(-4)+1]
 10596   00131A  0EFE               	movlw	-2
 10597   00131C  CFE3 F001          	movff	plusw1,btemp
 10598   001320  0EFD               	movlw	-3
 10599   001322  C001  FFE3         	movff	btemp,plusw1
 10600   001326                     
 10601                           ;stkvar	_grs @ sp[(-4)+0]
 10602                           ;stkvar	_aexp @ sp[(-4)+2]
 10603   001326  0EFC               	movlw	-4
 10604   001328  CFE3 F001          	movff	plusw1,btemp
 10605   00132C  0EFE               	movlw	-2
 10606   00132E  C001  FFE3         	movff	btemp,plusw1
 10607   001332                     
 10608                           ;stkvar	_b @ sp[(-4)+-4]
 10609                           ;stkvar	_grs @ sp[(-4)+0]
 10610   001332  0EF8               	movlw	-8
 10611   001334  CFE3 F001          	movff	plusw1,btemp
 10612   001338  0EFC               	movlw	-4
 10613   00133A  C001  FFE3         	movff	btemp,plusw1
 10614   00133E                     
 10615                           ;stkvar	_a @ sp[(-4)+-8]
 10616                           ;stkvar	_b @ sp[(-4)+-4]
 10617   00133E  0EF4               	movlw	-12
 10618   001340  CFE3 F001          	movff	plusw1,btemp
 10619   001344  0EF8               	movlw	-8
 10620   001346  C001  FFE3         	movff	btemp,plusw1
 10621   00134A                     
 10622                           ;stkvar	_grs @ sp[(-4)+0]
 10623                           ;stkvar	_a @ sp[(-4)+-8]
 10624   00134A  0EFC               	movlw	-4
 10625   00134C  CFE3 F001          	movff	plusw1,btemp
 10626   001350  0EF4               	movlw	-12
 10627   001352  C001  FFE3         	movff	btemp,plusw1
 10628   001356                     
 10629                           ;stkvar	_b @ sp[(-4)+-4]
 10630   001356  0EF9               	movlw	249
 10631   001358  24E1               	addwf	fsr1l,w,c
 10632   00135A  6ED9               	movwf	fsr2l,c
 10633   00135C  0EFF               	movlw	255
 10634   00135E  20E2               	addwfc	fsr1h,w,c
 10635   001360  6EDA               	movwf	fsr2h,c
 10636   001362  50DF               	movf	indf2,w,c
 10637   001364  6E0C               	movwf	(btemp+11)^0,c
 10638                           
 10639                           ;stkvar	_grs @ sp[(-4)+0]
 10640   001366  0EFC               	movlw	-4
 10641   001368  C00C  FFE3         	movff	btemp+11,plusw1
 10642   00136C                     
 10643                           ;stkvar	_a @ sp[(-4)+-8]
 10644   00136C  0EF5               	movlw	245
 10645   00136E  24E1               	addwf	fsr1l,w,c
 10646   001370  6ED9               	movwf	fsr2l,c
 10647   001372  0EFF               	movlw	255
 10648   001374  20E2               	addwfc	fsr1h,w,c
 10649   001376  6EDA               	movwf	fsr2h,c
 10650                           
 10651                           ;stkvar	_b @ sp[(-4)+-4]
 10652   001378  0EF9               	movlw	249
 10653   00137A  24E1               	addwf	fsr1l,w,c
 10654   00137C  6EE9               	movwf	fsr0l,c
 10655   00137E  0EFF               	movlw	255
 10656   001380  20E2               	addwfc	fsr1h,w,c
 10657   001382  6EEA               	movwf	fsr0h,c
 10658   001384  CFDF FFEF          	movff	indf2,indf0
 10659   001388                     
 10660                           ;stkvar	_grs @ sp[(-4)+0]
 10661                           ;stkvar	_a @ sp[(-4)+-8]
 10662   001388  0EF5               	movlw	245
 10663   00138A  24E1               	addwf	fsr1l,w,c
 10664   00138C  6ED9               	movwf	fsr2l,c
 10665   00138E  0EFF               	movlw	255
 10666   001390  20E2               	addwfc	fsr1h,w,c
 10667   001392  6EDA               	movwf	fsr2h,c
 10668   001394  0EFC               	movlw	-4
 10669   001396  CFE3 FFDF          	movff	plusw1,indf2
 10670   00139A                     
 10671                           ;stkvar	_b @ sp[(-4)+-4]
 10672   00139A  0EFA               	movlw	250
 10673   00139C  24E1               	addwf	fsr1l,w,c
 10674   00139E  6ED9               	movwf	fsr2l,c
 10675   0013A0  0EFF               	movlw	255
 10676   0013A2  20E2               	addwfc	fsr1h,w,c
 10677   0013A4  6EDA               	movwf	fsr2h,c
 10678   0013A6  50DF               	movf	indf2,w,c
 10679   0013A8  6E0C               	movwf	(btemp+11)^0,c
 10680                           
 10681                           ;stkvar	_grs @ sp[(-4)+0]
 10682   0013AA  0EFC               	movlw	-4
 10683   0013AC  C00C  FFE3         	movff	btemp+11,plusw1
 10684   0013B0                     
 10685                           ;stkvar	_a @ sp[(-4)+-8]
 10686   0013B0  0EF6               	movlw	246
 10687   0013B2  24E1               	addwf	fsr1l,w,c
 10688   0013B4  6ED9               	movwf	fsr2l,c
 10689   0013B6  0EFF               	movlw	255
 10690   0013B8  20E2               	addwfc	fsr1h,w,c
 10691   0013BA  6EDA               	movwf	fsr2h,c
 10692                           
 10693                           ;stkvar	_b @ sp[(-4)+-4]
 10694   0013BC  0EFA               	movlw	250
 10695   0013BE  24E1               	addwf	fsr1l,w,c
 10696   0013C0  6EE9               	movwf	fsr0l,c
 10697   0013C2  0EFF               	movlw	255
 10698   0013C4  20E2               	addwfc	fsr1h,w,c
 10699   0013C6  6EEA               	movwf	fsr0h,c
 10700   0013C8  CFDF FFEF          	movff	indf2,indf0
 10701   0013CC                     
 10702                           ;stkvar	_grs @ sp[(-4)+0]
 10703                           ;stkvar	_a @ sp[(-4)+-8]
 10704   0013CC  0EF6               	movlw	246
 10705   0013CE  24E1               	addwf	fsr1l,w,c
 10706   0013D0  6ED9               	movwf	fsr2l,c
 10707   0013D2  0EFF               	movlw	255
 10708   0013D4  20E2               	addwfc	fsr1h,w,c
 10709   0013D6  6EDA               	movwf	fsr2h,c
 10710   0013D8  0EFC               	movlw	-4
 10711   0013DA  CFE3 FFDF          	movff	plusw1,indf2
 10712   0013DE                     
 10713                           ;stkvar	_b @ sp[(-4)+-4]
 10714   0013DE  0EFB               	movlw	251
 10715   0013E0  24E1               	addwf	fsr1l,w,c
 10716   0013E2  6ED9               	movwf	fsr2l,c
 10717   0013E4  0EFF               	movlw	255
 10718   0013E6  20E2               	addwfc	fsr1h,w,c
 10719   0013E8  6EDA               	movwf	fsr2h,c
 10720   0013EA  50DF               	movf	indf2,w,c
 10721   0013EC  6E0C               	movwf	(btemp+11)^0,c
 10722                           
 10723                           ;stkvar	_grs @ sp[(-4)+0]
 10724   0013EE  0EFC               	movlw	-4
 10725   0013F0  C00C  FFE3         	movff	btemp+11,plusw1
 10726   0013F4                     
 10727                           ;stkvar	_a @ sp[(-4)+-8]
 10728   0013F4  0EF7               	movlw	247
 10729   0013F6  24E1               	addwf	fsr1l,w,c
 10730   0013F8  6ED9               	movwf	fsr2l,c
 10731   0013FA  0EFF               	movlw	255
 10732   0013FC  20E2               	addwfc	fsr1h,w,c
 10733   0013FE  6EDA               	movwf	fsr2h,c
 10734                           
 10735                           ;stkvar	_b @ sp[(-4)+-4]
 10736   001400  0EFB               	movlw	251
 10737   001402  24E1               	addwf	fsr1l,w,c
 10738   001404  6EE9               	movwf	fsr0l,c
 10739   001406  0EFF               	movlw	255
 10740   001408  20E2               	addwfc	fsr1h,w,c
 10741   00140A  6EEA               	movwf	fsr0h,c
 10742   00140C  CFDF FFEF          	movff	indf2,indf0
 10743   001410                     
 10744                           ;stkvar	_grs @ sp[(-4)+0]
 10745                           ;stkvar	_a @ sp[(-4)+-8]
 10746   001410  0EF7               	movlw	247
 10747   001412  24E1               	addwf	fsr1l,w,c
 10748   001414  6ED9               	movwf	fsr2l,c
 10749   001416  0EFF               	movlw	255
 10750   001418  20E2               	addwfc	fsr1h,w,c
 10751   00141A  6EDA               	movwf	fsr2h,c
 10752   00141C  0EFC               	movlw	-4
 10753   00141E  CFE3 FFDF          	movff	plusw1,indf2
 10754   001422                     l3300:
 10755                           
 10756                           ;stkvar	_grs @ sp[(-4)+0]
 10757   001422  0EFC               	movlw	-4
 10758   001424  6AE3               	clrf	plusw1,c
 10759   001426                     
 10760                           ;stkvar	_aexp @ sp[(-4)+2]
 10761   001426  0EFE               	movlw	-2
 10762   001428  50E3               	movf	plusw1,w,c
 10763   00142A  6E0B               	movwf	(btemp+10)^0,c
 10764   00142C  6A0C               	clrf	(btemp+11)^0,c
 10765                           
 10766                           ;stkvar	_bexp @ sp[(-4)+1]
 10767   00142E  0EFD               	movlw	-3
 10768   001430  50E3               	movf	plusw1,w,c
 10769   001432  5E0B               	subwf	(btemp+10)^0,f,c
 10770   001434  0E00               	movlw	0
 10771   001436  5A0C               	subwfb	(btemp+11)^0,f,c
 10772   001438  BE0C               	btfsc	(btemp+11)^0,7,c
 10773   00143A  EF28  F00A         	goto	u2711
 10774   00143E  500C               	movf	(btemp+11)^0,w,c
 10775   001440  E109               	bnz	u2710
 10776   001442  0E1A               	movlw	26
 10777   001444  5C0B               	subwf	(btemp+10)^0,w,c
 10778   001446  A0D8               	btfss	status,0,c
 10779   001448  EF28  F00A         	goto	u2711
 10780   00144C  EF2A  F00A         	goto	u2710
 10781   001450                     u2711:
 10782   001450  EF93  F00A         	goto	l3324
 10783   001454                     u2710:
 10784   001454                     
 10785                           ;stkvar	_b @ sp[(-4)+-4]
 10786   001454  0EF8               	movlw	-8
 10787   001456  50E3               	movf	plusw1,w,c
 10788   001458  E10D               	bnz	u2721
 10789   00145A  0EF9               	movlw	-7
 10790   00145C  50E3               	movf	plusw1,w,c
 10791   00145E  E10A               	bnz	u2721
 10792   001460  0EFA               	movlw	-6
 10793   001462  50E3               	movf	plusw1,w,c
 10794   001464  E107               	bnz	u2721
 10795   001466  0EFB               	movlw	-5
 10796   001468  50E3               	movf	plusw1,w,c
 10797   00146A  A4D8               	btfss	status,2,c
 10798   00146C  EF3A  F00A         	goto	u2721
 10799   001470  EF3E  F00A         	goto	u2720
 10800   001474                     u2721:
 10801   001474  6A0C               	clrf	(btemp+11)^0,c
 10802   001476  2A0C               	incf	(btemp+11)^0,f,c
 10803   001478  EF3F  F00A         	goto	u2738
 10804   00147C                     u2720:
 10805   00147C  6A0C               	clrf	(btemp+11)^0,c
 10806   00147E                     u2738:
 10807                           
 10808                           ;stkvar	_grs @ sp[(-4)+0]
 10809   00147E  0EFC               	movlw	-4
 10810   001480  C00C  FFE3         	movff	btemp+11,plusw1
 10811   001484                     
 10812                           ;stkvar	_b @ sp[(-4)+-4]
 10813   001484  0EF8               	movlw	-8
 10814   001486  6AE3               	clrf	plusw1,c
 10815   001488  0EF9               	movlw	-7
 10816   00148A  6AE3               	clrf	plusw1,c
 10817   00148C  0EFA               	movlw	-6
 10818   00148E  6AE3               	clrf	plusw1,c
 10819   001490  0EFB               	movlw	-5
 10820   001492  6AE3               	clrf	plusw1,c
 10821   001494                     
 10822                           ;stkvar	_aexp @ sp[(-4)+2]
 10823                           ;stkvar	_bexp @ sp[(-4)+1]
 10824   001494  0EFE               	movlw	-2
 10825   001496  CFE3 F001          	movff	plusw1,btemp
 10826   00149A  0EFD               	movlw	-3
 10827   00149C  C001  FFE3         	movff	btemp,plusw1
 10828   0014A0  EFA4  F00A         	goto	l3326
 10829   0014A4                     l3310:
 10830                           
 10831                           ;stkvar	_grs @ sp[(-4)+0]
 10832   0014A4  0EFC               	movlw	-4
 10833   0014A6  A0E3               	btfss	plusw1,0,c
 10834   0014A8  EF58  F00A         	goto	u2741
 10835   0014AC  EF5A  F00A         	goto	u2740
 10836   0014B0                     u2741:
 10837   0014B0  EF66  F00A         	goto	l3314
 10838   0014B4                     u2740:
 10839   0014B4                     
 10840                           ;stkvar	_grs @ sp[(-4)+0]
 10841   0014B4  0EFC               	movlw	-4
 10842   0014B6  CFE3 F00C          	movff	plusw1,btemp+11
 10843   0014BA  90D8               	bcf	status,0,c
 10844   0014BC  320C               	rrcf	(btemp+11)^0,f,c
 10845   0014BE  0E01               	movlw	1
 10846   0014C0  120C               	iorwf	(btemp+11)^0,f,c
 10847                           
 10848                           ;stkvar	_grs @ sp[(-4)+0]
 10849   0014C2  0EFC               	movlw	-4
 10850   0014C4  C00C  FFE3         	movff	btemp+11,plusw1
 10851   0014C8  EF6F  F00A         	goto	l3316
 10852   0014CC                     l3314:
 10853                           
 10854                           ;stkvar	_grs @ sp[(-4)+0]
 10855   0014CC  50E1               	movf	fsr1l,w,c
 10856   0014CE  0FFC               	addlw	-4
 10857   0014D0  6ED9               	movwf	fsr2l,c
 10858   0014D2  50E2               	movf	fsr1h,w,c
 10859   0014D4  6EDA               	movwf	fsr2h,c
 10860   0014D6  0EFF               	movlw	255
 10861   0014D8  22DA               	addwfc	fsr2h,f,c
 10862   0014DA  90D8               	bcf	status,0,c
 10863   0014DC  32DF               	rrcf	indf2,f,c
 10864   0014DE                     l3316:
 10865                           
 10866                           ;stkvar	_b @ sp[(-4)+-4]
 10867   0014DE  0EF8               	movlw	-8
 10868   0014E0  A0E3               	btfss	plusw1,0,c
 10869   0014E2  EF75  F00A         	goto	u2751
 10870   0014E6  EF77  F00A         	goto	u2750
 10871   0014EA                     u2751:
 10872   0014EA  EF79  F00A         	goto	l3320
 10873   0014EE                     u2750:
 10874   0014EE                     
 10875                           ;stkvar	_grs @ sp[(-4)+0]
 10876   0014EE  0EFC               	movlw	-4
 10877   0014F0  8EE3               	bsf	plusw1,7,c
 10878   0014F2                     l3320:
 10879   0014F2  0E01               	movlw	1
 10880   0014F4  6E0C               	movwf	(btemp+11)^0,c
 10881                           
 10882                           ;stkvar	_b @ sp[(-4)+-4]
 10883   0014F6  50E1               	movf	fsr1l,w,c
 10884   0014F8  0FF8               	addlw	-8
 10885   0014FA  6ED9               	movwf	fsr2l,c
 10886   0014FC  50E2               	movf	fsr1h,w,c
 10887   0014FE  6EDA               	movwf	fsr2h,c
 10888   001500  0EFF               	movlw	255
 10889   001502  22DA               	addwfc	fsr2h,f,c
 10890   001504  280C               	incf	(btemp+11)^0,w,c
 10891   001506  52DE               	movf	postinc2,f,c
 10892   001508  EF8E  F00A         	goto	u2760
 10893   00150C                     u2765:
 10894   00150C  52DE               	movf	postinc2,f,c
 10895   00150E  90D8               	bcf	status,0,c
 10896   001510  BEDC               	btfsc	preinc2,7,c
 10897   001512  80D8               	bsf	status,0,c
 10898   001514  32DD               	rrcf	postdec2,f,c
 10899   001516  32DD               	rrcf	postdec2,f,c
 10900   001518  32DD               	rrcf	postdec2,f,c
 10901   00151A  32DE               	rrcf	postinc2,f,c
 10902   00151C                     u2760:
 10903   00151C  2EE8               	decfsz	wreg,f,c
 10904   00151E  EF86  F00A         	goto	u2765
 10905   001522                     
 10906                           ;stkvar	_bexp @ sp[(-4)+1]
 10907   001522  0EFD               	movlw	-3
 10908   001524  2AE3               	incf	plusw1,f,c
 10909   001526                     l3324:
 10910                           
 10911                           ;stkvar	_aexp @ sp[(-4)+2]
 10912                           ;stkvar	_bexp @ sp[(-4)+1]
 10913   001526  50E1               	movf	fsr1l,w,c
 10914   001528  0FFD               	addlw	-3
 10915   00152A  6ED9               	movwf	fsr2l,c
 10916   00152C  50E2               	movf	fsr1h,w,c
 10917   00152E  6EDA               	movwf	fsr2h,c
 10918   001530  0EFF               	movlw	255
 10919   001532  22DA               	addwfc	fsr2h,f,c
 10920   001534  0EFE               	movlw	-2
 10921   001536  50E3               	movf	plusw1,w,c
 10922   001538  5CDE               	subwf	postinc2,w,c
 10923   00153A  A0D8               	btfss	status,0,c
 10924   00153C  EFA2  F00A         	goto	u2771
 10925   001540  EFA4  F00A         	goto	u2770
 10926   001544                     u2771:
 10927   001544  EF52  F00A         	goto	l3310
 10928   001548                     u2770:
 10929   001548                     l3326:
 10930                           
 10931                           ;stkvar	_signs @ sp[(-4)+3]
 10932   001548  0EFF               	movlw	-1
 10933   00154A  BCE3               	btfsc	plusw1,6,c
 10934   00154C  EFAA  F00A         	goto	u2781
 10935   001550  EFAC  F00A         	goto	u2780
 10936   001554                     u2781:
 10937   001554  EF2E  F00B         	goto	l3352
 10938   001558                     u2780:
 10939   001558                     
 10940                           ;stkvar	_bexp @ sp[(-4)+1]
 10941   001558  0EFD               	movlw	-3
 10942   00155A  50E3               	movf	plusw1,w,c
 10943   00155C  A4D8               	btfss	status,2,c
 10944   00155E  EFB3  F00A         	goto	u2791
 10945   001562  EFB5  F00A         	goto	u2790
 10946   001566                     u2791:
 10947   001566  EFBF  F00A         	goto	l3334
 10948   00156A                     u2790:
 10949   00156A  0E00               	movlw	0
 10950   00156C  6E01               	movwf	btemp^0,c
 10951   00156E  0E00               	movlw	0
 10952   001570  6E02               	movwf	(btemp+1)^0,c
 10953   001572  0E00               	movlw	0
 10954   001574  6E03               	movwf	(btemp+2)^0,c
 10955   001576  0E00               	movlw	0
 10956   001578  6E04               	movwf	(btemp+3)^0,c
 10957   00157A  EFE4  F00C         	goto	l940
 10958   00157E                     l3334:
 10959                           
 10960                           ;stkvar	_a @ sp[(-4)+-8]
 10961                           ;stkvar	_b @ sp[(-4)+-4]
 10962   00157E  0EF8               	movlw	-8
 10963   001580  50E3               	movf	plusw1,w,c
 10964   001582  6E01               	movwf	btemp^0,c
 10965   001584  0EF4               	movlw	-12
 10966   001586  50E3               	movf	plusw1,w,c
 10967   001588  2601               	addwf	btemp^0,f,c
 10968   00158A  0EF8               	movlw	-8
 10969   00158C  C001  FFE3         	movff	btemp,plusw1
 10970   001590  0EF9               	movlw	-7
 10971   001592  50E3               	movf	plusw1,w,c
 10972   001594  6E01               	movwf	btemp^0,c
 10973   001596  0EF5               	movlw	-11
 10974   001598  50E3               	movf	plusw1,w,c
 10975   00159A  2201               	addwfc	btemp^0,f,c
 10976   00159C  0EF9               	movlw	-7
 10977   00159E  C001  FFE3         	movff	btemp,plusw1
 10978   0015A2  0EFA               	movlw	-6
 10979   0015A4  50E3               	movf	plusw1,w,c
 10980   0015A6  6E01               	movwf	btemp^0,c
 10981   0015A8  0EF6               	movlw	-10
 10982   0015AA  50E3               	movf	plusw1,w,c
 10983   0015AC  2201               	addwfc	btemp^0,f,c
 10984   0015AE  0EFA               	movlw	-6
 10985   0015B0  C001  FFE3         	movff	btemp,plusw1
 10986   0015B4  0EFB               	movlw	-5
 10987   0015B6  50E3               	movf	plusw1,w,c
 10988   0015B8  6E01               	movwf	btemp^0,c
 10989   0015BA  0EF7               	movlw	-9
 10990   0015BC  50E3               	movf	plusw1,w,c
 10991   0015BE  2201               	addwfc	btemp^0,f,c
 10992   0015C0  0EFB               	movlw	-5
 10993   0015C2  C001  FFE3         	movff	btemp,plusw1
 10994   0015C6                     
 10995                           ;stkvar	_b @ sp[(-4)+-4]
 10996   0015C6  0EFB               	movlw	-5
 10997   0015C8  A0E3               	btfss	plusw1,0,c
 10998   0015CA  EFE9  F00A         	goto	u2801
 10999   0015CE  EFEB  F00A         	goto	u2800
 11000   0015D2                     u2801:
 11001   0015D2  EF18  F00C         	goto	l3390
 11002   0015D6                     u2800:
 11003   0015D6                     
 11004                           ;stkvar	_grs @ sp[(-4)+0]
 11005   0015D6  0EFC               	movlw	-4
 11006   0015D8  A0E3               	btfss	plusw1,0,c
 11007   0015DA  EFF1  F00A         	goto	u2811
 11008   0015DE  EFF3  F00A         	goto	u2810
 11009   0015E2                     u2811:
 11010   0015E2  EFFF  F00A         	goto	l3342
 11011   0015E6                     u2810:
 11012   0015E6                     
 11013                           ;stkvar	_grs @ sp[(-4)+0]
 11014   0015E6  0EFC               	movlw	-4
 11015   0015E8  CFE3 F00C          	movff	plusw1,btemp+11
 11016   0015EC  90D8               	bcf	status,0,c
 11017   0015EE  320C               	rrcf	(btemp+11)^0,f,c
 11018   0015F0  0E01               	movlw	1
 11019   0015F2  120C               	iorwf	(btemp+11)^0,f,c
 11020                           
 11021                           ;stkvar	_grs @ sp[(-4)+0]
 11022   0015F4  0EFC               	movlw	-4
 11023   0015F6  C00C  FFE3         	movff	btemp+11,plusw1
 11024   0015FA  EF08  F00B         	goto	l3344
 11025   0015FE                     l3342:
 11026                           
 11027                           ;stkvar	_grs @ sp[(-4)+0]
 11028   0015FE  50E1               	movf	fsr1l,w,c
 11029   001600  0FFC               	addlw	-4
 11030   001602  6ED9               	movwf	fsr2l,c
 11031   001604  50E2               	movf	fsr1h,w,c
 11032   001606  6EDA               	movwf	fsr2h,c
 11033   001608  0EFF               	movlw	255
 11034   00160A  22DA               	addwfc	fsr2h,f,c
 11035   00160C  90D8               	bcf	status,0,c
 11036   00160E  32DF               	rrcf	indf2,f,c
 11037   001610                     l3344:
 11038                           
 11039                           ;stkvar	_b @ sp[(-4)+-4]
 11040   001610  0EF8               	movlw	-8
 11041   001612  A0E3               	btfss	plusw1,0,c
 11042   001614  EF0E  F00B         	goto	u2821
 11043   001618  EF10  F00B         	goto	u2820
 11044   00161C                     u2821:
 11045   00161C  EF12  F00B         	goto	l3348
 11046   001620                     u2820:
 11047   001620                     
 11048                           ;stkvar	_grs @ sp[(-4)+0]
 11049   001620  0EFC               	movlw	-4
 11050   001622  8EE3               	bsf	plusw1,7,c
 11051   001624                     l3348:
 11052   001624  0E01               	movlw	1
 11053   001626  6E0C               	movwf	(btemp+11)^0,c
 11054                           
 11055                           ;stkvar	_b @ sp[(-4)+-4]
 11056   001628  50E1               	movf	fsr1l,w,c
 11057   00162A  0FF8               	addlw	-8
 11058   00162C  6ED9               	movwf	fsr2l,c
 11059   00162E  50E2               	movf	fsr1h,w,c
 11060   001630  6EDA               	movwf	fsr2h,c
 11061   001632  0EFF               	movlw	255
 11062   001634  22DA               	addwfc	fsr2h,f,c
 11063   001636  280C               	incf	(btemp+11)^0,w,c
 11064   001638  52DE               	movf	postinc2,f,c
 11065   00163A  EF27  F00B         	goto	u2830
 11066   00163E                     u2835:
 11067   00163E  52DE               	movf	postinc2,f,c
 11068   001640  90D8               	bcf	status,0,c
 11069   001642  BEDC               	btfsc	preinc2,7,c
 11070   001644  80D8               	bsf	status,0,c
 11071   001646  32DD               	rrcf	postdec2,f,c
 11072   001648  32DD               	rrcf	postdec2,f,c
 11073   00164A  32DD               	rrcf	postdec2,f,c
 11074   00164C  32DE               	rrcf	postinc2,f,c
 11075   00164E                     u2830:
 11076   00164E  2EE8               	decfsz	wreg,f,c
 11077   001650  EF1F  F00B         	goto	u2835
 11078   001654                     
 11079                           ;stkvar	_bexp @ sp[(-4)+1]
 11080   001654  0EFD               	movlw	-3
 11081   001656  2AE3               	incf	plusw1,f,c
 11082   001658  EF18  F00C         	goto	l3390
 11083   00165C                     l3352:
 11084                           
 11085                           ;stkvar	_a @ sp[(-4)+-8]
 11086                           ;stkvar	_b @ sp[(-4)+-4]
 11087   00165C  50E1               	movf	fsr1l,w,c
 11088   00165E  0FF8               	addlw	-8
 11089   001660  6ED9               	movwf	fsr2l,c
 11090   001662  50E2               	movf	fsr1h,w,c
 11091   001664  6EDA               	movwf	fsr2h,c
 11092   001666  0EFF               	movlw	255
 11093   001668  22DA               	addwfc	fsr2h,f,c
 11094   00166A  0EF4               	movlw	-12
 11095   00166C  50E3               	movf	plusw1,w,c
 11096   00166E  5CDE               	subwf	postinc2,w,c
 11097   001670  0EF5               	movlw	-11
 11098   001672  50E3               	movf	plusw1,w,c
 11099   001674  58DE               	subwfb	postinc2,w,c
 11100   001676  0EF6               	movlw	-10
 11101   001678  50E3               	movf	plusw1,w,c
 11102   00167A  58DE               	subwfb	postinc2,w,c
 11103   00167C  50DE               	movf	postinc2,w,c
 11104   00167E  0A80               	xorlw	128
 11105   001680  6E01               	movwf	btemp^0,c
 11106   001682  0EF7               	movlw	-9
 11107   001684  50E3               	movf	plusw1,w,c
 11108   001686  0A80               	xorlw	128
 11109   001688  5801               	subwfb	btemp^0,w,c
 11110   00168A  B0D8               	btfsc	status,0,c
 11111   00168C  EF4A  F00B         	goto	u2841
 11112   001690  EF4C  F00B         	goto	u2840
 11113   001694                     u2841:
 11114   001694  EF9C  F00B         	goto	l3364
 11115   001698                     u2840:
 11116   001698                     
 11117                           ;stkvar	_b @ sp[(-4)+-4]
 11118                           ;stkvar	_a @ sp[(-4)+-8]
 11119   001698  0EF4               	movlw	-12
 11120   00169A  CFE3 F009          	movff	plusw1,btemp+8
 11121   00169E  0EF5               	movlw	-11
 11122   0016A0  CFE3 F00A          	movff	plusw1,btemp+9
 11123   0016A4  0EF6               	movlw	-10
 11124   0016A6  CFE3 F00B          	movff	plusw1,btemp+10
 11125   0016AA  0EF7               	movlw	-9
 11126   0016AC  CFE3 F00C          	movff	plusw1,btemp+11
 11127   0016B0  0EF8               	movlw	-8
 11128   0016B2  50E3               	movf	plusw1,w,c
 11129   0016B4  5E09               	subwf	(btemp+8)^0,f,c
 11130   0016B6  0EF9               	movlw	-7
 11131   0016B8  50E3               	movf	plusw1,w,c
 11132   0016BA  5A0A               	subwfb	(btemp+9)^0,f,c
 11133   0016BC  0EFA               	movlw	-6
 11134   0016BE  50E3               	movf	plusw1,w,c
 11135   0016C0  5A0B               	subwfb	(btemp+10)^0,f,c
 11136   0016C2  0EFB               	movlw	-5
 11137   0016C4  50E3               	movf	plusw1,w,c
 11138   0016C6  5A0C               	subwfb	(btemp+11)^0,f,c
 11139   0016C8  0EFF               	movlw	255
 11140   0016CA  2409               	addwf	(btemp+8)^0,w,c
 11141   0016CC  6E05               	movwf	(btemp+4)^0,c
 11142   0016CE  0EFF               	movlw	255
 11143   0016D0  200A               	addwfc	(btemp+9)^0,w,c
 11144   0016D2  6E06               	movwf	(btemp+5)^0,c
 11145   0016D4  0EFF               	movlw	255
 11146   0016D6  200B               	addwfc	(btemp+10)^0,w,c
 11147   0016D8  6E07               	movwf	(btemp+6)^0,c
 11148   0016DA  0EFF               	movlw	255
 11149   0016DC  200C               	addwfc	(btemp+11)^0,w,c
 11150   0016DE  6E08               	movwf	(btemp+7)^0,c
 11151                           
 11152                           ;stkvar	_b @ sp[(-4)+-4]
 11153   0016E0  0EF8               	movlw	-8
 11154   0016E2  C005  FFE3         	movff	btemp+4,plusw1
 11155   0016E6  0EF9               	movlw	-7
 11156   0016E8  C006  FFE3         	movff	btemp+5,plusw1
 11157   0016EC  0EFA               	movlw	-6
 11158   0016EE  C007  FFE3         	movff	btemp+6,plusw1
 11159   0016F2  0EFB               	movlw	-5
 11160   0016F4  C008  FFE3         	movff	btemp+7,plusw1
 11161   0016F8                     
 11162                           ;stkvar	_signs @ sp[(-4)+3]
 11163   0016F8  0EFF               	movlw	-1
 11164   0016FA  7EE3               	btg	plusw1,7,c
 11165   0016FC                     
 11166                           ;stkvar	_grs @ sp[(-4)+0]
 11167   0016FC  0EFC               	movlw	-4
 11168   0016FE  50E3               	movf	plusw1,w,c
 11169   001700  0800               	sublw	0
 11170   001702  6E0C               	movwf	(btemp+11)^0,c
 11171                           
 11172                           ;stkvar	_grs @ sp[(-4)+0]
 11173   001704  0EFC               	movlw	-4
 11174   001706  C00C  FFE3         	movff	btemp+11,plusw1
 11175   00170A                     
 11176                           ;stkvar	_grs @ sp[(-4)+0]
 11177   00170A  0EFC               	movlw	-4
 11178   00170C  50E3               	movf	plusw1,w,c
 11179   00170E  A4D8               	btfss	status,2,c
 11180   001710  EF8C  F00B         	goto	u2851
 11181   001714  EF8E  F00B         	goto	u2850
 11182   001718                     u2851:
 11183   001718  EFAF  F00B         	goto	l3366
 11184   00171C                     u2850:
 11185   00171C                     
 11186                           ;stkvar	_b @ sp[(-4)+-4]
 11187   00171C  50E1               	movf	fsr1l,w,c
 11188   00171E  0FF8               	addlw	-8
 11189   001720  6ED9               	movwf	fsr2l,c
 11190   001722  50E2               	movf	fsr1h,w,c
 11191   001724  6EDA               	movwf	fsr2h,c
 11192   001726  0EFF               	movlw	255
 11193   001728  22DA               	addwfc	fsr2h,f,c
 11194   00172A  2ADE               	incf	postinc2,f,c
 11195   00172C  0E00               	movlw	0
 11196   00172E  22DE               	addwfc	postinc2,f,c
 11197   001730  22DE               	addwfc	postinc2,f,c
 11198   001732  22DE               	addwfc	postinc2,f,c
 11199   001734  EFAF  F00B         	goto	l3366
 11200   001738                     l3364:
 11201                           
 11202                           ;stkvar	_a @ sp[(-4)+-8]
 11203                           ;stkvar	_b @ sp[(-4)+-4]
 11204   001738  50E1               	movf	fsr1l,w,c
 11205   00173A  0FF8               	addlw	-8
 11206   00173C  6ED9               	movwf	fsr2l,c
 11207   00173E  50E2               	movf	fsr1h,w,c
 11208   001740  6EDA               	movwf	fsr2h,c
 11209   001742  0EFF               	movlw	255
 11210   001744  22DA               	addwfc	fsr2h,f,c
 11211   001746  0EF4               	movlw	-12
 11212   001748  50E3               	movf	plusw1,w,c
 11213   00174A  5EDE               	subwf	postinc2,f,c
 11214   00174C  0EF5               	movlw	-11
 11215   00174E  50E3               	movf	plusw1,w,c
 11216   001750  5ADE               	subwfb	postinc2,f,c
 11217   001752  0EF6               	movlw	-10
 11218   001754  50E3               	movf	plusw1,w,c
 11219   001756  5ADE               	subwfb	postinc2,f,c
 11220   001758  0EF7               	movlw	-9
 11221   00175A  50E3               	movf	plusw1,w,c
 11222   00175C  5ADE               	subwfb	postinc2,f,c
 11223   00175E                     l3366:
 11224                           
 11225                           ;stkvar	_b @ sp[(-4)+-4]
 11226   00175E  0EF8               	movlw	-8
 11227   001760  50E3               	movf	plusw1,w,c
 11228   001762  E10D               	bnz	u2861
 11229   001764  0EF9               	movlw	-7
 11230   001766  50E3               	movf	plusw1,w,c
 11231   001768  E10A               	bnz	u2861
 11232   00176A  0EFA               	movlw	-6
 11233   00176C  50E3               	movf	plusw1,w,c
 11234   00176E  E107               	bnz	u2861
 11235   001770  0EFB               	movlw	-5
 11236   001772  50E3               	movf	plusw1,w,c
 11237   001774  A4D8               	btfss	status,2,c
 11238   001776  EFBF  F00B         	goto	u2861
 11239   00177A  EFC1  F00B         	goto	u2860
 11240   00177E                     u2861:
 11241   00177E  EF10  F00C         	goto	l3388
 11242   001782                     u2860:
 11243   001782                     
 11244                           ;stkvar	_grs @ sp[(-4)+0]
 11245   001782  0EFC               	movlw	-4
 11246   001784  50E3               	movf	plusw1,w,c
 11247   001786  A4D8               	btfss	status,2,c
 11248   001788  EFC8  F00B         	goto	u2871
 11249   00178C  EFCA  F00B         	goto	u2870
 11250   001790                     u2871:
 11251   001790  EF10  F00C         	goto	l3388
 11252   001794                     u2870:
 11253   001794  0E00               	movlw	0
 11254   001796  6E01               	movwf	btemp^0,c
 11255   001798  0E00               	movlw	0
 11256   00179A  6E02               	movwf	(btemp+1)^0,c
 11257   00179C  0E00               	movlw	0
 11258   00179E  6E03               	movwf	(btemp+2)^0,c
 11259   0017A0  0E00               	movlw	0
 11260   0017A2  6E04               	movwf	(btemp+3)^0,c
 11261   0017A4  EFE4  F00C         	goto	l940
 11262   0017A8                     l3374:
 11263                           
 11264                           ;stkvar	_b @ sp[(-4)+-4]
 11265   0017A8  90D8               	bcf	status,0,c
 11266   0017AA  0EF8               	movlw	-8
 11267   0017AC  36E3               	rlcf	plusw1,f,c
 11268   0017AE  0EF9               	movlw	-7
 11269   0017B0  36E3               	rlcf	plusw1,f,c
 11270   0017B2  0EFA               	movlw	-6
 11271   0017B4  36E3               	rlcf	plusw1,f,c
 11272   0017B6  0EFB               	movlw	-5
 11273   0017B8  36E3               	rlcf	plusw1,f,c
 11274   0017BA                     
 11275                           ;stkvar	_grs @ sp[(-4)+0]
 11276   0017BA  0EFC               	movlw	-4
 11277   0017BC  AEE3               	btfss	plusw1,7,c
 11278   0017BE  EFE3  F00B         	goto	u2881
 11279   0017C2  EFE5  F00B         	goto	u2880
 11280   0017C6                     u2881:
 11281   0017C6  EFE7  F00B         	goto	l952
 11282   0017CA                     u2880:
 11283   0017CA                     
 11284                           ;stkvar	_b @ sp[(-4)+-4]
 11285   0017CA  0EF8               	movlw	-8
 11286   0017CC  80E3               	bsf	plusw1,0,c
 11287   0017CE                     l952:
 11288                           
 11289                           ;stkvar	_grs @ sp[(-4)+0]
 11290   0017CE  0EFC               	movlw	-4
 11291   0017D0  A0E3               	btfss	plusw1,0,c
 11292   0017D2  EFED  F00B         	goto	u2891
 11293   0017D6  EFEF  F00B         	goto	u2890
 11294   0017DA                     u2891:
 11295   0017DA  EFFC  F00B         	goto	l3382
 11296   0017DE                     u2890:
 11297   0017DE                     
 11298                           ;stkvar	_grs @ sp[(-4)+0]
 11299   0017DE  0EFC               	movlw	-4
 11300   0017E0  CFE3 F00C          	movff	plusw1,btemp+11
 11301   0017E4  90D8               	bcf	status,0,c
 11302   0017E6  340C               	rlcf	(btemp+11)^0,w,c
 11303   0017E8  6E0B               	movwf	(btemp+10)^0,c
 11304   0017EA  0E01               	movlw	1
 11305   0017EC  120B               	iorwf	(btemp+10)^0,f,c
 11306                           
 11307                           ;stkvar	_grs @ sp[(-4)+0]
 11308   0017EE  0EFC               	movlw	-4
 11309   0017F0  C00B  FFE3         	movff	btemp+10,plusw1
 11310   0017F4  EF05  F00C         	goto	l3384
 11311   0017F8                     l3382:
 11312                           
 11313                           ;stkvar	_grs @ sp[(-4)+0]
 11314   0017F8  50E1               	movf	fsr1l,w,c
 11315   0017FA  0FFC               	addlw	-4
 11316   0017FC  6ED9               	movwf	fsr2l,c
 11317   0017FE  50E2               	movf	fsr1h,w,c
 11318   001800  6EDA               	movwf	fsr2h,c
 11319   001802  0EFF               	movlw	255
 11320   001804  22DA               	addwfc	fsr2h,f,c
 11321   001806  90D8               	bcf	status,0,c
 11322   001808  36DF               	rlcf	indf2,f,c
 11323   00180A                     l3384:
 11324                           
 11325                           ;stkvar	_bexp @ sp[(-4)+1]
 11326   00180A  0EFD               	movlw	-3
 11327   00180C  50E3               	movf	plusw1,w,c
 11328   00180E  B4D8               	btfsc	status,2,c
 11329   001810  EF0C  F00C         	goto	u2901
 11330   001814  EF0E  F00C         	goto	u2900
 11331   001818                     u2901:
 11332   001818  EF10  F00C         	goto	l3388
 11333   00181C                     u2900:
 11334   00181C                     
 11335                           ;stkvar	_bexp @ sp[(-4)+1]
 11336   00181C  0EFD               	movlw	-3
 11337   00181E  06E3               	decf	plusw1,f,c
 11338   001820                     l3388:
 11339                           
 11340                           ;stkvar	_b @ sp[(-4)+-4]
 11341   001820  0EFA               	movlw	-6
 11342   001822  AEE3               	btfss	plusw1,7,c
 11343   001824  EF16  F00C         	goto	u2911
 11344   001828  EF18  F00C         	goto	u2910
 11345   00182C                     u2911:
 11346   00182C  EFD4  F00B         	goto	l3374
 11347   001830                     u2910:
 11348   001830                     l3390:
 11349                           
 11350                           ;stkvar	_aexp @ sp[(-4)+2]
 11351   001830  0EFE               	movlw	-2
 11352   001832  6AE3               	clrf	plusw1,c
 11353   001834                     
 11354                           ;stkvar	_grs @ sp[(-4)+0]
 11355   001834  0EFC               	movlw	-4
 11356   001836  AEE3               	btfss	plusw1,7,c
 11357   001838  EF20  F00C         	goto	u2921
 11358   00183C  EF22  F00C         	goto	u2920
 11359   001840                     u2921:
 11360   001840  EF3D  F00C         	goto	l3402
 11361   001844                     u2920:
 11362   001844                     
 11363                           ;stkvar	_grs @ sp[(-4)+0]
 11364   001844  0EFC               	movlw	-4
 11365   001846  CFE3 F00C          	movff	plusw1,btemp+11
 11366   00184A  0E7F               	movlw	127
 11367   00184C  160C               	andwf	(btemp+11)^0,f,c
 11368   00184E  B4D8               	btfsc	status,2,c
 11369   001850  EF2C  F00C         	goto	u2931
 11370   001854  EF2E  F00C         	goto	u2930
 11371   001858                     u2931:
 11372   001858  EF33  F00C         	goto	l3398
 11373   00185C                     u2930:
 11374   00185C                     l3396:
 11375                           
 11376                           ;stkvar	_aexp @ sp[(-4)+2]
 11377   00185C  0EFE               	movlw	-2
 11378   00185E  6AE3               	clrf	plusw1,c
 11379   001860  2AE3               	incf	plusw1,f,c
 11380   001862  EF3D  F00C         	goto	l3402
 11381   001866                     l3398:
 11382                           
 11383                           ;stkvar	_b @ sp[(-4)+-4]
 11384   001866  0EF8               	movlw	-8
 11385   001868  A0E3               	btfss	plusw1,0,c
 11386   00186A  EF39  F00C         	goto	u2941
 11387   00186E  EF3B  F00C         	goto	u2940
 11388   001872                     u2941:
 11389   001872  EF3D  F00C         	goto	l3402
 11390   001876                     u2940:
 11391   001876  EF2E  F00C         	goto	l3396
 11392   00187A                     l3402:
 11393                           
 11394                           ;stkvar	_aexp @ sp[(-4)+2]
 11395   00187A  0EFE               	movlw	-2
 11396   00187C  50E3               	movf	plusw1,w,c
 11397   00187E  B4D8               	btfsc	status,2,c
 11398   001880  EF44  F00C         	goto	u2951
 11399   001884  EF46  F00C         	goto	u2950
 11400   001888                     u2951:
 11401   001888  EF7D  F00C         	goto	l3414
 11402   00188C                     u2950:
 11403   00188C                     
 11404                           ;stkvar	_b @ sp[(-4)+-4]
 11405   00188C  50E1               	movf	fsr1l,w,c
 11406   00188E  0FF8               	addlw	-8
 11407   001890  6ED9               	movwf	fsr2l,c
 11408   001892  50E2               	movf	fsr1h,w,c
 11409   001894  6EDA               	movwf	fsr2h,c
 11410   001896  0EFF               	movlw	255
 11411   001898  22DA               	addwfc	fsr2h,f,c
 11412   00189A  2ADE               	incf	postinc2,f,c
 11413   00189C  0E00               	movlw	0
 11414   00189E  22DE               	addwfc	postinc2,f,c
 11415   0018A0  22DE               	addwfc	postinc2,f,c
 11416   0018A2  22DE               	addwfc	postinc2,f,c
 11417   0018A4                     
 11418                           ;stkvar	_b @ sp[(-4)+-4]
 11419   0018A4  0EFB               	movlw	-5
 11420   0018A6  A0E3               	btfss	plusw1,0,c
 11421   0018A8  EF58  F00C         	goto	u2961
 11422   0018AC  EF5A  F00C         	goto	u2960
 11423   0018B0                     u2961:
 11424   0018B0  EF7D  F00C         	goto	l3414
 11425   0018B4                     u2960:
 11426   0018B4  0E01               	movlw	1
 11427   0018B6  6E0C               	movwf	(btemp+11)^0,c
 11428                           
 11429                           ;stkvar	_b @ sp[(-4)+-4]
 11430   0018B8  50E1               	movf	fsr1l,w,c
 11431   0018BA  0FF8               	addlw	-8
 11432   0018BC  6ED9               	movwf	fsr2l,c
 11433   0018BE  50E2               	movf	fsr1h,w,c
 11434   0018C0  6EDA               	movwf	fsr2h,c
 11435   0018C2  0EFF               	movlw	255
 11436   0018C4  22DA               	addwfc	fsr2h,f,c
 11437   0018C6  280C               	incf	(btemp+11)^0,w,c
 11438   0018C8  52DE               	movf	postinc2,f,c
 11439   0018CA  EF6F  F00C         	goto	u2970
 11440   0018CE                     u2975:
 11441   0018CE  52DE               	movf	postinc2,f,c
 11442   0018D0  90D8               	bcf	status,0,c
 11443   0018D2  BEDC               	btfsc	preinc2,7,c
 11444   0018D4  80D8               	bsf	status,0,c
 11445   0018D6  32DD               	rrcf	postdec2,f,c
 11446   0018D8  32DD               	rrcf	postdec2,f,c
 11447   0018DA  32DD               	rrcf	postdec2,f,c
 11448   0018DC  32DE               	rrcf	postinc2,f,c
 11449   0018DE                     u2970:
 11450   0018DE  2EE8               	decfsz	wreg,f,c
 11451   0018E0  EF67  F00C         	goto	u2975
 11452   0018E4                     
 11453                           ;stkvar	_bexp @ sp[(-4)+1]
 11454   0018E4  0EFD               	movlw	-3
 11455   0018E6  28E3               	incf	plusw1,w,c
 11456   0018E8  B4D8               	btfsc	status,2,c
 11457   0018EA  EF79  F00C         	goto	u2981
 11458   0018EE  EF7B  F00C         	goto	u2980
 11459   0018F2                     u2981:
 11460   0018F2  EF7D  F00C         	goto	l3414
 11461   0018F6                     u2980:
 11462   0018F6                     
 11463                           ;stkvar	_bexp @ sp[(-4)+1]
 11464   0018F6  0EFD               	movlw	-3
 11465   0018F8  2AE3               	incf	plusw1,f,c
 11466   0018FA                     l3414:
 11467                           
 11468                           ;stkvar	_bexp @ sp[(-4)+1]
 11469   0018FA  0EFD               	movlw	-3
 11470   0018FC  28E3               	incf	plusw1,w,c
 11471   0018FE  B4D8               	btfsc	status,2,c
 11472   001900  EF84  F00C         	goto	u2991
 11473   001904  EF86  F00C         	goto	u2990
 11474   001908                     u2991:
 11475   001908  EF8F  F00C         	goto	l3418
 11476   00190C                     u2990:
 11477   00190C                     
 11478                           ;stkvar	_bexp @ sp[(-4)+1]
 11479   00190C  0EFD               	movlw	-3
 11480   00190E  50E3               	movf	plusw1,w,c
 11481   001910  A4D8               	btfss	status,2,c
 11482   001912  EF8D  F00C         	goto	u3001
 11483   001916  EF8F  F00C         	goto	u3000
 11484   00191A                     u3001:
 11485   00191A  EFA2  F00C         	goto	l3424
 11486   00191E                     u3000:
 11487   00191E                     l3418:
 11488                           
 11489                           ;stkvar	_b @ sp[(-4)+-4]
 11490   00191E  0EF8               	movlw	-8
 11491   001920  6AE3               	clrf	plusw1,c
 11492   001922  0EF9               	movlw	-7
 11493   001924  6AE3               	clrf	plusw1,c
 11494   001926  0EFA               	movlw	-6
 11495   001928  6AE3               	clrf	plusw1,c
 11496   00192A  0EFB               	movlw	-5
 11497   00192C  6AE3               	clrf	plusw1,c
 11498   00192E                     
 11499                           ;stkvar	_bexp @ sp[(-4)+1]
 11500   00192E  0EFD               	movlw	-3
 11501   001930  50E3               	movf	plusw1,w,c
 11502   001932  A4D8               	btfss	status,2,c
 11503   001934  EF9E  F00C         	goto	u3011
 11504   001938  EFA0  F00C         	goto	u3010
 11505   00193C                     u3011:
 11506   00193C  EFA2  F00C         	goto	l3424
 11507   001940                     u3010:
 11508   001940                     
 11509                           ;stkvar	_signs @ sp[(-4)+3]
 11510   001940  0EFF               	movlw	-1
 11511   001942  6AE3               	clrf	plusw1,c
 11512   001944                     l3424:
 11513                           
 11514                           ;stkvar	_bexp @ sp[(-4)+1]
 11515   001944  0EFD               	movlw	-3
 11516   001946  A0E3               	btfss	plusw1,0,c
 11517   001948  EFA8  F00C         	goto	u3021
 11518   00194C  EFAA  F00C         	goto	u3020
 11519   001950                     u3021:
 11520   001950  EFB4  F00C         	goto	l3428
 11521   001954                     u3020:
 11522   001954                     
 11523                           ;stkvar	_b @ sp[(-4)+-4]
 11524   001954  0EFA               	movlw	250
 11525   001956  24E1               	addwf	fsr1l,w,c
 11526   001958  6ED9               	movwf	fsr2l,c
 11527   00195A  0EFF               	movlw	255
 11528   00195C  20E2               	addwfc	fsr1h,w,c
 11529   00195E  6EDA               	movwf	fsr2h,c
 11530   001960  0E00               	movlw	0
 11531   001962  8EDB               	bsf	plusw2,7,c
 11532   001964  EFBC  F00C         	goto	l3430
 11533   001968                     l3428:
 11534                           
 11535                           ;stkvar	_b @ sp[(-4)+-4]
 11536   001968  0EFA               	movlw	250
 11537   00196A  24E1               	addwf	fsr1l,w,c
 11538   00196C  6ED9               	movwf	fsr2l,c
 11539   00196E  0EFF               	movlw	255
 11540   001970  20E2               	addwfc	fsr1h,w,c
 11541   001972  6EDA               	movwf	fsr2h,c
 11542   001974  0E7F               	movlw	127
 11543   001976  16DF               	andwf	indf2,f,c
 11544   001978                     l3430:
 11545                           
 11546                           ;stkvar	_b @ sp[(-4)+-4]
 11547   001978  0EFB               	movlw	251
 11548   00197A  24E1               	addwf	fsr1l,w,c
 11549   00197C  6ED9               	movwf	fsr2l,c
 11550   00197E  0EFF               	movlw	255
 11551   001980  20E2               	addwfc	fsr1h,w,c
 11552   001982  6EDA               	movwf	fsr2h,c
 11553                           
 11554                           ;stkvar	_bexp @ sp[(-4)+1]
 11555   001984  0EFD               	movlw	-3
 11556   001986  CFE3 F00C          	movff	plusw1,btemp+11
 11557   00198A  90D8               	bcf	status,0,c
 11558   00198C  300C               	rrcf	(btemp+11)^0,w,c
 11559   00198E  6EDF               	movwf	indf2,c
 11560   001990                     
 11561                           ;stkvar	_signs @ sp[(-4)+3]
 11562   001990  0EFF               	movlw	-1
 11563   001992  AEE3               	btfss	plusw1,7,c
 11564   001994  EFCE  F00C         	goto	u3031
 11565   001998  EFD0  F00C         	goto	u3030
 11566   00199C                     u3031:
 11567   00199C  EFD8  F00C         	goto	l3436
 11568   0019A0                     u3030:
 11569   0019A0                     
 11570                           ;stkvar	_b @ sp[(-4)+-4]
 11571   0019A0  0EFB               	movlw	251
 11572   0019A2  24E1               	addwf	fsr1l,w,c
 11573   0019A4  6ED9               	movwf	fsr2l,c
 11574   0019A6  0EFF               	movlw	255
 11575   0019A8  20E2               	addwfc	fsr1h,w,c
 11576   0019AA  6EDA               	movwf	fsr2h,c
 11577   0019AC  0E00               	movlw	0
 11578   0019AE  8EDB               	bsf	plusw2,7,c
 11579   0019B0                     l3436:
 11580                           
 11581                           ;stkvar	_b @ sp[(-4)+-4]
 11582   0019B0  0EF8               	movlw	-8
 11583   0019B2  CFE3 F001          	movff	plusw1,btemp
 11584   0019B6  0EF9               	movlw	-7
 11585   0019B8  CFE3 F002          	movff	plusw1,btemp+1
 11586   0019BC  0EFA               	movlw	-6
 11587   0019BE  CFE3 F003          	movff	plusw1,btemp+2
 11588   0019C2  0EFB               	movlw	-5
 11589   0019C4  CFE3 F004          	movff	plusw1,btemp+3
 11590   0019C8                     l940:
 11591                           
 11592                           ; ___fladd: autosize = 4, savesize = 0, parsavesize = 0, tempsize = 0 parsize = 8, argsi
      +                          ze = 8, vargsize = 0
 11593   0019C8  0EF4               	movlw	244
 11594   0019CA  26E1               	addwf	fsr1l,f,c
 11595   0019CC  0EFF               	movlw	255
 11596   0019CE  22E2               	addwfc	fsr1h,f,c
 11597   0019D0  0012               	return		;funcret
 11598   0019D2                     __end_of___fladd:
 11599                           	callstack 0
 11600                           
 11601 ;; *************** function ___flneg *****************
 11602 ;; Defined at:
 11603 ;;		line 15 in file "C:\Program Files\Microchip\xc8\v2.41\pic\sources\c99\common\flneg.c"
 11604 ;; Parameters:    Size  Location     Type
 11605 ;;  f1              4  [STACK] unsigned char 
 11606 ;; Auto vars:     Size  Location     Type
 11607 ;;		None
 11608 ;; Return value:  Size  Location     Type
 11609 ;;                  4  [STACK] unsigned char 
 11610 ;; Registers used:
 11611 ;;		wreg, fsr1l, fsr1h, status,2, status,0, btemp, btemp+1, btemp+2, btemp+3
 11612 ;; Tracked objects:
 11613 ;;		On entry : 0/F
 11614 ;;		On exit  : 0/0
 11615 ;;		Unchanged: 0/0
 11616 ;; Data sizes:     COMRAM   BANK0   BANK1   BANK2   BANK3   BANK4   BANK5   BANK6   BANK7   BANK8   BANK9  BANK10  BANK1
      +1  BANK12  BANK13  BANK14  BANK15
 11617 ;;      Params:         0       0       0       0       0       0       0       0       0       0       0       0       
      +0       0       0       0       0
 11618 ;;      Locals:         0       0       0       0       0       0       0       0       0       0       0       0       
      +0       0       0       0       0
 11619 ;;      Temps:          0       0       0       0       0       0       0       0       0       0       0       0       
      +0       0       0       0       0
 11620 ;;      Totals:         0       0       0       0       0       0       0       0       0       0       0       0       
      +0       0       0       0       0
 11621 ;;Total ram usage:        0 bytes
 11622 ;; Hardware stack levels used: 1
 11623 ;; Hardware stack levels required when called: 7
 11624 ;; This function calls:
 11625 ;;		Nothing
 11626 ;; This function is called by:
 11627 ;;		_efgtoa
 11628 ;; This function uses a reentrant model
 11629 ;;
 11630                           
 11631                           	psect	text43
 11632   0051EE                     __ptext43:
 11633                           	callstack 0
 11634   0051EE                     ___flneg:
 11635                           	callstack 0
 11636   0051EE                     
 11637                           ;stkvar	_f1 @ sp[(0)+-4]
 11638   0051EE  0EFC               	movlw	-4
 11639   0051F0  50E3               	movf	plusw1,w,c
 11640   0051F2  E10F               	bnz	u3590
 11641   0051F4  0EFD               	movlw	-3
 11642   0051F6  50E3               	movf	plusw1,w,c
 11643   0051F8  E10C               	bnz	u3590
 11644   0051FA  0EFE               	movlw	-2
 11645   0051FC  50E3               	movf	plusw1,w,c
 11646   0051FE  E109               	bnz	u3590
 11647   005200  0EFF               	movlw	-1
 11648   005202  50E3               	movf	plusw1,w,c
 11649   005204  B4D8               	btfsc	status,2,c
 11650   005206  EF07  F029         	goto	u3591
 11651   00520A  EF09  F029         	goto	u3590
 11652   00520E                     u3591:
 11653   00520E  EF0B  F029         	goto	l3812
 11654   005212                     u3590:
 11655   005212                     
 11656                           ;stkvar	_f1 @ sp[(0)+-4]
 11657   005212  0EFF               	movlw	-1
 11658   005214  7EE3               	btg	plusw1,7,c
 11659   005216                     l3812:
 11660                           
 11661                           ;stkvar	_f1 @ sp[(0)+-4]
 11662   005216  0EFC               	movlw	-4
 11663   005218  CFE3 F001          	movff	plusw1,btemp
 11664   00521C  0EFD               	movlw	-3
 11665   00521E  CFE3 F002          	movff	plusw1,btemp+1
 11666   005222  0EFE               	movlw	-2
 11667   005224  CFE3 F003          	movff	plusw1,btemp+2
 11668   005228  0EFF               	movlw	-1
 11669   00522A  CFE3 F004          	movff	plusw1,btemp+3
 11670   00522E                     
 11671                           ; ___flneg: autosize = 0, savesize = 0, parsavesize = 0, tempsize = 0 parsize = 4, argsi
      +                          ze = 4, vargsize = 0
 11672   00522E  52E5               	movf	postdec1,f,c
 11673   005230  52E5               	movf	postdec1,f,c
 11674   005232  52E5               	movf	postdec1,f,c
 11675   005234  52E5               	movf	postdec1,f,c
 11676   005236  0012               	return		;funcret
 11677   005238                     __end_of___flneg:
 11678                           	callstack 0
 11679                           
 11680 ;; *************** function ___flmul *****************
 11681 ;; Defined at:
 11682 ;;		line 8 in file "C:\Program Files\Microchip\xc8\v2.41\pic\sources\c99\common\sprcmul.c"
 11683 ;; Parameters:    Size  Location     Type
 11684 ;;  b               4  [STACK] unsigned char 
 11685 ;;  a               4  [STACK] unsigned char 
 11686 ;; Auto vars:     Size  Location     Type
 11687 ;;  prod            4  [STACK] struct .
 11688 ;;  grs             4  [STACK] unsigned long 
 11689 ;;  temp            2  [STACK] struct .
 11690 ;;  bexp            1  [STACK] unsigned char 
 11691 ;;  aexp            1  [STACK] unsigned char 
 11692 ;;  sign            1  [STACK] unsigned char 
 11693 ;; Return value:  Size  Location     Type
 11694 ;;                  4  [STACK] unsigned char 
 11695 ;; Registers used:
 11696 ;;		wreg, fsr0l, fsr0h, fsr1l, fsr1h, fsr2l, fsr2h, status,2, status,0, btemp, btemp+1, btemp+2, btemp+3, btemp+4, btemp
      ++5, btemp+6, btemp+7, btemp+8, btemp+9, btemp+10, btemp+11, prodl, prodh
 11697 ;; Tracked objects:
 11698 ;;		On entry : 0/F
 11699 ;;		On exit  : 0/0
 11700 ;;		Unchanged: 0/0
 11701 ;; Data sizes:     COMRAM   BANK0   BANK1   BANK2   BANK3   BANK4   BANK5   BANK6   BANK7   BANK8   BANK9  BANK10  BANK1
      +1  BANK12  BANK13  BANK14  BANK15
 11702 ;;      Params:         0       0       0       0       0       0       0       0       0       0       0       0       
      +0       0       0       0       0
 11703 ;;      Locals:         0       0       0       0       0       0       0       0       0       0       0       0       
      +0       0       0       0       0
 11704 ;;      Temps:          0       0       0       0       0       0       0       0       0       0       0       0       
      +0       0       0       0       0
 11705 ;;      Totals:         0       0       0       0       0       0       0       0       0       0       0       0       
      +0       0       0       0       0
 11706 ;;Total ram usage:        0 bytes
 11707 ;; Hardware stack levels used: 1
 11708 ;; Hardware stack levels required when called: 7
 11709 ;; This function calls:
 11710 ;;		Nothing
 11711 ;; This function is called by:
 11712 ;;		_pot_state
 11713 ;;		_efgtoa
 11714 ;; This function uses a reentrant model
 11715 ;;
 11716                           
 11717                           	psect	text44
 11718   0019D2                     __ptext44:
 11719                           	callstack 0
 11720   0019D2                     ___flmul:
 11721                           	callstack 0
 11722                           
 11723                           ; autosize = 13, savesize = 0, parsavesize = 0, tempsize = 0 parsize = 8, argsize = 8 va
      +                          rgsize = 0, retsize = 0 argfudge = 0
 11724   0019D2  0E0D               	movlw	13
 11725   0019D4  26E1               	addwf	fsr1l,f,c
 11726   0019D6  0E00               	movlw	0
 11727   0019D8  22E2               	addwfc	fsr1h,f,c
 11728   0019DA                     
 11729                           ;stkvar	_b @ sp[(-13)+-4]
 11730   0019DA  0EF2               	movlw	242
 11731   0019DC  24E1               	addwf	fsr1l,w,c
 11732   0019DE  6ED9               	movwf	fsr2l,c
 11733   0019E0  0EFF               	movlw	255
 11734   0019E2  20E2               	addwfc	fsr1h,w,c
 11735   0019E4  6EDA               	movwf	fsr2h,c
 11736   0019E6  50DF               	movf	indf2,w,c
 11737   0019E8  6E0C               	movwf	(btemp+11)^0,c
 11738   0019EA  0E80               	movlw	128
 11739   0019EC  160C               	andwf	(btemp+11)^0,f,c
 11740                           
 11741                           ;stkvar	_sign @ sp[(-13)+12]
 11742   0019EE  0EFF               	movlw	-1
 11743   0019F0  C00C  FFE3         	movff	btemp+11,plusw1
 11744   0019F4                     
 11745                           ;stkvar	_b @ sp[(-13)+-4]
 11746   0019F4  0EF2               	movlw	242
 11747   0019F6  24E1               	addwf	fsr1l,w,c
 11748   0019F8  6ED9               	movwf	fsr2l,c
 11749   0019FA  0EFF               	movlw	255
 11750   0019FC  20E2               	addwfc	fsr1h,w,c
 11751   0019FE  6EDA               	movwf	fsr2h,c
 11752   001A00  50DF               	movf	indf2,w,c
 11753   001A02  6E0C               	movwf	(btemp+11)^0,c
 11754   001A04  90D8               	bcf	status,0,c
 11755   001A06  340C               	rlcf	(btemp+11)^0,w,c
 11756   001A08  6E0B               	movwf	(btemp+10)^0,c
 11757                           
 11758                           ;stkvar	_bexp @ sp[(-13)+10]
 11759   001A0A  0EFD               	movlw	-3
 11760   001A0C  C00B  FFE3         	movff	btemp+10,plusw1
 11761   001A10                     
 11762                           ;stkvar	_b @ sp[(-13)+-4]
 11763   001A10  0EF1               	movlw	241
 11764   001A12  24E1               	addwf	fsr1l,w,c
 11765   001A14  6ED9               	movwf	fsr2l,c
 11766   001A16  0EFF               	movlw	255
 11767   001A18  20E2               	addwfc	fsr1h,w,c
 11768   001A1A  6EDA               	movwf	fsr2h,c
 11769   001A1C  AEDF               	btfss	indf2,7,c
 11770   001A1E  EF13  F00D         	goto	u3291
 11771   001A22  EF15  F00D         	goto	u3290
 11772   001A26                     u3291:
 11773   001A26  EF17  F00D         	goto	l3612
 11774   001A2A                     u3290:
 11775   001A2A                     
 11776                           ;stkvar	_bexp @ sp[(-13)+10]
 11777   001A2A  0EFD               	movlw	-3
 11778   001A2C  80E3               	bsf	plusw1,0,c
 11779   001A2E                     l3612:
 11780                           
 11781                           ;stkvar	_bexp @ sp[(-13)+10]
 11782   001A2E  0EFD               	movlw	-3
 11783   001A30  50E3               	movf	plusw1,w,c
 11784   001A32  B4D8               	btfsc	status,2,c
 11785   001A34  EF1E  F00D         	goto	u3301
 11786   001A38  EF20  F00D         	goto	u3300
 11787   001A3C                     u3301:
 11788   001A3C  EF41  F00D         	goto	l3620
 11789   001A40                     u3300:
 11790   001A40                     
 11791                           ;stkvar	_bexp @ sp[(-13)+10]
 11792   001A40  0EFD               	movlw	-3
 11793   001A42  28E3               	incf	plusw1,w,c
 11794   001A44  A4D8               	btfss	status,2,c
 11795   001A46  EF27  F00D         	goto	u3311
 11796   001A4A  EF29  F00D         	goto	u3310
 11797   001A4E                     u3311:
 11798   001A4E  EF3D  F00D         	goto	l3618
 11799   001A52                     u3310:
 11800   001A52  0E00               	movlw	0
 11801   001A54  6E09               	movwf	(btemp+8)^0,c
 11802   001A56  0E00               	movlw	0
 11803   001A58  6E0A               	movwf	(btemp+9)^0,c
 11804   001A5A  0E00               	movlw	0
 11805   001A5C  6E0B               	movwf	(btemp+10)^0,c
 11806   001A5E  0E00               	movlw	0
 11807   001A60  6E0C               	movwf	(btemp+11)^0,c
 11808                           
 11809                           ;stkvar	_b @ sp[(-13)+-4]
 11810   001A62  0EEF               	movlw	-17
 11811   001A64  C009  FFE3         	movff	btemp+8,plusw1
 11812   001A68  0EF0               	movlw	-16
 11813   001A6A  C00A  FFE3         	movff	btemp+9,plusw1
 11814   001A6E  0EF1               	movlw	-15
 11815   001A70  C00B  FFE3         	movff	btemp+10,plusw1
 11816   001A74  0EF2               	movlw	-14
 11817   001A76  C00C  FFE3         	movff	btemp+11,plusw1
 11818   001A7A                     l3618:
 11819                           
 11820                           ;stkvar	_b @ sp[(-13)+-4]
 11821   001A7A  0EF1               	movlw	-15
 11822   001A7C  8EE3               	bsf	plusw1,7,c
 11823   001A7E  EF55  F00D         	goto	l3622
 11824   001A82                     l3620:
 11825   001A82  0E00               	movlw	0
 11826   001A84  6E09               	movwf	(btemp+8)^0,c
 11827   001A86  0E00               	movlw	0
 11828   001A88  6E0A               	movwf	(btemp+9)^0,c
 11829   001A8A  0E00               	movlw	0
 11830   001A8C  6E0B               	movwf	(btemp+10)^0,c
 11831   001A8E  0E00               	movlw	0
 11832   001A90  6E0C               	movwf	(btemp+11)^0,c
 11833                           
 11834                           ;stkvar	_b @ sp[(-13)+-4]
 11835   001A92  0EEF               	movlw	-17
 11836   001A94  C009  FFE3         	movff	btemp+8,plusw1
 11837   001A98  0EF0               	movlw	-16
 11838   001A9A  C00A  FFE3         	movff	btemp+9,plusw1
 11839   001A9E  0EF1               	movlw	-15
 11840   001AA0  C00B  FFE3         	movff	btemp+10,plusw1
 11841   001AA4  0EF2               	movlw	-14
 11842   001AA6  C00C  FFE3         	movff	btemp+11,plusw1
 11843   001AAA                     l3622:
 11844                           
 11845                           ;stkvar	_a @ sp[(-13)+-8]
 11846   001AAA  0EEE               	movlw	238
 11847   001AAC  24E1               	addwf	fsr1l,w,c
 11848   001AAE  6ED9               	movwf	fsr2l,c
 11849   001AB0  0EFF               	movlw	255
 11850   001AB2  20E2               	addwfc	fsr1h,w,c
 11851   001AB4  6EDA               	movwf	fsr2h,c
 11852   001AB6  50DF               	movf	indf2,w,c
 11853   001AB8  6E0C               	movwf	(btemp+11)^0,c
 11854   001ABA  0E80               	movlw	128
 11855   001ABC  160C               	andwf	(btemp+11)^0,f,c
 11856                           
 11857                           ;stkvar	_sign @ sp[(-13)+12]
 11858   001ABE  50E1               	movf	fsr1l,w,c
 11859   001AC0  0FFF               	addlw	-1
 11860   001AC2  6ED9               	movwf	fsr2l,c
 11861   001AC4  50E2               	movf	fsr1h,w,c
 11862   001AC6  6EDA               	movwf	fsr2h,c
 11863   001AC8  0EFF               	movlw	255
 11864   001ACA  22DA               	addwfc	fsr2h,f,c
 11865   001ACC  500C               	movf	(btemp+11)^0,w,c
 11866   001ACE  1ADF               	xorwf	indf2,f,c
 11867   001AD0                     
 11868                           ;stkvar	_a @ sp[(-13)+-8]
 11869   001AD0  0EEE               	movlw	238
 11870   001AD2  24E1               	addwf	fsr1l,w,c
 11871   001AD4  6ED9               	movwf	fsr2l,c
 11872   001AD6  0EFF               	movlw	255
 11873   001AD8  20E2               	addwfc	fsr1h,w,c
 11874   001ADA  6EDA               	movwf	fsr2h,c
 11875   001ADC  50DF               	movf	indf2,w,c
 11876   001ADE  6E0C               	movwf	(btemp+11)^0,c
 11877   001AE0  90D8               	bcf	status,0,c
 11878   001AE2  340C               	rlcf	(btemp+11)^0,w,c
 11879   001AE4  6E0B               	movwf	(btemp+10)^0,c
 11880                           
 11881                           ;stkvar	_aexp @ sp[(-13)+11]
 11882   001AE6  0EFE               	movlw	-2
 11883   001AE8  C00B  FFE3         	movff	btemp+10,plusw1
 11884   001AEC                     
 11885                           ;stkvar	_a @ sp[(-13)+-8]
 11886   001AEC  0EED               	movlw	237
 11887   001AEE  24E1               	addwf	fsr1l,w,c
 11888   001AF0  6ED9               	movwf	fsr2l,c
 11889   001AF2  0EFF               	movlw	255
 11890   001AF4  20E2               	addwfc	fsr1h,w,c
 11891   001AF6  6EDA               	movwf	fsr2h,c
 11892   001AF8  AEDF               	btfss	indf2,7,c
 11893   001AFA  EF81  F00D         	goto	u3321
 11894   001AFE  EF83  F00D         	goto	u3320
 11895   001B02                     u3321:
 11896   001B02  EF85  F00D         	goto	l3630
 11897   001B06                     u3320:
 11898   001B06                     
 11899                           ;stkvar	_aexp @ sp[(-13)+11]
 11900   001B06  0EFE               	movlw	-2
 11901   001B08  80E3               	bsf	plusw1,0,c
 11902   001B0A                     l3630:
 11903                           
 11904                           ;stkvar	_aexp @ sp[(-13)+11]
 11905   001B0A  0EFE               	movlw	-2
 11906   001B0C  50E3               	movf	plusw1,w,c
 11907   001B0E  B4D8               	btfsc	status,2,c
 11908   001B10  EF8C  F00D         	goto	u3331
 11909   001B14  EF8E  F00D         	goto	u3330
 11910   001B18                     u3331:
 11911   001B18  EFAF  F00D         	goto	l3638
 11912   001B1C                     u3330:
 11913   001B1C                     
 11914                           ;stkvar	_aexp @ sp[(-13)+11]
 11915   001B1C  0EFE               	movlw	-2
 11916   001B1E  28E3               	incf	plusw1,w,c
 11917   001B20  A4D8               	btfss	status,2,c
 11918   001B22  EF95  F00D         	goto	u3341
 11919   001B26  EF97  F00D         	goto	u3340
 11920   001B2A                     u3341:
 11921   001B2A  EFAB  F00D         	goto	l3636
 11922   001B2E                     u3340:
 11923   001B2E  0E00               	movlw	0
 11924   001B30  6E09               	movwf	(btemp+8)^0,c
 11925   001B32  0E00               	movlw	0
 11926   001B34  6E0A               	movwf	(btemp+9)^0,c
 11927   001B36  0E00               	movlw	0
 11928   001B38  6E0B               	movwf	(btemp+10)^0,c
 11929   001B3A  0E00               	movlw	0
 11930   001B3C  6E0C               	movwf	(btemp+11)^0,c
 11931                           
 11932                           ;stkvar	_a @ sp[(-13)+-8]
 11933   001B3E  0EEB               	movlw	-21
 11934   001B40  C009  FFE3         	movff	btemp+8,plusw1
 11935   001B44  0EEC               	movlw	-20
 11936   001B46  C00A  FFE3         	movff	btemp+9,plusw1
 11937   001B4A  0EED               	movlw	-19
 11938   001B4C  C00B  FFE3         	movff	btemp+10,plusw1
 11939   001B50  0EEE               	movlw	-18
 11940   001B52  C00C  FFE3         	movff	btemp+11,plusw1
 11941   001B56                     l3636:
 11942                           
 11943                           ;stkvar	_a @ sp[(-13)+-8]
 11944   001B56  0EED               	movlw	-19
 11945   001B58  8EE3               	bsf	plusw1,7,c
 11946   001B5A  EFC3  F00D         	goto	l3640
 11947   001B5E                     l3638:
 11948   001B5E  0E00               	movlw	0
 11949   001B60  6E09               	movwf	(btemp+8)^0,c
 11950   001B62  0E00               	movlw	0
 11951   001B64  6E0A               	movwf	(btemp+9)^0,c
 11952   001B66  0E00               	movlw	0
 11953   001B68  6E0B               	movwf	(btemp+10)^0,c
 11954   001B6A  0E00               	movlw	0
 11955   001B6C  6E0C               	movwf	(btemp+11)^0,c
 11956                           
 11957                           ;stkvar	_a @ sp[(-13)+-8]
 11958   001B6E  0EEB               	movlw	-21
 11959   001B70  C009  FFE3         	movff	btemp+8,plusw1
 11960   001B74  0EEC               	movlw	-20
 11961   001B76  C00A  FFE3         	movff	btemp+9,plusw1
 11962   001B7A  0EED               	movlw	-19
 11963   001B7C  C00B  FFE3         	movff	btemp+10,plusw1
 11964   001B80  0EEE               	movlw	-18
 11965   001B82  C00C  FFE3         	movff	btemp+11,plusw1
 11966   001B86                     l3640:
 11967                           
 11968                           ;stkvar	_aexp @ sp[(-13)+11]
 11969   001B86  0EFE               	movlw	-2
 11970   001B88  50E3               	movf	plusw1,w,c
 11971   001B8A  B4D8               	btfsc	status,2,c
 11972   001B8C  EFCA  F00D         	goto	u3351
 11973   001B90  EFCC  F00D         	goto	u3350
 11974   001B94                     u3351:
 11975   001B94  EFD5  F00D         	goto	l3644
 11976   001B98                     u3350:
 11977   001B98                     
 11978                           ;stkvar	_bexp @ sp[(-13)+10]
 11979   001B98  0EFD               	movlw	-3
 11980   001B9A  50E3               	movf	plusw1,w,c
 11981   001B9C  A4D8               	btfss	status,2,c
 11982   001B9E  EFD3  F00D         	goto	u3361
 11983   001BA2  EFD5  F00D         	goto	u3360
 11984   001BA6                     u3361:
 11985   001BA6  EFDF  F00D         	goto	l3648
 11986   001BAA                     u3360:
 11987   001BAA                     l3644:
 11988   001BAA  0E00               	movlw	0
 11989   001BAC  6E01               	movwf	btemp^0,c
 11990   001BAE  0E00               	movlw	0
 11991   001BB0  6E02               	movwf	(btemp+1)^0,c
 11992   001BB2  0E00               	movlw	0
 11993   001BB4  6E03               	movwf	(btemp+2)^0,c
 11994   001BB6  0E00               	movlw	0
 11995   001BB8  6E04               	movwf	(btemp+3)^0,c
 11996   001BBA  EF0F  F011         	goto	l1021
 11997   001BBE                     l3648:
 11998                           
 11999                           ;stkvar	_b @ sp[(-13)+-4]
 12000   001BBE  0EEF               	movlw	-17
 12001   001BC0  CFE3 F00C          	movff	plusw1,btemp+11
 12002                           
 12003                           ;stkvar	_a @ sp[(-13)+-8]
 12004   001BC4  0EED               	movlw	237
 12005   001BC6  24E1               	addwf	fsr1l,w,c
 12006   001BC8  6ED9               	movwf	fsr2l,c
 12007   001BCA  0EFF               	movlw	255
 12008   001BCC  20E2               	addwfc	fsr1h,w,c
 12009   001BCE  6EDA               	movwf	fsr2h,c
 12010   001BD0  50DF               	movf	indf2,w,c
 12011   001BD2  020C               	mulwf	(btemp+11)^0,c
 12012                           
 12013                           ;stkvar	_temp @ sp[(-13)+8]
 12014   001BD4  0EFB               	movlw	-5
 12015   001BD6  CFF3 FFE3          	movff	prodl,plusw1
 12016   001BDA  0EFC               	movlw	-4
 12017   001BDC  CFF4 FFE3          	movff	prodh,plusw1
 12018   001BE0                     
 12019                           ;stkvar	_temp @ sp[(-13)+8]
 12020   001BE0  0EFB               	movlw	-5
 12021   001BE2  CFE3 F00C          	movff	plusw1,btemp+11
 12022   001BE6  C00C  F005         	movff	btemp+11,btemp+4
 12023   001BEA  6A06               	clrf	(btemp+5)^0,c
 12024   001BEC  6A07               	clrf	(btemp+6)^0,c
 12025   001BEE  6A08               	clrf	(btemp+7)^0,c
 12026                           
 12027                           ;stkvar	_grs @ sp[(-13)+4]
 12028   001BF0  0EF7               	movlw	-9
 12029   001BF2  C005  FFE3         	movff	btemp+4,plusw1
 12030   001BF6  0EF8               	movlw	-8
 12031   001BF8  C006  FFE3         	movff	btemp+5,plusw1
 12032   001BFC  0EF9               	movlw	-7
 12033   001BFE  C007  FFE3         	movff	btemp+6,plusw1
 12034   001C02  0EFA               	movlw	-6
 12035   001C04  C008  FFE3         	movff	btemp+7,plusw1
 12036   001C08                     
 12037                           ;stkvar	_temp @ sp[(-13)+8]
 12038   001C08  0EFC               	movlw	252
 12039   001C0A  24E1               	addwf	fsr1l,w,c
 12040   001C0C  6ED9               	movwf	fsr2l,c
 12041   001C0E  0EFF               	movlw	255
 12042   001C10  20E2               	addwfc	fsr1h,w,c
 12043   001C12  6EDA               	movwf	fsr2h,c
 12044   001C14  50DF               	movf	indf2,w,c
 12045   001C16  6E0C               	movwf	(btemp+11)^0,c
 12046   001C18  C00C  F005         	movff	btemp+11,btemp+4
 12047   001C1C  6A06               	clrf	(btemp+5)^0,c
 12048   001C1E  6A07               	clrf	(btemp+6)^0,c
 12049   001C20  6A08               	clrf	(btemp+7)^0,c
 12050                           
 12051                           ;stkvar	_prod @ sp[(-13)+0]
 12052   001C22  0EF3               	movlw	-13
 12053   001C24  C005  FFE3         	movff	btemp+4,plusw1
 12054   001C28  0EF4               	movlw	-12
 12055   001C2A  C006  FFE3         	movff	btemp+5,plusw1
 12056   001C2E  0EF5               	movlw	-11
 12057   001C30  C007  FFE3         	movff	btemp+6,plusw1
 12058   001C34  0EF6               	movlw	-10
 12059   001C36  C008  FFE3         	movff	btemp+7,plusw1
 12060   001C3A                     
 12061                           ;stkvar	_b @ sp[(-13)+-4]
 12062   001C3A  0EF0               	movlw	240
 12063   001C3C  24E1               	addwf	fsr1l,w,c
 12064   001C3E  6ED9               	movwf	fsr2l,c
 12065   001C40  0EFF               	movlw	255
 12066   001C42  20E2               	addwfc	fsr1h,w,c
 12067   001C44  6EDA               	movwf	fsr2h,c
 12068   001C46  50DF               	movf	indf2,w,c
 12069   001C48  6E0C               	movwf	(btemp+11)^0,c
 12070                           
 12071                           ;stkvar	_a @ sp[(-13)+-8]
 12072   001C4A  0EEC               	movlw	236
 12073   001C4C  24E1               	addwf	fsr1l,w,c
 12074   001C4E  6ED9               	movwf	fsr2l,c
 12075   001C50  0EFF               	movlw	255
 12076   001C52  20E2               	addwfc	fsr1h,w,c
 12077   001C54  6EDA               	movwf	fsr2h,c
 12078   001C56  50DF               	movf	indf2,w,c
 12079   001C58  020C               	mulwf	(btemp+11)^0,c
 12080                           
 12081                           ;stkvar	_temp @ sp[(-13)+8]
 12082   001C5A  0EFB               	movlw	-5
 12083   001C5C  CFF3 FFE3          	movff	prodl,plusw1
 12084   001C60  0EFC               	movlw	-4
 12085   001C62  CFF4 FFE3          	movff	prodh,plusw1
 12086   001C66                     
 12087                           ;stkvar	_grs @ sp[(-13)+4]
 12088   001C66  50E1               	movf	fsr1l,w,c
 12089   001C68  0FF7               	addlw	-9
 12090   001C6A  6ED9               	movwf	fsr2l,c
 12091   001C6C  50E2               	movf	fsr1h,w,c
 12092   001C6E  6EDA               	movwf	fsr2h,c
 12093   001C70  0EFF               	movlw	255
 12094   001C72  22DA               	addwfc	fsr2h,f,c
 12095                           
 12096                           ;stkvar	_temp @ sp[(-13)+8]
 12097   001C74  0EFB               	movlw	-5
 12098   001C76  50E3               	movf	plusw1,w,c
 12099   001C78  26DE               	addwf	postinc2,f,c
 12100   001C7A  0E00               	movlw	0
 12101   001C7C  22DE               	addwfc	postinc2,f,c
 12102   001C7E  22DE               	addwfc	postinc2,f,c
 12103   001C80  22DE               	addwfc	postinc2,f,c
 12104   001C82                     
 12105                           ;stkvar	_prod @ sp[(-13)+0]
 12106   001C82  50E1               	movf	fsr1l,w,c
 12107   001C84  0FF3               	addlw	-13
 12108   001C86  6ED9               	movwf	fsr2l,c
 12109   001C88  50E2               	movf	fsr1h,w,c
 12110   001C8A  6EDA               	movwf	fsr2h,c
 12111   001C8C  0EFF               	movlw	255
 12112   001C8E  22DA               	addwfc	fsr2h,f,c
 12113                           
 12114                           ;stkvar	_temp @ sp[(-13)+8]
 12115   001C90  0EFC               	movlw	252
 12116   001C92  24E1               	addwf	fsr1l,w,c
 12117   001C94  6EE9               	movwf	fsr0l,c
 12118   001C96  0EFF               	movlw	255
 12119   001C98  20E2               	addwfc	fsr1h,w,c
 12120   001C9A  6EEA               	movwf	fsr0h,c
 12121   001C9C  50EF               	movf	indf0,w,c
 12122   001C9E  26DE               	addwf	postinc2,f,c
 12123   001CA0  0E00               	movlw	0
 12124   001CA2  22DE               	addwfc	postinc2,f,c
 12125   001CA4  22DE               	addwfc	postinc2,f,c
 12126   001CA6  22DE               	addwfc	postinc2,f,c
 12127   001CA8                     
 12128                           ;stkvar	_b @ sp[(-13)+-4]
 12129   001CA8  0EF1               	movlw	241
 12130   001CAA  24E1               	addwf	fsr1l,w,c
 12131   001CAC  6ED9               	movwf	fsr2l,c
 12132   001CAE  0EFF               	movlw	255
 12133   001CB0  20E2               	addwfc	fsr1h,w,c
 12134   001CB2  6EDA               	movwf	fsr2h,c
 12135   001CB4  50DF               	movf	indf2,w,c
 12136   001CB6  6E0C               	movwf	(btemp+11)^0,c
 12137                           
 12138                           ;stkvar	_a @ sp[(-13)+-8]
 12139   001CB8  0EEB               	movlw	-21
 12140   001CBA  50E3               	movf	plusw1,w,c
 12141   001CBC  020C               	mulwf	(btemp+11)^0,c
 12142                           
 12143                           ;stkvar	_temp @ sp[(-13)+8]
 12144   001CBE  0EFB               	movlw	-5
 12145   001CC0  CFF3 FFE3          	movff	prodl,plusw1
 12146   001CC4  0EFC               	movlw	-4
 12147   001CC6  CFF4 FFE3          	movff	prodh,plusw1
 12148   001CCA                     
 12149                           ;stkvar	_grs @ sp[(-13)+4]
 12150   001CCA  50E1               	movf	fsr1l,w,c
 12151   001CCC  0FF7               	addlw	-9
 12152   001CCE  6ED9               	movwf	fsr2l,c
 12153   001CD0  50E2               	movf	fsr1h,w,c
 12154   001CD2  6EDA               	movwf	fsr2h,c
 12155   001CD4  0EFF               	movlw	255
 12156   001CD6  22DA               	addwfc	fsr2h,f,c
 12157                           
 12158                           ;stkvar	_temp @ sp[(-13)+8]
 12159   001CD8  0EFB               	movlw	-5
 12160   001CDA  50E3               	movf	plusw1,w,c
 12161   001CDC  26DE               	addwf	postinc2,f,c
 12162   001CDE  0E00               	movlw	0
 12163   001CE0  22DE               	addwfc	postinc2,f,c
 12164   001CE2  22DE               	addwfc	postinc2,f,c
 12165   001CE4  22DE               	addwfc	postinc2,f,c
 12166   001CE6                     
 12167                           ;stkvar	_prod @ sp[(-13)+0]
 12168   001CE6  50E1               	movf	fsr1l,w,c
 12169   001CE8  0FF3               	addlw	-13
 12170   001CEA  6ED9               	movwf	fsr2l,c
 12171   001CEC  50E2               	movf	fsr1h,w,c
 12172   001CEE  6EDA               	movwf	fsr2h,c
 12173   001CF0  0EFF               	movlw	255
 12174   001CF2  22DA               	addwfc	fsr2h,f,c
 12175                           
 12176                           ;stkvar	_temp @ sp[(-13)+8]
 12177   001CF4  0EFC               	movlw	252
 12178   001CF6  24E1               	addwf	fsr1l,w,c
 12179   001CF8  6EE9               	movwf	fsr0l,c
 12180   001CFA  0EFF               	movlw	255
 12181   001CFC  20E2               	addwfc	fsr1h,w,c
 12182   001CFE  6EEA               	movwf	fsr0h,c
 12183   001D00  50EF               	movf	indf0,w,c
 12184   001D02  26DE               	addwf	postinc2,f,c
 12185   001D04  0E00               	movlw	0
 12186   001D06  22DE               	addwfc	postinc2,f,c
 12187   001D08  22DE               	addwfc	postinc2,f,c
 12188   001D0A  22DE               	addwfc	postinc2,f,c
 12189   001D0C                     
 12190                           ;stkvar	_grs @ sp[(-13)+4]
 12191   001D0C  50E1               	movf	fsr1l,w,c
 12192   001D0E  0FF7               	addlw	-9
 12193   001D10  6ED9               	movwf	fsr2l,c
 12194   001D12  50E2               	movf	fsr1h,w,c
 12195   001D14  6EDA               	movwf	fsr2h,c
 12196   001D16  0EFF               	movlw	255
 12197   001D18  22DA               	addwfc	fsr2h,f,c
 12198   001D1A  0E08               	movlw	8
 12199   001D1C                     u3375:
 12200   001D1C  90D8               	bcf	status,0,c
 12201   001D1E  36DE               	rlcf	postinc2,f,c
 12202   001D20  36DE               	rlcf	postinc2,f,c
 12203   001D22  36DE               	rlcf	postinc2,f,c
 12204   001D24  36DD               	rlcf	postdec2,f,c
 12205   001D26  52DD               	movf	postdec2,f,c
 12206   001D28  52DD               	movf	postdec2,f,c
 12207   001D2A  2EE8               	decfsz	wreg,f,c
 12208   001D2C  EF8E  F00E         	goto	u3375
 12209   001D30                     
 12210                           ;stkvar	_b @ sp[(-13)+-4]
 12211   001D30  0EF0               	movlw	240
 12212   001D32  24E1               	addwf	fsr1l,w,c
 12213   001D34  6ED9               	movwf	fsr2l,c
 12214   001D36  0EFF               	movlw	255
 12215   001D38  20E2               	addwfc	fsr1h,w,c
 12216   001D3A  6EDA               	movwf	fsr2h,c
 12217   001D3C  50DF               	movf	indf2,w,c
 12218   001D3E  6E0C               	movwf	(btemp+11)^0,c
 12219                           
 12220                           ;stkvar	_a @ sp[(-13)+-8]
 12221   001D40  0EEB               	movlw	-21
 12222   001D42  50E3               	movf	plusw1,w,c
 12223   001D44  020C               	mulwf	(btemp+11)^0,c
 12224                           
 12225                           ;stkvar	_temp @ sp[(-13)+8]
 12226   001D46  0EFB               	movlw	-5
 12227   001D48  CFF3 FFE3          	movff	prodl,plusw1
 12228   001D4C  0EFC               	movlw	-4
 12229   001D4E  CFF4 FFE3          	movff	prodh,plusw1
 12230   001D52                     
 12231                           ;stkvar	_temp @ sp[(-13)+8]
 12232   001D52  0EFB               	movlw	-5
 12233   001D54  CFE3 F00B          	movff	plusw1,btemp+10
 12234   001D58  0EFC               	movlw	-4
 12235   001D5A  CFE3 F00C          	movff	plusw1,btemp+11
 12236                           
 12237                           ;stkvar	_grs @ sp[(-13)+4]
 12238   001D5E  50E1               	movf	fsr1l,w,c
 12239   001D60  0FF7               	addlw	-9
 12240   001D62  6ED9               	movwf	fsr2l,c
 12241   001D64  50E2               	movf	fsr1h,w,c
 12242   001D66  6EDA               	movwf	fsr2h,c
 12243   001D68  0EFF               	movlw	255
 12244   001D6A  22DA               	addwfc	fsr2h,f,c
 12245   001D6C  500B               	movf	(btemp+10)^0,w,c
 12246   001D6E  26DE               	addwf	postinc2,f,c
 12247   001D70  500C               	movf	(btemp+11)^0,w,c
 12248   001D72  22DE               	addwfc	postinc2,f,c
 12249   001D74  0E00               	movlw	0
 12250   001D76  22DE               	addwfc	postinc2,f,c
 12251   001D78  22DE               	addwfc	postinc2,f,c
 12252   001D7A                     
 12253                           ;stkvar	_b @ sp[(-13)+-4]
 12254   001D7A  0EEF               	movlw	-17
 12255   001D7C  CFE3 F00C          	movff	plusw1,btemp+11
 12256                           
 12257                           ;stkvar	_a @ sp[(-13)+-8]
 12258   001D80  0EEC               	movlw	236
 12259   001D82  24E1               	addwf	fsr1l,w,c
 12260   001D84  6ED9               	movwf	fsr2l,c
 12261   001D86  0EFF               	movlw	255
 12262   001D88  20E2               	addwfc	fsr1h,w,c
 12263   001D8A  6EDA               	movwf	fsr2h,c
 12264   001D8C  50DF               	movf	indf2,w,c
 12265   001D8E  020C               	mulwf	(btemp+11)^0,c
 12266                           
 12267                           ;stkvar	_temp @ sp[(-13)+8]
 12268   001D90  0EFB               	movlw	-5
 12269   001D92  CFF3 FFE3          	movff	prodl,plusw1
 12270   001D96  0EFC               	movlw	-4
 12271   001D98  CFF4 FFE3          	movff	prodh,plusw1
 12272   001D9C                     
 12273                           ;stkvar	_temp @ sp[(-13)+8]
 12274   001D9C  0EFB               	movlw	-5
 12275   001D9E  CFE3 F00B          	movff	plusw1,btemp+10
 12276   001DA2  0EFC               	movlw	-4
 12277   001DA4  CFE3 F00C          	movff	plusw1,btemp+11
 12278                           
 12279                           ;stkvar	_grs @ sp[(-13)+4]
 12280   001DA8  50E1               	movf	fsr1l,w,c
 12281   001DAA  0FF7               	addlw	-9
 12282   001DAC  6ED9               	movwf	fsr2l,c
 12283   001DAE  50E2               	movf	fsr1h,w,c
 12284   001DB0  6EDA               	movwf	fsr2h,c
 12285   001DB2  0EFF               	movlw	255
 12286   001DB4  22DA               	addwfc	fsr2h,f,c
 12287   001DB6  500B               	movf	(btemp+10)^0,w,c
 12288   001DB8  26DE               	addwf	postinc2,f,c
 12289   001DBA  500C               	movf	(btemp+11)^0,w,c
 12290   001DBC  22DE               	addwfc	postinc2,f,c
 12291   001DBE  0E00               	movlw	0
 12292   001DC0  22DE               	addwfc	postinc2,f,c
 12293   001DC2  22DE               	addwfc	postinc2,f,c
 12294   001DC4                     
 12295                           ;stkvar	_grs @ sp[(-13)+4]
 12296   001DC4  50E1               	movf	fsr1l,w,c
 12297   001DC6  0FF7               	addlw	-9
 12298   001DC8  6ED9               	movwf	fsr2l,c
 12299   001DCA  50E2               	movf	fsr1h,w,c
 12300   001DCC  6EDA               	movwf	fsr2h,c
 12301   001DCE  0EFF               	movlw	255
 12302   001DD0  22DA               	addwfc	fsr2h,f,c
 12303   001DD2  0E08               	movlw	8
 12304   001DD4                     u3385:
 12305   001DD4  90D8               	bcf	status,0,c
 12306   001DD6  36DE               	rlcf	postinc2,f,c
 12307   001DD8  36DE               	rlcf	postinc2,f,c
 12308   001DDA  36DE               	rlcf	postinc2,f,c
 12309   001DDC  36DD               	rlcf	postdec2,f,c
 12310   001DDE  52DD               	movf	postdec2,f,c
 12311   001DE0  52DD               	movf	postdec2,f,c
 12312   001DE2  2EE8               	decfsz	wreg,f,c
 12313   001DE4  EFEA  F00E         	goto	u3385
 12314   001DE8                     
 12315                           ;stkvar	_b @ sp[(-13)+-4]
 12316   001DE8  0EEF               	movlw	-17
 12317   001DEA  CFE3 F00C          	movff	plusw1,btemp+11
 12318                           
 12319                           ;stkvar	_a @ sp[(-13)+-8]
 12320   001DEE  0EEB               	movlw	-21
 12321   001DF0  50E3               	movf	plusw1,w,c
 12322   001DF2  020C               	mulwf	(btemp+11)^0,c
 12323                           
 12324                           ;stkvar	_temp @ sp[(-13)+8]
 12325   001DF4  0EFB               	movlw	-5
 12326   001DF6  CFF3 FFE3          	movff	prodl,plusw1
 12327   001DFA  0EFC               	movlw	-4
 12328   001DFC  CFF4 FFE3          	movff	prodh,plusw1
 12329   001E00                     
 12330                           ;stkvar	_temp @ sp[(-13)+8]
 12331   001E00  0EFB               	movlw	-5
 12332   001E02  CFE3 F00B          	movff	plusw1,btemp+10
 12333   001E06  0EFC               	movlw	-4
 12334   001E08  CFE3 F00C          	movff	plusw1,btemp+11
 12335                           
 12336                           ;stkvar	_grs @ sp[(-13)+4]
 12337   001E0C  50E1               	movf	fsr1l,w,c
 12338   001E0E  0FF7               	addlw	-9
 12339   001E10  6ED9               	movwf	fsr2l,c
 12340   001E12  50E2               	movf	fsr1h,w,c
 12341   001E14  6EDA               	movwf	fsr2h,c
 12342   001E16  0EFF               	movlw	255
 12343   001E18  22DA               	addwfc	fsr2h,f,c
 12344   001E1A  500B               	movf	(btemp+10)^0,w,c
 12345   001E1C  26DE               	addwf	postinc2,f,c
 12346   001E1E  500C               	movf	(btemp+11)^0,w,c
 12347   001E20  22DE               	addwfc	postinc2,f,c
 12348   001E22  0E00               	movlw	0
 12349   001E24  22DE               	addwfc	postinc2,f,c
 12350   001E26  22DE               	addwfc	postinc2,f,c
 12351   001E28                     
 12352                           ;stkvar	_b @ sp[(-13)+-4]
 12353   001E28  0EF0               	movlw	240
 12354   001E2A  24E1               	addwf	fsr1l,w,c
 12355   001E2C  6ED9               	movwf	fsr2l,c
 12356   001E2E  0EFF               	movlw	255
 12357   001E30  20E2               	addwfc	fsr1h,w,c
 12358   001E32  6EDA               	movwf	fsr2h,c
 12359   001E34  50DF               	movf	indf2,w,c
 12360   001E36  6E0C               	movwf	(btemp+11)^0,c
 12361                           
 12362                           ;stkvar	_a @ sp[(-13)+-8]
 12363   001E38  0EED               	movlw	237
 12364   001E3A  24E1               	addwf	fsr1l,w,c
 12365   001E3C  6ED9               	movwf	fsr2l,c
 12366   001E3E  0EFF               	movlw	255
 12367   001E40  20E2               	addwfc	fsr1h,w,c
 12368   001E42  6EDA               	movwf	fsr2h,c
 12369   001E44  50DF               	movf	indf2,w,c
 12370   001E46  020C               	mulwf	(btemp+11)^0,c
 12371                           
 12372                           ;stkvar	_temp @ sp[(-13)+8]
 12373   001E48  0EFB               	movlw	-5
 12374   001E4A  CFF3 FFE3          	movff	prodl,plusw1
 12375   001E4E  0EFC               	movlw	-4
 12376   001E50  CFF4 FFE3          	movff	prodh,plusw1
 12377   001E54                     
 12378                           ;stkvar	_temp @ sp[(-13)+8]
 12379   001E54  0EFB               	movlw	-5
 12380   001E56  CFE3 F00B          	movff	plusw1,btemp+10
 12381   001E5A  0EFC               	movlw	-4
 12382   001E5C  CFE3 F00C          	movff	plusw1,btemp+11
 12383                           
 12384                           ;stkvar	_prod @ sp[(-13)+0]
 12385   001E60  50E1               	movf	fsr1l,w,c
 12386   001E62  0FF3               	addlw	-13
 12387   001E64  6ED9               	movwf	fsr2l,c
 12388   001E66  50E2               	movf	fsr1h,w,c
 12389   001E68  6EDA               	movwf	fsr2h,c
 12390   001E6A  0EFF               	movlw	255
 12391   001E6C  22DA               	addwfc	fsr2h,f,c
 12392   001E6E  500B               	movf	(btemp+10)^0,w,c
 12393   001E70  26DE               	addwf	postinc2,f,c
 12394   001E72  500C               	movf	(btemp+11)^0,w,c
 12395   001E74  22DE               	addwfc	postinc2,f,c
 12396   001E76  0E00               	movlw	0
 12397   001E78  22DE               	addwfc	postinc2,f,c
 12398   001E7A  22DE               	addwfc	postinc2,f,c
 12399   001E7C                     
 12400                           ;stkvar	_b @ sp[(-13)+-4]
 12401   001E7C  0EF1               	movlw	241
 12402   001E7E  24E1               	addwf	fsr1l,w,c
 12403   001E80  6ED9               	movwf	fsr2l,c
 12404   001E82  0EFF               	movlw	255
 12405   001E84  20E2               	addwfc	fsr1h,w,c
 12406   001E86  6EDA               	movwf	fsr2h,c
 12407   001E88  50DF               	movf	indf2,w,c
 12408   001E8A  6E0C               	movwf	(btemp+11)^0,c
 12409                           
 12410                           ;stkvar	_a @ sp[(-13)+-8]
 12411   001E8C  0EEC               	movlw	236
 12412   001E8E  24E1               	addwf	fsr1l,w,c
 12413   001E90  6ED9               	movwf	fsr2l,c
 12414   001E92  0EFF               	movlw	255
 12415   001E94  20E2               	addwfc	fsr1h,w,c
 12416   001E96  6EDA               	movwf	fsr2h,c
 12417   001E98  50DF               	movf	indf2,w,c
 12418   001E9A  020C               	mulwf	(btemp+11)^0,c
 12419                           
 12420                           ;stkvar	_temp @ sp[(-13)+8]
 12421   001E9C  0EFB               	movlw	-5
 12422   001E9E  CFF3 FFE3          	movff	prodl,plusw1
 12423   001EA2  0EFC               	movlw	-4
 12424   001EA4  CFF4 FFE3          	movff	prodh,plusw1
 12425   001EA8                     
 12426                           ;stkvar	_temp @ sp[(-13)+8]
 12427   001EA8  0EFB               	movlw	-5
 12428   001EAA  CFE3 F00B          	movff	plusw1,btemp+10
 12429   001EAE  0EFC               	movlw	-4
 12430   001EB0  CFE3 F00C          	movff	plusw1,btemp+11
 12431                           
 12432                           ;stkvar	_prod @ sp[(-13)+0]
 12433   001EB4  50E1               	movf	fsr1l,w,c
 12434   001EB6  0FF3               	addlw	-13
 12435   001EB8  6ED9               	movwf	fsr2l,c
 12436   001EBA  50E2               	movf	fsr1h,w,c
 12437   001EBC  6EDA               	movwf	fsr2h,c
 12438   001EBE  0EFF               	movlw	255
 12439   001EC0  22DA               	addwfc	fsr2h,f,c
 12440   001EC2  500B               	movf	(btemp+10)^0,w,c
 12441   001EC4  26DE               	addwf	postinc2,f,c
 12442   001EC6  500C               	movf	(btemp+11)^0,w,c
 12443   001EC8  22DE               	addwfc	postinc2,f,c
 12444   001ECA  0E00               	movlw	0
 12445   001ECC  22DE               	addwfc	postinc2,f,c
 12446   001ECE  22DE               	addwfc	postinc2,f,c
 12447   001ED0                     
 12448                           ;stkvar	_b @ sp[(-13)+-4]
 12449   001ED0  0EF1               	movlw	241
 12450   001ED2  24E1               	addwf	fsr1l,w,c
 12451   001ED4  6ED9               	movwf	fsr2l,c
 12452   001ED6  0EFF               	movlw	255
 12453   001ED8  20E2               	addwfc	fsr1h,w,c
 12454   001EDA  6EDA               	movwf	fsr2h,c
 12455   001EDC  50DF               	movf	indf2,w,c
 12456   001EDE  6E0C               	movwf	(btemp+11)^0,c
 12457                           
 12458                           ;stkvar	_a @ sp[(-13)+-8]
 12459   001EE0  0EED               	movlw	237
 12460   001EE2  24E1               	addwf	fsr1l,w,c
 12461   001EE4  6ED9               	movwf	fsr2l,c
 12462   001EE6  0EFF               	movlw	255
 12463   001EE8  20E2               	addwfc	fsr1h,w,c
 12464   001EEA  6EDA               	movwf	fsr2h,c
 12465   001EEC  50DF               	movf	indf2,w,c
 12466   001EEE  020C               	mulwf	(btemp+11)^0,c
 12467                           
 12468                           ;stkvar	_temp @ sp[(-13)+8]
 12469   001EF0  0EFB               	movlw	-5
 12470   001EF2  CFF3 FFE3          	movff	prodl,plusw1
 12471   001EF6  0EFC               	movlw	-4
 12472   001EF8  CFF4 FFE3          	movff	prodh,plusw1
 12473   001EFC                     
 12474                           ;stkvar	_temp @ sp[(-13)+8]
 12475   001EFC  0EFB               	movlw	-5
 12476   001EFE  CFE3 F00B          	movff	plusw1,btemp+10
 12477   001F02  0EFC               	movlw	-4
 12478   001F04  CFE3 F00C          	movff	plusw1,btemp+11
 12479   001F08  500B               	movf	(btemp+10)^0,w,c
 12480   001F0A  6E05               	movwf	(btemp+4)^0,c
 12481   001F0C  500C               	movf	(btemp+11)^0,w,c
 12482   001F0E  6E06               	movwf	(btemp+5)^0,c
 12483   001F10  6A07               	clrf	(btemp+6)^0,c
 12484   001F12  6A08               	clrf	(btemp+7)^0,c
 12485   001F14  C007  F008         	movff	btemp+6,btemp+7
 12486   001F18  C006  F007         	movff	btemp+5,btemp+6
 12487   001F1C  C005  F006         	movff	btemp+4,btemp+5
 12488   001F20  6A05               	clrf	(btemp+4)^0,c
 12489                           
 12490                           ;stkvar	_prod @ sp[(-13)+0]
 12491   001F22  50E1               	movf	fsr1l,w,c
 12492   001F24  0FF3               	addlw	-13
 12493   001F26  6ED9               	movwf	fsr2l,c
 12494   001F28  50E2               	movf	fsr1h,w,c
 12495   001F2A  6EDA               	movwf	fsr2h,c
 12496   001F2C  0EFF               	movlw	255
 12497   001F2E  22DA               	addwfc	fsr2h,f,c
 12498   001F30  5005               	movf	(btemp+4)^0,w,c
 12499   001F32  26DE               	addwf	postinc2,f,c
 12500   001F34  5006               	movf	(btemp+5)^0,w,c
 12501   001F36  22DE               	addwfc	postinc2,f,c
 12502   001F38  5007               	movf	(btemp+6)^0,w,c
 12503   001F3A  22DE               	addwfc	postinc2,f,c
 12504   001F3C  5008               	movf	(btemp+7)^0,w,c
 12505   001F3E  22DE               	addwfc	postinc2,f,c
 12506   001F40                     
 12507                           ;stkvar	_prod @ sp[(-13)+0]
 12508   001F40  50E1               	movf	fsr1l,w,c
 12509   001F42  0FF3               	addlw	-13
 12510   001F44  6ED9               	movwf	fsr2l,c
 12511   001F46  50E2               	movf	fsr1h,w,c
 12512   001F48  6EDA               	movwf	fsr2h,c
 12513   001F4A  0EFF               	movlw	255
 12514   001F4C  22DA               	addwfc	fsr2h,f,c
 12515                           
 12516                           ;stkvar	_grs @ sp[(-13)+4]
 12517   001F4E  0EFA               	movlw	250
 12518   001F50  24E1               	addwf	fsr1l,w,c
 12519   001F52  6EE9               	movwf	fsr0l,c
 12520   001F54  0EFF               	movlw	255
 12521   001F56  20E2               	addwfc	fsr1h,w,c
 12522   001F58  6EEA               	movwf	fsr0h,c
 12523   001F5A  50EF               	movf	indf0,w,c
 12524   001F5C  26DE               	addwf	postinc2,f,c
 12525   001F5E  0E00               	movlw	0
 12526   001F60  22DE               	addwfc	postinc2,f,c
 12527   001F62  22DE               	addwfc	postinc2,f,c
 12528   001F64  22DE               	addwfc	postinc2,f,c
 12529   001F66                     
 12530                           ;stkvar	_grs @ sp[(-13)+4]
 12531   001F66  50E1               	movf	fsr1l,w,c
 12532   001F68  0FF7               	addlw	-9
 12533   001F6A  6ED9               	movwf	fsr2l,c
 12534   001F6C  50E2               	movf	fsr1h,w,c
 12535   001F6E  6EDA               	movwf	fsr2h,c
 12536   001F70  0EFF               	movlw	255
 12537   001F72  22DA               	addwfc	fsr2h,f,c
 12538   001F74  0E08               	movlw	8
 12539   001F76                     u3395:
 12540   001F76  90D8               	bcf	status,0,c
 12541   001F78  36DE               	rlcf	postinc2,f,c
 12542   001F7A  36DE               	rlcf	postinc2,f,c
 12543   001F7C  36DE               	rlcf	postinc2,f,c
 12544   001F7E  36DD               	rlcf	postdec2,f,c
 12545   001F80  52DD               	movf	postdec2,f,c
 12546   001F82  52DD               	movf	postdec2,f,c
 12547   001F84  2EE8               	decfsz	wreg,f,c
 12548   001F86  EFBB  F00F         	goto	u3395
 12549   001F8A                     
 12550                           ;stkvar	_bexp @ sp[(-13)+10]
 12551   001F8A  0EFD               	movlw	-3
 12552   001F8C  50E3               	movf	plusw1,w,c
 12553   001F8E  6E0B               	movwf	(btemp+10)^0,c
 12554   001F90  6A0C               	clrf	(btemp+11)^0,c
 12555                           
 12556                           ;stkvar	_aexp @ sp[(-13)+11]
 12557   001F92  0EFE               	movlw	-2
 12558   001F94  50E3               	movf	plusw1,w,c
 12559   001F96  260B               	addwf	(btemp+10)^0,f,c
 12560   001F98  0E00               	movlw	0
 12561   001F9A  220C               	addwfc	(btemp+11)^0,f,c
 12562   001F9C  0E82               	movlw	130
 12563   001F9E  240B               	addwf	(btemp+10)^0,w,c
 12564   001FA0  6E09               	movwf	(btemp+8)^0,c
 12565   001FA2  0EFF               	movlw	255
 12566   001FA4  200C               	addwfc	(btemp+11)^0,w,c
 12567   001FA6  6E0A               	movwf	(btemp+9)^0,c
 12568                           
 12569                           ;stkvar	_temp @ sp[(-13)+8]
 12570   001FA8  0EFB               	movlw	-5
 12571   001FAA  C009  FFE3         	movff	btemp+8,plusw1
 12572   001FAE  0EFC               	movlw	-4
 12573   001FB0  C00A  FFE3         	movff	btemp+9,plusw1
 12574   001FB4  EF02  F010         	goto	l3710
 12575   001FB8                     l3700:
 12576                           
 12577                           ;stkvar	_prod @ sp[(-13)+0]
 12578   001FB8  90D8               	bcf	status,0,c
 12579   001FBA  0EF3               	movlw	-13
 12580   001FBC  36E3               	rlcf	plusw1,f,c
 12581   001FBE  0EF4               	movlw	-12
 12582   001FC0  36E3               	rlcf	plusw1,f,c
 12583   001FC2  0EF5               	movlw	-11
 12584   001FC4  36E3               	rlcf	plusw1,f,c
 12585   001FC6  0EF6               	movlw	-10
 12586   001FC8  36E3               	rlcf	plusw1,f,c
 12587   001FCA                     
 12588                           ;stkvar	_grs @ sp[(-13)+4]
 12589   001FCA  0EFA               	movlw	-6
 12590   001FCC  AEE3               	btfss	plusw1,7,c
 12591   001FCE  EFEB  F00F         	goto	u3401
 12592   001FD2  EFED  F00F         	goto	u3400
 12593   001FD6                     u3401:
 12594   001FD6  EFEF  F00F         	goto	l3706
 12595   001FDA                     u3400:
 12596   001FDA                     
 12597                           ;stkvar	_prod @ sp[(-13)+0]
 12598   001FDA  0EF3               	movlw	-13
 12599   001FDC  80E3               	bsf	plusw1,0,c
 12600   001FDE                     l3706:
 12601                           
 12602                           ;stkvar	_grs @ sp[(-13)+4]
 12603   001FDE  90D8               	bcf	status,0,c
 12604   001FE0  0EF7               	movlw	-9
 12605   001FE2  36E3               	rlcf	plusw1,f,c
 12606   001FE4  0EF8               	movlw	-8
 12607   001FE6  36E3               	rlcf	plusw1,f,c
 12608   001FE8  0EF9               	movlw	-7
 12609   001FEA  36E3               	rlcf	plusw1,f,c
 12610   001FEC  0EFA               	movlw	-6
 12611   001FEE  36E3               	rlcf	plusw1,f,c
 12612   001FF0                     
 12613                           ;stkvar	_temp @ sp[(-13)+8]
 12614   001FF0  50E1               	movf	fsr1l,w,c
 12615   001FF2  0FFB               	addlw	-5
 12616   001FF4  6ED9               	movwf	fsr2l,c
 12617   001FF6  50E2               	movf	fsr1h,w,c
 12618   001FF8  6EDA               	movwf	fsr2h,c
 12619   001FFA  0EFF               	movlw	255
 12620   001FFC  22DA               	addwfc	fsr2h,f,c
 12621   001FFE  06DE               	decf	postinc2,f,c
 12622   002000  0E00               	movlw	0
 12623   002002  5ADD               	subwfb	postdec2,f,c
 12624   002004                     l3710:
 12625                           
 12626                           ;stkvar	_prod @ sp[(-13)+0]
 12627   002004  0EF5               	movlw	-11
 12628   002006  AEE3               	btfss	plusw1,7,c
 12629   002008  EF08  F010         	goto	u3411
 12630   00200C  EF0A  F010         	goto	u3410
 12631   002010                     u3411:
 12632   002010  EFDC  F00F         	goto	l3700
 12633   002014                     u3410:
 12634   002014                     
 12635                           ;stkvar	_aexp @ sp[(-13)+11]
 12636   002014  0EFE               	movlw	-2
 12637   002016  6AE3               	clrf	plusw1,c
 12638   002018                     
 12639                           ;stkvar	_grs @ sp[(-13)+4]
 12640   002018  0EFA               	movlw	-6
 12641   00201A  AEE3               	btfss	plusw1,7,c
 12642   00201C  EF12  F010         	goto	u3421
 12643   002020  EF14  F010         	goto	u3420
 12644   002024                     u3421:
 12645   002024  EF41  F010         	goto	l3724
 12646   002028                     u3420:
 12647   002028                     
 12648                           ;stkvar	_grs @ sp[(-13)+4]
 12649   002028  50E1               	movf	fsr1l,w,c
 12650   00202A  0FF7               	addlw	-9
 12651   00202C  6ED9               	movwf	fsr2l,c
 12652   00202E  50E2               	movf	fsr1h,w,c
 12653   002030  6EDA               	movwf	fsr2h,c
 12654   002032  0EFF               	movlw	255
 12655   002034  22DA               	addwfc	fsr2h,f,c
 12656   002036  0EFF               	movlw	255
 12657   002038  14DE               	andwf	postinc2,w,c
 12658   00203A  6E09               	movwf	(btemp+8)^0,c
 12659   00203C  0EFF               	movlw	255
 12660   00203E  14DE               	andwf	postinc2,w,c
 12661   002040  6E0A               	movwf	(btemp+9)^0,c
 12662   002042  0EFF               	movlw	255
 12663   002044  14DE               	andwf	postinc2,w,c
 12664   002046  6E0B               	movwf	(btemp+10)^0,c
 12665   002048  0E7F               	movlw	127
 12666   00204A  14DE               	andwf	postinc2,w,c
 12667   00204C  6E0C               	movwf	(btemp+11)^0,c
 12668   00204E  5009               	movf	(btemp+8)^0,w,c
 12669   002050  100A               	iorwf	(btemp+9)^0,w,c
 12670   002052  100B               	iorwf	(btemp+10)^0,w,c
 12671   002054  100C               	iorwf	(btemp+11)^0,w,c
 12672   002056  B4D8               	btfsc	status,2,c
 12673   002058  EF30  F010         	goto	u3431
 12674   00205C  EF32  F010         	goto	u3430
 12675   002060                     u3431:
 12676   002060  EF37  F010         	goto	l3720
 12677   002064                     u3430:
 12678   002064                     l3718:
 12679                           
 12680                           ;stkvar	_aexp @ sp[(-13)+11]
 12681   002064  0EFE               	movlw	-2
 12682   002066  6AE3               	clrf	plusw1,c
 12683   002068  2AE3               	incf	plusw1,f,c
 12684   00206A  EF41  F010         	goto	l3724
 12685   00206E                     l3720:
 12686                           
 12687                           ;stkvar	_prod @ sp[(-13)+0]
 12688   00206E  0EF3               	movlw	-13
 12689   002070  A0E3               	btfss	plusw1,0,c
 12690   002072  EF3D  F010         	goto	u3441
 12691   002076  EF3F  F010         	goto	u3440
 12692   00207A                     u3441:
 12693   00207A  EF41  F010         	goto	l3724
 12694   00207E                     u3440:
 12695   00207E  EF32  F010         	goto	l3718
 12696   002082                     l3724:
 12697                           
 12698                           ;stkvar	_aexp @ sp[(-13)+11]
 12699   002082  0EFE               	movlw	-2
 12700   002084  50E3               	movf	plusw1,w,c
 12701   002086  B4D8               	btfsc	status,2,c
 12702   002088  EF48  F010         	goto	u3451
 12703   00208C  EF4A  F010         	goto	u3450
 12704   002090                     u3451:
 12705   002090  EF85  F010         	goto	l3734
 12706   002094                     u3450:
 12707   002094                     
 12708                           ;stkvar	_prod @ sp[(-13)+0]
 12709   002094  50E1               	movf	fsr1l,w,c
 12710   002096  0FF3               	addlw	-13
 12711   002098  6ED9               	movwf	fsr2l,c
 12712   00209A  50E2               	movf	fsr1h,w,c
 12713   00209C  6EDA               	movwf	fsr2h,c
 12714   00209E  0EFF               	movlw	255
 12715   0020A0  22DA               	addwfc	fsr2h,f,c
 12716   0020A2  2ADE               	incf	postinc2,f,c
 12717   0020A4  0E00               	movlw	0
 12718   0020A6  22DE               	addwfc	postinc2,f,c
 12719   0020A8  22DE               	addwfc	postinc2,f,c
 12720   0020AA  22DE               	addwfc	postinc2,f,c
 12721   0020AC                     
 12722                           ;stkvar	_prod @ sp[(-13)+0]
 12723   0020AC  0EF6               	movlw	-10
 12724   0020AE  A0E3               	btfss	plusw1,0,c
 12725   0020B0  EF5C  F010         	goto	u3461
 12726   0020B4  EF5E  F010         	goto	u3460
 12727   0020B8                     u3461:
 12728   0020B8  EF85  F010         	goto	l3734
 12729   0020BC                     u3460:
 12730   0020BC  0E01               	movlw	1
 12731   0020BE  6E0C               	movwf	(btemp+11)^0,c
 12732                           
 12733                           ;stkvar	_prod @ sp[(-13)+0]
 12734   0020C0  50E1               	movf	fsr1l,w,c
 12735   0020C2  0FF3               	addlw	-13
 12736   0020C4  6ED9               	movwf	fsr2l,c
 12737   0020C6  50E2               	movf	fsr1h,w,c
 12738   0020C8  6EDA               	movwf	fsr2h,c
 12739   0020CA  0EFF               	movlw	255
 12740   0020CC  22DA               	addwfc	fsr2h,f,c
 12741   0020CE  280C               	incf	(btemp+11)^0,w,c
 12742   0020D0  52DE               	movf	postinc2,f,c
 12743   0020D2  EF73  F010         	goto	u3470
 12744   0020D6                     u3475:
 12745   0020D6  52DE               	movf	postinc2,f,c
 12746   0020D8  90D8               	bcf	status,0,c
 12747   0020DA  BEDC               	btfsc	preinc2,7,c
 12748   0020DC  80D8               	bsf	status,0,c
 12749   0020DE  32DD               	rrcf	postdec2,f,c
 12750   0020E0  32DD               	rrcf	postdec2,f,c
 12751   0020E2  32DD               	rrcf	postdec2,f,c
 12752   0020E4  32DE               	rrcf	postinc2,f,c
 12753   0020E6                     u3470:
 12754   0020E6  2EE8               	decfsz	wreg,f,c
 12755   0020E8  EF6B  F010         	goto	u3475
 12756   0020EC                     
 12757                           ;stkvar	_temp @ sp[(-13)+8]
 12758   0020EC  0EFB               	movlw	-5
 12759   0020EE  50E3               	movf	plusw1,w,c
 12760   0020F0  0F01               	addlw	1
 12761   0020F2  6E01               	movwf	btemp^0,c
 12762   0020F4  0EFB               	movlw	-5
 12763   0020F6  C001  FFE3         	movff	btemp,plusw1
 12764   0020FA  6A01               	clrf	btemp^0,c
 12765   0020FC  0EFC               	movlw	-4
 12766   0020FE  50E3               	movf	plusw1,w,c
 12767   002100  2001               	addwfc	btemp^0,w,c
 12768   002102  6E01               	movwf	btemp^0,c
 12769   002104  0EFC               	movlw	-4
 12770   002106  C001  FFE3         	movff	btemp,plusw1
 12771   00210A                     l3734:
 12772                           
 12773                           ;stkvar	_temp @ sp[(-13)+8]
 12774   00210A  0EFC               	movlw	-4
 12775   00210C  BEE3               	btfsc	plusw1,7,c
 12776   00210E  EF93  F010         	goto	u3481
 12777   002112  0EFC               	movlw	-4
 12778   002114  50E3               	movf	plusw1,w,c
 12779   002116  E109               	bnz	u3480
 12780   002118  0EFB               	movlw	-5
 12781   00211A  28E3               	incf	plusw1,w,c
 12782   00211C  A0D8               	btfss	status,0,c
 12783   00211E  EF93  F010         	goto	u3481
 12784   002122  EF95  F010         	goto	u3480
 12785   002126                     u3481:
 12786   002126  EFAB  F010         	goto	l3738
 12787   00212A                     u3480:
 12788   00212A  0E00               	movlw	0
 12789   00212C  6E09               	movwf	(btemp+8)^0,c
 12790   00212E  0E00               	movlw	0
 12791   002130  6E0A               	movwf	(btemp+9)^0,c
 12792   002132  0E80               	movlw	128
 12793   002134  6E0B               	movwf	(btemp+10)^0,c
 12794   002136  0E7F               	movlw	127
 12795   002138  6E0C               	movwf	(btemp+11)^0,c
 12796                           
 12797                           ;stkvar	_prod @ sp[(-13)+0]
 12798   00213A  0EF3               	movlw	-13
 12799   00213C  C009  FFE3         	movff	btemp+8,plusw1
 12800   002140  0EF4               	movlw	-12
 12801   002142  C00A  FFE3         	movff	btemp+9,plusw1
 12802   002146  0EF5               	movlw	-11
 12803   002148  C00B  FFE3         	movff	btemp+10,plusw1
 12804   00214C  0EF6               	movlw	-10
 12805   00214E  C00C  FFE3         	movff	btemp+11,plusw1
 12806   002152  EFF8  F010         	goto	l3754
 12807   002156                     l3738:
 12808                           
 12809                           ;stkvar	_temp @ sp[(-13)+8]
 12810   002156  0EFC               	movlw	-4
 12811   002158  BEE3               	btfsc	plusw1,7,c
 12812   00215A  EFBB  F010         	goto	u3490
 12813   00215E  0EFC               	movlw	-4
 12814   002160  50E3               	movf	plusw1,w,c
 12815   002162  E107               	bnz	u3491
 12816   002164  0EFB               	movlw	-5
 12817   002166  04E3               	decf	plusw1,w,c
 12818   002168  B0D8               	btfsc	status,0,c
 12819   00216A  EFB9  F010         	goto	u3491
 12820   00216E  EFBB  F010         	goto	u3490
 12821   002172                     u3491:
 12822   002172  EFC7  F010         	goto	l3744
 12823   002176                     u3490:
 12824   002176                     
 12825                           ;stkvar	_prod @ sp[(-13)+0]
 12826   002176  0EF3               	movlw	-13
 12827   002178  6AE3               	clrf	plusw1,c
 12828   00217A  0EF4               	movlw	-12
 12829   00217C  6AE3               	clrf	plusw1,c
 12830   00217E  0EF5               	movlw	-11
 12831   002180  6AE3               	clrf	plusw1,c
 12832   002182  0EF6               	movlw	-10
 12833   002184  6AE3               	clrf	plusw1,c
 12834   002186                     
 12835                           ;stkvar	_sign @ sp[(-13)+12]
 12836   002186  0EFF               	movlw	-1
 12837   002188  6AE3               	clrf	plusw1,c
 12838   00218A  EFF8  F010         	goto	l3754
 12839   00218E                     l3744:
 12840                           
 12841                           ;stkvar	_temp @ sp[(-13)+8]
 12842                           ;stkvar	_bexp @ sp[(-13)+10]
 12843   00218E  0EFB               	movlw	-5
 12844   002190  CFE3 F001          	movff	plusw1,btemp
 12845   002194  0EFD               	movlw	-3
 12846   002196  C001  FFE3         	movff	btemp,plusw1
 12847   00219A                     
 12848                           ;stkvar	_prod @ sp[(-13)+0]
 12849   00219A  50E1               	movf	fsr1l,w,c
 12850   00219C  0FF3               	addlw	-13
 12851   00219E  6ED9               	movwf	fsr2l,c
 12852   0021A0  50E2               	movf	fsr1h,w,c
 12853   0021A2  6EDA               	movwf	fsr2h,c
 12854   0021A4  0EFF               	movlw	255
 12855   0021A6  22DA               	addwfc	fsr2h,f,c
 12856   0021A8  0EFF               	movlw	255
 12857   0021AA  16DE               	andwf	postinc2,f,c
 12858   0021AC  0EFF               	movlw	255
 12859   0021AE  16DE               	andwf	postinc2,f,c
 12860   0021B0  0E7F               	movlw	127
 12861   0021B2  16DE               	andwf	postinc2,f,c
 12862   0021B4  0E00               	movlw	0
 12863   0021B6  16DE               	andwf	postinc2,f,c
 12864   0021B8                     
 12865                           ;stkvar	_bexp @ sp[(-13)+10]
 12866   0021B8  0EFD               	movlw	-3
 12867   0021BA  A0E3               	btfss	plusw1,0,c
 12868   0021BC  EFE2  F010         	goto	u3501
 12869   0021C0  EFE4  F010         	goto	u3500
 12870   0021C4                     u3501:
 12871   0021C4  EFEC  F010         	goto	l3752
 12872   0021C8                     u3500:
 12873   0021C8                     
 12874                           ;stkvar	_prod @ sp[(-13)+0]
 12875   0021C8  0EF5               	movlw	245
 12876   0021CA  24E1               	addwf	fsr1l,w,c
 12877   0021CC  6ED9               	movwf	fsr2l,c
 12878   0021CE  0EFF               	movlw	255
 12879   0021D0  20E2               	addwfc	fsr1h,w,c
 12880   0021D2  6EDA               	movwf	fsr2h,c
 12881   0021D4  0E00               	movlw	0
 12882   0021D6  8EDB               	bsf	plusw2,7,c
 12883   0021D8                     l3752:
 12884                           
 12885                           ;stkvar	_prod @ sp[(-13)+0]
 12886   0021D8  0EF6               	movlw	246
 12887   0021DA  24E1               	addwf	fsr1l,w,c
 12888   0021DC  6ED9               	movwf	fsr2l,c
 12889   0021DE  0EFF               	movlw	255
 12890   0021E0  20E2               	addwfc	fsr1h,w,c
 12891   0021E2  6EDA               	movwf	fsr2h,c
 12892                           
 12893                           ;stkvar	_bexp @ sp[(-13)+10]
 12894   0021E4  0EFD               	movlw	-3
 12895   0021E6  CFE3 F00C          	movff	plusw1,btemp+11
 12896   0021EA  90D8               	bcf	status,0,c
 12897   0021EC  300C               	rrcf	(btemp+11)^0,w,c
 12898   0021EE  6EDF               	movwf	indf2,c
 12899   0021F0                     l3754:
 12900                           
 12901                           ;stkvar	_sign @ sp[(-13)+12]
 12902   0021F0  0EFF               	movlw	-1
 12903   0021F2  CFE3 F00C          	movff	plusw1,btemp+11
 12904                           
 12905                           ;stkvar	_prod @ sp[(-13)+0]
 12906   0021F6  0EF6               	movlw	246
 12907   0021F8  24E1               	addwf	fsr1l,w,c
 12908   0021FA  6ED9               	movwf	fsr2l,c
 12909   0021FC  0EFF               	movlw	255
 12910   0021FE  20E2               	addwfc	fsr1h,w,c
 12911   002200  6EDA               	movwf	fsr2h,c
 12912   002202  500C               	movf	(btemp+11)^0,w,c
 12913   002204  12DF               	iorwf	indf2,f,c
 12914   002206                     
 12915                           ;stkvar	_prod @ sp[(-13)+0]
 12916   002206  0EF3               	movlw	-13
 12917   002208  CFE3 F001          	movff	plusw1,btemp
 12918   00220C  0EF4               	movlw	-12
 12919   00220E  CFE3 F002          	movff	plusw1,btemp+1
 12920   002212  0EF5               	movlw	-11
 12921   002214  CFE3 F003          	movff	plusw1,btemp+2
 12922   002218  0EF6               	movlw	-10
 12923   00221A  CFE3 F004          	movff	plusw1,btemp+3
 12924   00221E                     l1021:
 12925                           
 12926                           ; ___flmul: autosize = 13, savesize = 0, parsavesize = 0, tempsize = 0 parsize = 8, args
      +                          ize = 8, vargsize = 0
 12927   00221E  0EEB               	movlw	235
 12928   002220  26E1               	addwf	fsr1l,f,c
 12929   002222  0EFF               	movlw	255
 12930   002224  22E2               	addwfc	fsr1h,f,c
 12931   002226  0012               	return		;funcret
 12932   002228                     __end_of___flmul:
 12933                           	callstack 0
 12934                           
 12935 ;; *************** function ___flge *****************
 12936 ;; Defined at:
 12937 ;;		line 4 in file "C:\Program Files\Microchip\xc8\v2.41\pic\sources\c99\common\flge.c"
 12938 ;; Parameters:    Size  Location     Type
 12939 ;;  ff1             4  [STACK] unsigned char 
 12940 ;;  ff2             4  [STACK] unsigned char 
 12941 ;; Auto vars:     Size  Location     Type
 12942 ;;		None
 12943 ;; Return value:  Size  Location     Type
 12944 ;;		None               void
 12945 ;; Registers used:
 12946 ;;		wreg, fsr1l, fsr1h, fsr2l, fsr2h, status,2, status,0, btemp, btemp+8, btemp+9, btemp+10, btemp+11
 12947 ;; Tracked objects:
 12948 ;;		On entry : 0/F
 12949 ;;		On exit  : 0/0
 12950 ;;		Unchanged: 0/0
 12951 ;; Data sizes:     COMRAM   BANK0   BANK1   BANK2   BANK3   BANK4   BANK5   BANK6   BANK7   BANK8   BANK9  BANK10  BANK1
      +1  BANK12  BANK13  BANK14  BANK15
 12952 ;;      Params:         0       0       0       0       0       0       0       0       0       0       0       0       
      +0       0       0       0       0
 12953 ;;      Locals:         0       0       0       0       0       0       0       0       0       0       0       0       
      +0       0       0       0       0
 12954 ;;      Temps:          0       0       0       0       0       0       0       0       0       0       0       0       
      +0       0       0       0       0
 12955 ;;      Totals:         0       0       0       0       0       0       0       0       0       0       0       0       
      +0       0       0       0       0
 12956 ;;Total ram usage:        0 bytes
 12957 ;; Hardware stack levels used: 1
 12958 ;; Hardware stack levels required when called: 7
 12959 ;; This function calls:
 12960 ;;		Nothing
 12961 ;; This function is called by:
 12962 ;;		_efgtoa
 12963 ;; This function uses a reentrant model
 12964 ;;
 12965                           
 12966                           	psect	text45
 12967   003992                     __ptext45:
 12968                           	callstack 0
 12969   003992                     ___flge:
 12970                           	callstack 0
 12971   003992                     
 12972                           ;stkvar	_ff1 @ sp[(0)+-4]
 12973   003992  50E1               	movf	fsr1l,w,c
 12974   003994  0FFC               	addlw	-4
 12975   003996  6ED9               	movwf	fsr2l,c
 12976   003998  50E2               	movf	fsr1h,w,c
 12977   00399A  6EDA               	movwf	fsr2h,c
 12978   00399C  0EFF               	movlw	255
 12979   00399E  22DA               	addwfc	fsr2h,f,c
 12980   0039A0  0E00               	movlw	0
 12981   0039A2  14DE               	andwf	postinc2,w,c
 12982   0039A4  6E09               	movwf	(btemp+8)^0,c
 12983   0039A6  0E00               	movlw	0
 12984   0039A8  14DE               	andwf	postinc2,w,c
 12985   0039AA  6E0A               	movwf	(btemp+9)^0,c
 12986   0039AC  0E80               	movlw	128
 12987   0039AE  14DE               	andwf	postinc2,w,c
 12988   0039B0  6E0B               	movwf	(btemp+10)^0,c
 12989   0039B2  0E7F               	movlw	127
 12990   0039B4  14DE               	andwf	postinc2,w,c
 12991   0039B6  6E0C               	movwf	(btemp+11)^0,c
 12992   0039B8  5009               	movf	(btemp+8)^0,w,c
 12993   0039BA  100A               	iorwf	(btemp+9)^0,w,c
 12994   0039BC  100B               	iorwf	(btemp+10)^0,w,c
 12995   0039BE  100C               	iorwf	(btemp+11)^0,w,c
 12996   0039C0  A4D8               	btfss	status,2,c
 12997   0039C2  EFE5  F01C         	goto	u3541
 12998   0039C6  EFE7  F01C         	goto	u3540
 12999   0039CA                     u3541:
 13000   0039CA  EFEF  F01C         	goto	l3786
 13001   0039CE                     u3540:
 13002   0039CE                     
 13003                           ;stkvar	_ff1 @ sp[(0)+-4]
 13004   0039CE  0EFC               	movlw	-4
 13005   0039D0  6AE3               	clrf	plusw1,c
 13006   0039D2  0EFD               	movlw	-3
 13007   0039D4  6AE3               	clrf	plusw1,c
 13008   0039D6  0EFE               	movlw	-2
 13009   0039D8  6AE3               	clrf	plusw1,c
 13010   0039DA  0EFF               	movlw	-1
 13011   0039DC  6AE3               	clrf	plusw1,c
 13012   0039DE                     l3786:
 13013                           
 13014                           ;stkvar	_ff2 @ sp[(0)+-8]
 13015   0039DE  50E1               	movf	fsr1l,w,c
 13016   0039E0  0FF8               	addlw	-8
 13017   0039E2  6ED9               	movwf	fsr2l,c
 13018   0039E4  50E2               	movf	fsr1h,w,c
 13019   0039E6  6EDA               	movwf	fsr2h,c
 13020   0039E8  0EFF               	movlw	255
 13021   0039EA  22DA               	addwfc	fsr2h,f,c
 13022   0039EC  0E00               	movlw	0
 13023   0039EE  14DE               	andwf	postinc2,w,c
 13024   0039F0  6E09               	movwf	(btemp+8)^0,c
 13025   0039F2  0E00               	movlw	0
 13026   0039F4  14DE               	andwf	postinc2,w,c
 13027   0039F6  6E0A               	movwf	(btemp+9)^0,c
 13028   0039F8  0E80               	movlw	128
 13029   0039FA  14DE               	andwf	postinc2,w,c
 13030   0039FC  6E0B               	movwf	(btemp+10)^0,c
 13031   0039FE  0E7F               	movlw	127
 13032   003A00  14DE               	andwf	postinc2,w,c
 13033   003A02  6E0C               	movwf	(btemp+11)^0,c
 13034   003A04  5009               	movf	(btemp+8)^0,w,c
 13035   003A06  100A               	iorwf	(btemp+9)^0,w,c
 13036   003A08  100B               	iorwf	(btemp+10)^0,w,c
 13037   003A0A  100C               	iorwf	(btemp+11)^0,w,c
 13038   003A0C  A4D8               	btfss	status,2,c
 13039   003A0E  EF0B  F01D         	goto	u3551
 13040   003A12  EF0D  F01D         	goto	u3550
 13041   003A16                     u3551:
 13042   003A16  EF15  F01D         	goto	l666
 13043   003A1A                     u3550:
 13044   003A1A                     
 13045                           ;stkvar	_ff2 @ sp[(0)+-8]
 13046   003A1A  0EF8               	movlw	-8
 13047   003A1C  6AE3               	clrf	plusw1,c
 13048   003A1E  0EF9               	movlw	-7
 13049   003A20  6AE3               	clrf	plusw1,c
 13050   003A22  0EFA               	movlw	-6
 13051   003A24  6AE3               	clrf	plusw1,c
 13052   003A26  0EFB               	movlw	-5
 13053   003A28  6AE3               	clrf	plusw1,c
 13054   003A2A                     l666:
 13055                           
 13056                           ;stkvar	_ff1 @ sp[(0)+-4]
 13057   003A2A  0EFF               	movlw	-1
 13058   003A2C  AEE3               	btfss	plusw1,7,c
 13059   003A2E  EF1B  F01D         	goto	u3561
 13060   003A32  EF1D  F01D         	goto	u3560
 13061   003A36                     u3561:
 13062   003A36  EF3D  F01D         	goto	l3792
 13063   003A3A                     u3560:
 13064   003A3A                     
 13065                           ;stkvar	_ff1 @ sp[(0)+-4]
 13066   003A3A  0E00               	movlw	0
 13067   003A3C  6E09               	movwf	(btemp+8)^0,c
 13068   003A3E  0E00               	movlw	0
 13069   003A40  6E0A               	movwf	(btemp+9)^0,c
 13070   003A42  0E00               	movlw	0
 13071   003A44  6E0B               	movwf	(btemp+10)^0,c
 13072   003A46  0E80               	movlw	128
 13073   003A48  6E0C               	movwf	(btemp+11)^0,c
 13074   003A4A  0EFC               	movlw	-4
 13075   003A4C  50E3               	movf	plusw1,w,c
 13076   003A4E  5E09               	subwf	(btemp+8)^0,f,c
 13077   003A50  0EFD               	movlw	-3
 13078   003A52  50E3               	movf	plusw1,w,c
 13079   003A54  5A0A               	subwfb	(btemp+9)^0,f,c
 13080   003A56  0EFE               	movlw	-2
 13081   003A58  50E3               	movf	plusw1,w,c
 13082   003A5A  5A0B               	subwfb	(btemp+10)^0,f,c
 13083   003A5C  0EFF               	movlw	-1
 13084   003A5E  50E3               	movf	plusw1,w,c
 13085   003A60  5A0C               	subwfb	(btemp+11)^0,f,c
 13086                           
 13087                           ;stkvar	_ff1 @ sp[(0)+-4]
 13088   003A62  0EFC               	movlw	-4
 13089   003A64  C009  FFE3         	movff	btemp+8,plusw1
 13090   003A68  0EFD               	movlw	-3
 13091   003A6A  C00A  FFE3         	movff	btemp+9,plusw1
 13092   003A6E  0EFE               	movlw	-2
 13093   003A70  C00B  FFE3         	movff	btemp+10,plusw1
 13094   003A74  0EFF               	movlw	-1
 13095   003A76  C00C  FFE3         	movff	btemp+11,plusw1
 13096   003A7A                     l3792:
 13097                           
 13098                           ;stkvar	_ff2 @ sp[(0)+-8]
 13099   003A7A  0EFB               	movlw	-5
 13100   003A7C  AEE3               	btfss	plusw1,7,c
 13101   003A7E  EF43  F01D         	goto	u3571
 13102   003A82  EF45  F01D         	goto	u3570
 13103   003A86                     u3571:
 13104   003A86  EF65  F01D         	goto	l3796
 13105   003A8A                     u3570:
 13106   003A8A                     
 13107                           ;stkvar	_ff2 @ sp[(0)+-8]
 13108   003A8A  0E00               	movlw	0
 13109   003A8C  6E09               	movwf	(btemp+8)^0,c
 13110   003A8E  0E00               	movlw	0
 13111   003A90  6E0A               	movwf	(btemp+9)^0,c
 13112   003A92  0E00               	movlw	0
 13113   003A94  6E0B               	movwf	(btemp+10)^0,c
 13114   003A96  0E80               	movlw	128
 13115   003A98  6E0C               	movwf	(btemp+11)^0,c
 13116   003A9A  0EF8               	movlw	-8
 13117   003A9C  50E3               	movf	plusw1,w,c
 13118   003A9E  5E09               	subwf	(btemp+8)^0,f,c
 13119   003AA0  0EF9               	movlw	-7
 13120   003AA2  50E3               	movf	plusw1,w,c
 13121   003AA4  5A0A               	subwfb	(btemp+9)^0,f,c
 13122   003AA6  0EFA               	movlw	-6
 13123   003AA8  50E3               	movf	plusw1,w,c
 13124   003AAA  5A0B               	subwfb	(btemp+10)^0,f,c
 13125   003AAC  0EFB               	movlw	-5
 13126   003AAE  50E3               	movf	plusw1,w,c
 13127   003AB0  5A0C               	subwfb	(btemp+11)^0,f,c
 13128                           
 13129                           ;stkvar	_ff2 @ sp[(0)+-8]
 13130   003AB2  0EF8               	movlw	-8
 13131   003AB4  C009  FFE3         	movff	btemp+8,plusw1
 13132   003AB8  0EF9               	movlw	-7
 13133   003ABA  C00A  FFE3         	movff	btemp+9,plusw1
 13134   003ABE  0EFA               	movlw	-6
 13135   003AC0  C00B  FFE3         	movff	btemp+10,plusw1
 13136   003AC4  0EFB               	movlw	-5
 13137   003AC6  C00C  FFE3         	movff	btemp+11,plusw1
 13138   003ACA                     l3796:
 13139                           
 13140                           ;stkvar	_ff1 @ sp[(0)+-4]
 13141   003ACA  0EFF               	movlw	-1
 13142   003ACC  7EE3               	btg	plusw1,7,c
 13143   003ACE                     
 13144                           ;stkvar	_ff2 @ sp[(0)+-8]
 13145   003ACE  0EFB               	movlw	-5
 13146   003AD0  7EE3               	btg	plusw1,7,c
 13147   003AD2                     
 13148                           ;stkvar	_ff2 @ sp[(0)+-8]
 13149                           ;stkvar	_ff1 @ sp[(0)+-4]
 13150   003AD2  50E1               	movf	fsr1l,w,c
 13151   003AD4  0FFC               	addlw	-4
 13152   003AD6  6ED9               	movwf	fsr2l,c
 13153   003AD8  50E2               	movf	fsr1h,w,c
 13154   003ADA  6EDA               	movwf	fsr2h,c
 13155   003ADC  0EFF               	movlw	255
 13156   003ADE  22DA               	addwfc	fsr2h,f,c
 13157   003AE0  0EF8               	movlw	-8
 13158   003AE2  50E3               	movf	plusw1,w,c
 13159   003AE4  5CDE               	subwf	postinc2,w,c
 13160   003AE6  0EF9               	movlw	-7
 13161   003AE8  50E3               	movf	plusw1,w,c
 13162   003AEA  58DE               	subwfb	postinc2,w,c
 13163   003AEC  0EFA               	movlw	-6
 13164   003AEE  50E3               	movf	plusw1,w,c
 13165   003AF0  58DE               	subwfb	postinc2,w,c
 13166   003AF2  0EFB               	movlw	-5
 13167   003AF4  50E3               	movf	plusw1,w,c
 13168   003AF6  58DE               	subwfb	postinc2,w,c
 13169   003AF8  B0D8               	btfsc	status,0,c
 13170   003AFA  EF81  F01D         	goto	u3581
 13171   003AFE  EF83  F01D         	goto	u3580
 13172   003B02                     u3581:
 13173   003B02  EF86  F01D         	goto	l3804
 13174   003B06                     u3580:
 13175   003B06  9001               	bcf	btemp& (0+255),0,c
 13176   003B08  EF87  F01D         	goto	l673
 13177   003B0C                     l3804:
 13178   003B0C  8001               	bsf	btemp& (0+255),0,c
 13179   003B0E                     l673:
 13180                           
 13181                           ; ___flge: autosize = 0, savesize = 0, parsavesize = 0, tempsize = 0 parsize = 8, argsiz
      +                          e = 8, vargsize = 0
 13182   003B0E  0EF8               	movlw	248
 13183   003B10  26E1               	addwf	fsr1l,f,c
 13184   003B12  0EFF               	movlw	255
 13185   003B14  22E2               	addwfc	fsr1h,f,c
 13186   003B16  0012               	return		;funcret
 13187   003B18                     __end_of___flge:
 13188                           	callstack 0
 13189                           
 13190 ;; *************** function ___fleq *****************
 13191 ;; Defined at:
 13192 ;;		line 4 in file "C:\Program Files\Microchip\xc8\v2.41\pic\sources\c99\common\fleq.c"
 13193 ;; Parameters:    Size  Location     Type
 13194 ;;  ff1             4  [STACK] unsigned char 
 13195 ;;  ff2             4  [STACK] unsigned char 
 13196 ;; Auto vars:     Size  Location     Type
 13197 ;;		None
 13198 ;; Return value:  Size  Location     Type
 13199 ;;		None               void
 13200 ;; Registers used:
 13201 ;;		wreg, fsr1l, fsr1h, fsr2l, fsr2h, status,2, status,0, btemp, btemp+8, btemp+9, btemp+10, btemp+11
 13202 ;; Tracked objects:
 13203 ;;		On entry : 0/F
 13204 ;;		On exit  : 0/0
 13205 ;;		Unchanged: 0/0
 13206 ;; Data sizes:     COMRAM   BANK0   BANK1   BANK2   BANK3   BANK4   BANK5   BANK6   BANK7   BANK8   BANK9  BANK10  BANK1
      +1  BANK12  BANK13  BANK14  BANK15
 13207 ;;      Params:         0       0       0       0       0       0       0       0       0       0       0       0       
      +0       0       0       0       0
 13208 ;;      Locals:         0       0       0       0       0       0       0       0       0       0       0       0       
      +0       0       0       0       0
 13209 ;;      Temps:          0       0       0       0       0       0       0       0       0       0       0       0       
      +0       0       0       0       0
 13210 ;;      Totals:         0       0       0       0       0       0       0       0       0       0       0       0       
      +0       0       0       0       0
 13211 ;;Total ram usage:        0 bytes
 13212 ;; Hardware stack levels used: 1
 13213 ;; Hardware stack levels required when called: 7
 13214 ;; This function calls:
 13215 ;;		Nothing
 13216 ;; This function is called by:
 13217 ;;		_efgtoa
 13218 ;; This function uses a reentrant model
 13219 ;;
 13220                           
 13221                           	psect	text46
 13222   0041F2                     __ptext46:
 13223                           	callstack 0
 13224   0041F2                     ___fleq:
 13225                           	callstack 0
 13226   0041F2                     
 13227                           ;stkvar	_ff1 @ sp[(0)+-4]
 13228   0041F2  50E1               	movf	fsr1l,w,c
 13229   0041F4  0FFC               	addlw	-4
 13230   0041F6  6ED9               	movwf	fsr2l,c
 13231   0041F8  50E2               	movf	fsr1h,w,c
 13232   0041FA  6EDA               	movwf	fsr2h,c
 13233   0041FC  0EFF               	movlw	255
 13234   0041FE  22DA               	addwfc	fsr2h,f,c
 13235   004200  0E00               	movlw	0
 13236   004202  14DE               	andwf	postinc2,w,c
 13237   004204  6E09               	movwf	(btemp+8)^0,c
 13238   004206  0E00               	movlw	0
 13239   004208  14DE               	andwf	postinc2,w,c
 13240   00420A  6E0A               	movwf	(btemp+9)^0,c
 13241   00420C  0E80               	movlw	128
 13242   00420E  14DE               	andwf	postinc2,w,c
 13243   004210  6E0B               	movwf	(btemp+10)^0,c
 13244   004212  0E7F               	movlw	127
 13245   004214  14DE               	andwf	postinc2,w,c
 13246   004216  6E0C               	movwf	(btemp+11)^0,c
 13247   004218  5009               	movf	(btemp+8)^0,w,c
 13248   00421A  100A               	iorwf	(btemp+9)^0,w,c
 13249   00421C  100B               	iorwf	(btemp+10)^0,w,c
 13250   00421E  100C               	iorwf	(btemp+11)^0,w,c
 13251   004220  A4D8               	btfss	status,2,c
 13252   004222  EF15  F021         	goto	u3511
 13253   004226  EF17  F021         	goto	u3510
 13254   00422A                     u3511:
 13255   00422A  EF1F  F021         	goto	l3770
 13256   00422E                     u3510:
 13257   00422E                     
 13258                           ;stkvar	_ff1 @ sp[(0)+-4]
 13259   00422E  0EFC               	movlw	-4
 13260   004230  6AE3               	clrf	plusw1,c
 13261   004232  0EFD               	movlw	-3
 13262   004234  6AE3               	clrf	plusw1,c
 13263   004236  0EFE               	movlw	-2
 13264   004238  6AE3               	clrf	plusw1,c
 13265   00423A  0EFF               	movlw	-1
 13266   00423C  6AE3               	clrf	plusw1,c
 13267   00423E                     l3770:
 13268                           
 13269                           ;stkvar	_ff2 @ sp[(0)+-8]
 13270   00423E  50E1               	movf	fsr1l,w,c
 13271   004240  0FF8               	addlw	-8
 13272   004242  6ED9               	movwf	fsr2l,c
 13273   004244  50E2               	movf	fsr1h,w,c
 13274   004246  6EDA               	movwf	fsr2h,c
 13275   004248  0EFF               	movlw	255
 13276   00424A  22DA               	addwfc	fsr2h,f,c
 13277   00424C  0E00               	movlw	0
 13278   00424E  14DE               	andwf	postinc2,w,c
 13279   004250  6E09               	movwf	(btemp+8)^0,c
 13280   004252  0E00               	movlw	0
 13281   004254  14DE               	andwf	postinc2,w,c
 13282   004256  6E0A               	movwf	(btemp+9)^0,c
 13283   004258  0E80               	movlw	128
 13284   00425A  14DE               	andwf	postinc2,w,c
 13285   00425C  6E0B               	movwf	(btemp+10)^0,c
 13286   00425E  0E7F               	movlw	127
 13287   004260  14DE               	andwf	postinc2,w,c
 13288   004262  6E0C               	movwf	(btemp+11)^0,c
 13289   004264  5009               	movf	(btemp+8)^0,w,c
 13290   004266  100A               	iorwf	(btemp+9)^0,w,c
 13291   004268  100B               	iorwf	(btemp+10)^0,w,c
 13292   00426A  100C               	iorwf	(btemp+11)^0,w,c
 13293   00426C  A4D8               	btfss	status,2,c
 13294   00426E  EF3B  F021         	goto	u3521
 13295   004272  EF3D  F021         	goto	u3520
 13296   004276                     u3521:
 13297   004276  EF45  F021         	goto	l3774
 13298   00427A                     u3520:
 13299   00427A                     
 13300                           ;stkvar	_ff2 @ sp[(0)+-8]
 13301   00427A  0EF8               	movlw	-8
 13302   00427C  6AE3               	clrf	plusw1,c
 13303   00427E  0EF9               	movlw	-7
 13304   004280  6AE3               	clrf	plusw1,c
 13305   004282  0EFA               	movlw	-6
 13306   004284  6AE3               	clrf	plusw1,c
 13307   004286  0EFB               	movlw	-5
 13308   004288  6AE3               	clrf	plusw1,c
 13309   00428A                     l3774:
 13310                           
 13311                           ;stkvar	_ff2 @ sp[(0)+-8]
 13312                           ;stkvar	_ff1 @ sp[(0)+-4]
 13313   00428A  50E1               	movf	fsr1l,w,c
 13314   00428C  0FFC               	addlw	-4
 13315   00428E  6ED9               	movwf	fsr2l,c
 13316   004290  50E2               	movf	fsr1h,w,c
 13317   004292  6EDA               	movwf	fsr2h,c
 13318   004294  0EFF               	movlw	255
 13319   004296  22DA               	addwfc	fsr2h,f,c
 13320   004298  0EF8               	movlw	-8
 13321   00429A  50E3               	movf	plusw1,w,c
 13322   00429C  18DE               	xorwf	postinc2,w,c
 13323   00429E  E112               	bnz	u3530
 13324   0042A0  0EF9               	movlw	-7
 13325   0042A2  50E3               	movf	plusw1,w,c
 13326   0042A4  18DE               	xorwf	postinc2,w,c
 13327   0042A6  E10E               	bnz	u3530
 13328   0042A8  0EFA               	movlw	-6
 13329   0042AA  50E3               	movf	plusw1,w,c
 13330   0042AC  18DE               	xorwf	postinc2,w,c
 13331   0042AE  E10A               	bnz	u3530
 13332   0042B0  0EFB               	movlw	-5
 13333   0042B2  50E3               	movf	plusw1,w,c
 13334   0042B4  18DE               	xorwf	postinc2,w,c
 13335   0042B6  B4D8               	btfsc	status,2,c
 13336   0042B8  EF60  F021         	goto	u3531
 13337   0042BC  EF62  F021         	goto	u3530
 13338   0042C0                     u3531:
 13339   0042C0  EF65  F021         	goto	l3778
 13340   0042C4                     u3530:
 13341   0042C4  9001               	bcf	btemp& (0+255),0,c
 13342   0042C6  EF66  F021         	goto	l662
 13343   0042CA                     l3778:
 13344   0042CA  8001               	bsf	btemp& (0+255),0,c
 13345   0042CC                     l662:
 13346                           
 13347                           ; ___fleq: autosize = 0, savesize = 0, parsavesize = 0, tempsize = 0 parsize = 8, argsiz
      +                          e = 8, vargsize = 0
 13348   0042CC  0EF8               	movlw	248
 13349   0042CE  26E1               	addwf	fsr1l,f,c
 13350   0042D0  0EFF               	movlw	255
 13351   0042D2  22E2               	addwfc	fsr1h,f,c
 13352   0042D4  0012               	return		;funcret
 13353   0042D6                     __end_of___fleq:
 13354                           	callstack 0
 13355                           
 13356 ;; *************** function ___fldiv *****************
 13357 ;; Defined at:
 13358 ;;		line 11 in file "C:\Program Files\Microchip\xc8\v2.41\pic\sources\c99\common\sprcdiv.c"
 13359 ;; Parameters:    Size  Location     Type
 13360 ;;  b               4  [STACK] unsigned char 
 13361 ;;  a               4  [STACK] unsigned char 
 13362 ;; Auto vars:     Size  Location     Type
 13363 ;;  grs             4  [STACK] unsigned long 
 13364 ;;  rem             4  [STACK] unsigned long 
 13365 ;;  new_exp         2  [STACK] short 
 13366 ;;  aexp            1  [STACK] unsigned char 
 13367 ;;  bexp            1  [STACK] unsigned char 
 13368 ;;  sign            1  [STACK] unsigned char 
 13369 ;; Return value:  Size  Location     Type
 13370 ;;                  4  [STACK] unsigned char 
 13371 ;; Registers used:
 13372 ;;		wreg, fsr1l, fsr1h, fsr2l, fsr2h, status,2, status,0, btemp, btemp+1, btemp+2, btemp+3, btemp+8, btemp+9, btemp+10, 
      +btemp+11
 13373 ;; Tracked objects:
 13374 ;;		On entry : 0/F
 13375 ;;		On exit  : 0/0
 13376 ;;		Unchanged: 0/0
 13377 ;; Data sizes:     COMRAM   BANK0   BANK1   BANK2   BANK3   BANK4   BANK5   BANK6   BANK7   BANK8   BANK9  BANK10  BANK1
      +1  BANK12  BANK13  BANK14  BANK15
 13378 ;;      Params:         0       0       0       0       0       0       0       0       0       0       0       0       
      +0       0       0       0       0
 13379 ;;      Locals:         0       0       0       0       0       0       0       0       0       0       0       0       
      +0       0       0       0       0
 13380 ;;      Temps:          0       0       0       0       0       0       0       0       0       0       0       0       
      +0       0       0       0       0
 13381 ;;      Totals:         0       0       0       0       0       0       0       0       0       0       0       0       
      +0       0       0       0       0
 13382 ;;Total ram usage:        0 bytes
 13383 ;; Hardware stack levels used: 1
 13384 ;; Hardware stack levels required when called: 7
 13385 ;; This function calls:
 13386 ;;		Nothing
 13387 ;; This function is called by:
 13388 ;;		_efgtoa
 13389 ;; This function uses a reentrant model
 13390 ;;
 13391                           
 13392                           	psect	text47
 13393   002228                     __ptext47:
 13394                           	callstack 0
 13395   002228                     ___fldiv:
 13396                           	callstack 0
 13397                           
 13398                           ; autosize = 13, savesize = 0, parsavesize = 0, tempsize = 0 parsize = 8, argsize = 8 va
      +                          rgsize = 0, retsize = 0 argfudge = 0
 13399   002228  0E0D               	movlw	13
 13400   00222A  26E1               	addwf	fsr1l,f,c
 13401   00222C  0E00               	movlw	0
 13402   00222E  22E2               	addwfc	fsr1h,f,c
 13403   002230                     
 13404                           ;stkvar	_b @ sp[(-13)+-4]
 13405   002230  0EF2               	movlw	242
 13406   002232  24E1               	addwf	fsr1l,w,c
 13407   002234  6ED9               	movwf	fsr2l,c
 13408   002236  0EFF               	movlw	255
 13409   002238  20E2               	addwfc	fsr1h,w,c
 13410   00223A  6EDA               	movwf	fsr2h,c
 13411   00223C  50DF               	movf	indf2,w,c
 13412   00223E  6E0C               	movwf	(btemp+11)^0,c
 13413   002240  0E80               	movlw	128
 13414   002242  160C               	andwf	(btemp+11)^0,f,c
 13415                           
 13416                           ;stkvar	_sign @ sp[(-13)+12]
 13417   002244  0EFF               	movlw	-1
 13418   002246  C00C  FFE3         	movff	btemp+11,plusw1
 13419   00224A                     
 13420                           ;stkvar	_b @ sp[(-13)+-4]
 13421   00224A  0EF2               	movlw	242
 13422   00224C  24E1               	addwf	fsr1l,w,c
 13423   00224E  6ED9               	movwf	fsr2l,c
 13424   002250  0EFF               	movlw	255
 13425   002252  20E2               	addwfc	fsr1h,w,c
 13426   002254  6EDA               	movwf	fsr2h,c
 13427   002256  50DF               	movf	indf2,w,c
 13428   002258  6E0C               	movwf	(btemp+11)^0,c
 13429   00225A  90D8               	bcf	status,0,c
 13430   00225C  340C               	rlcf	(btemp+11)^0,w,c
 13431   00225E  6E0B               	movwf	(btemp+10)^0,c
 13432                           
 13433                           ;stkvar	_bexp @ sp[(-13)+11]
 13434   002260  0EFE               	movlw	-2
 13435   002262  C00B  FFE3         	movff	btemp+10,plusw1
 13436   002266                     
 13437                           ;stkvar	_b @ sp[(-13)+-4]
 13438   002266  0EF1               	movlw	241
 13439   002268  24E1               	addwf	fsr1l,w,c
 13440   00226A  6ED9               	movwf	fsr2l,c
 13441   00226C  0EFF               	movlw	255
 13442   00226E  20E2               	addwfc	fsr1h,w,c
 13443   002270  6EDA               	movwf	fsr2h,c
 13444   002272  AEDF               	btfss	indf2,7,c
 13445   002274  EF3E  F011         	goto	u3051
 13446   002278  EF40  F011         	goto	u3050
 13447   00227C                     u3051:
 13448   00227C  EF42  F011         	goto	l3456
 13449   002280                     u3050:
 13450   002280                     
 13451                           ;stkvar	_bexp @ sp[(-13)+11]
 13452   002280  0EFE               	movlw	-2
 13453   002282  80E3               	bsf	plusw1,0,c
 13454   002284                     l3456:
 13455                           
 13456                           ;stkvar	_bexp @ sp[(-13)+11]
 13457   002284  0EFE               	movlw	-2
 13458   002286  50E3               	movf	plusw1,w,c
 13459   002288  B4D8               	btfsc	status,2,c
 13460   00228A  EF49  F011         	goto	u3061
 13461   00228E  EF4B  F011         	goto	u3060
 13462   002292                     u3061:
 13463   002292  EF73  F011         	goto	l3466
 13464   002296                     u3060:
 13465   002296                     
 13466                           ;stkvar	_bexp @ sp[(-13)+11]
 13467   002296  0EFE               	movlw	-2
 13468   002298  28E3               	incf	plusw1,w,c
 13469   00229A  A4D8               	btfss	status,2,c
 13470   00229C  EF52  F011         	goto	u3071
 13471   0022A0  EF54  F011         	goto	u3070
 13472   0022A4                     u3071:
 13473   0022A4  EF68  F011         	goto	l3462
 13474   0022A8                     u3070:
 13475   0022A8  0E00               	movlw	0
 13476   0022AA  6E09               	movwf	(btemp+8)^0,c
 13477   0022AC  0E00               	movlw	0
 13478   0022AE  6E0A               	movwf	(btemp+9)^0,c
 13479   0022B0  0E00               	movlw	0
 13480   0022B2  6E0B               	movwf	(btemp+10)^0,c
 13481   0022B4  0E00               	movlw	0
 13482   0022B6  6E0C               	movwf	(btemp+11)^0,c
 13483                           
 13484                           ;stkvar	_b @ sp[(-13)+-4]
 13485   0022B8  0EEF               	movlw	-17
 13486   0022BA  C009  FFE3         	movff	btemp+8,plusw1
 13487   0022BE  0EF0               	movlw	-16
 13488   0022C0  C00A  FFE3         	movff	btemp+9,plusw1
 13489   0022C4  0EF1               	movlw	-15
 13490   0022C6  C00B  FFE3         	movff	btemp+10,plusw1
 13491   0022CA  0EF2               	movlw	-14
 13492   0022CC  C00C  FFE3         	movff	btemp+11,plusw1
 13493   0022D0                     l3462:
 13494                           
 13495                           ;stkvar	_b @ sp[(-13)+-4]
 13496   0022D0  0EF1               	movlw	-15
 13497   0022D2  8EE3               	bsf	plusw1,7,c
 13498   0022D4                     
 13499                           ;stkvar	_b @ sp[(-13)+-4]
 13500   0022D4  0EF2               	movlw	242
 13501   0022D6  24E1               	addwf	fsr1l,w,c
 13502   0022D8  6ED9               	movwf	fsr2l,c
 13503   0022DA  0EFF               	movlw	255
 13504   0022DC  20E2               	addwfc	fsr1h,w,c
 13505   0022DE  6EDA               	movwf	fsr2h,c
 13506   0022E0  6ADF               	clrf	indf2,c
 13507   0022E2  EF87  F011         	goto	l3468
 13508   0022E6                     l3466:
 13509   0022E6  0E00               	movlw	0
 13510   0022E8  6E09               	movwf	(btemp+8)^0,c
 13511   0022EA  0E00               	movlw	0
 13512   0022EC  6E0A               	movwf	(btemp+9)^0,c
 13513   0022EE  0E00               	movlw	0
 13514   0022F0  6E0B               	movwf	(btemp+10)^0,c
 13515   0022F2  0E00               	movlw	0
 13516   0022F4  6E0C               	movwf	(btemp+11)^0,c
 13517                           
 13518                           ;stkvar	_b @ sp[(-13)+-4]
 13519   0022F6  0EEF               	movlw	-17
 13520   0022F8  C009  FFE3         	movff	btemp+8,plusw1
 13521   0022FC  0EF0               	movlw	-16
 13522   0022FE  C00A  FFE3         	movff	btemp+9,plusw1
 13523   002302  0EF1               	movlw	-15
 13524   002304  C00B  FFE3         	movff	btemp+10,plusw1
 13525   002308  0EF2               	movlw	-14
 13526   00230A  C00C  FFE3         	movff	btemp+11,plusw1
 13527   00230E                     l3468:
 13528                           
 13529                           ;stkvar	_a @ sp[(-13)+-8]
 13530   00230E  0EEE               	movlw	238
 13531   002310  24E1               	addwf	fsr1l,w,c
 13532   002312  6ED9               	movwf	fsr2l,c
 13533   002314  0EFF               	movlw	255
 13534   002316  20E2               	addwfc	fsr1h,w,c
 13535   002318  6EDA               	movwf	fsr2h,c
 13536   00231A  50DF               	movf	indf2,w,c
 13537   00231C  6E0C               	movwf	(btemp+11)^0,c
 13538   00231E  0E80               	movlw	128
 13539   002320  160C               	andwf	(btemp+11)^0,f,c
 13540                           
 13541                           ;stkvar	_sign @ sp[(-13)+12]
 13542   002322  50E1               	movf	fsr1l,w,c
 13543   002324  0FFF               	addlw	-1
 13544   002326  6ED9               	movwf	fsr2l,c
 13545   002328  50E2               	movf	fsr1h,w,c
 13546   00232A  6EDA               	movwf	fsr2h,c
 13547   00232C  0EFF               	movlw	255
 13548   00232E  22DA               	addwfc	fsr2h,f,c
 13549   002330  500C               	movf	(btemp+11)^0,w,c
 13550   002332  1ADF               	xorwf	indf2,f,c
 13551   002334                     
 13552                           ;stkvar	_a @ sp[(-13)+-8]
 13553   002334  0EEE               	movlw	238
 13554   002336  24E1               	addwf	fsr1l,w,c
 13555   002338  6ED9               	movwf	fsr2l,c
 13556   00233A  0EFF               	movlw	255
 13557   00233C  20E2               	addwfc	fsr1h,w,c
 13558   00233E  6EDA               	movwf	fsr2h,c
 13559   002340  50DF               	movf	indf2,w,c
 13560   002342  6E0C               	movwf	(btemp+11)^0,c
 13561   002344  90D8               	bcf	status,0,c
 13562   002346  340C               	rlcf	(btemp+11)^0,w,c
 13563   002348  6E0B               	movwf	(btemp+10)^0,c
 13564                           
 13565                           ;stkvar	_aexp @ sp[(-13)+10]
 13566   00234A  0EFD               	movlw	-3
 13567   00234C  C00B  FFE3         	movff	btemp+10,plusw1
 13568   002350                     
 13569                           ;stkvar	_a @ sp[(-13)+-8]
 13570   002350  0EED               	movlw	237
 13571   002352  24E1               	addwf	fsr1l,w,c
 13572   002354  6ED9               	movwf	fsr2l,c
 13573   002356  0EFF               	movlw	255
 13574   002358  20E2               	addwfc	fsr1h,w,c
 13575   00235A  6EDA               	movwf	fsr2h,c
 13576   00235C  AEDF               	btfss	indf2,7,c
 13577   00235E  EFB3  F011         	goto	u3081
 13578   002362  EFB5  F011         	goto	u3080
 13579   002366                     u3081:
 13580   002366  EFB7  F011         	goto	l3476
 13581   00236A                     u3080:
 13582   00236A                     
 13583                           ;stkvar	_aexp @ sp[(-13)+10]
 13584   00236A  0EFD               	movlw	-3
 13585   00236C  80E3               	bsf	plusw1,0,c
 13586   00236E                     l3476:
 13587                           
 13588                           ;stkvar	_aexp @ sp[(-13)+10]
 13589   00236E  0EFD               	movlw	-3
 13590   002370  50E3               	movf	plusw1,w,c
 13591   002372  B4D8               	btfsc	status,2,c
 13592   002374  EFBE  F011         	goto	u3091
 13593   002378  EFC0  F011         	goto	u3090
 13594   00237C                     u3091:
 13595   00237C  EFE8  F011         	goto	l3486
 13596   002380                     u3090:
 13597   002380                     
 13598                           ;stkvar	_aexp @ sp[(-13)+10]
 13599   002380  0EFD               	movlw	-3
 13600   002382  28E3               	incf	plusw1,w,c
 13601   002384  A4D8               	btfss	status,2,c
 13602   002386  EFC7  F011         	goto	u3101
 13603   00238A  EFC9  F011         	goto	u3100
 13604   00238E                     u3101:
 13605   00238E  EFDD  F011         	goto	l3482
 13606   002392                     u3100:
 13607   002392  0E00               	movlw	0
 13608   002394  6E09               	movwf	(btemp+8)^0,c
 13609   002396  0E00               	movlw	0
 13610   002398  6E0A               	movwf	(btemp+9)^0,c
 13611   00239A  0E00               	movlw	0
 13612   00239C  6E0B               	movwf	(btemp+10)^0,c
 13613   00239E  0E00               	movlw	0
 13614   0023A0  6E0C               	movwf	(btemp+11)^0,c
 13615                           
 13616                           ;stkvar	_a @ sp[(-13)+-8]
 13617   0023A2  0EEB               	movlw	-21
 13618   0023A4  C009  FFE3         	movff	btemp+8,plusw1
 13619   0023A8  0EEC               	movlw	-20
 13620   0023AA  C00A  FFE3         	movff	btemp+9,plusw1
 13621   0023AE  0EED               	movlw	-19
 13622   0023B0  C00B  FFE3         	movff	btemp+10,plusw1
 13623   0023B4  0EEE               	movlw	-18
 13624   0023B6  C00C  FFE3         	movff	btemp+11,plusw1
 13625   0023BA                     l3482:
 13626                           
 13627                           ;stkvar	_a @ sp[(-13)+-8]
 13628   0023BA  0EED               	movlw	-19
 13629   0023BC  8EE3               	bsf	plusw1,7,c
 13630   0023BE                     
 13631                           ;stkvar	_a @ sp[(-13)+-8]
 13632   0023BE  0EEE               	movlw	238
 13633   0023C0  24E1               	addwf	fsr1l,w,c
 13634   0023C2  6ED9               	movwf	fsr2l,c
 13635   0023C4  0EFF               	movlw	255
 13636   0023C6  20E2               	addwfc	fsr1h,w,c
 13637   0023C8  6EDA               	movwf	fsr2h,c
 13638   0023CA  6ADF               	clrf	indf2,c
 13639   0023CC  EFFC  F011         	goto	l3488
 13640   0023D0                     l3486:
 13641   0023D0  0E00               	movlw	0
 13642   0023D2  6E09               	movwf	(btemp+8)^0,c
 13643   0023D4  0E00               	movlw	0
 13644   0023D6  6E0A               	movwf	(btemp+9)^0,c
 13645   0023D8  0E00               	movlw	0
 13646   0023DA  6E0B               	movwf	(btemp+10)^0,c
 13647   0023DC  0E00               	movlw	0
 13648   0023DE  6E0C               	movwf	(btemp+11)^0,c
 13649                           
 13650                           ;stkvar	_a @ sp[(-13)+-8]
 13651   0023E0  0EEB               	movlw	-21
 13652   0023E2  C009  FFE3         	movff	btemp+8,plusw1
 13653   0023E6  0EEC               	movlw	-20
 13654   0023E8  C00A  FFE3         	movff	btemp+9,plusw1
 13655   0023EC  0EED               	movlw	-19
 13656   0023EE  C00B  FFE3         	movff	btemp+10,plusw1
 13657   0023F2  0EEE               	movlw	-18
 13658   0023F4  C00C  FFE3         	movff	btemp+11,plusw1
 13659   0023F8                     l3488:
 13660                           
 13661                           ;stkvar	_a @ sp[(-13)+-8]
 13662   0023F8  0EEB               	movlw	-21
 13663   0023FA  50E3               	movf	plusw1,w,c
 13664   0023FC  E10D               	bnz	u3111
 13665   0023FE  0EEC               	movlw	-20
 13666   002400  50E3               	movf	plusw1,w,c
 13667   002402  E10A               	bnz	u3111
 13668   002404  0EED               	movlw	-19
 13669   002406  50E3               	movf	plusw1,w,c
 13670   002408  E107               	bnz	u3111
 13671   00240A  0EEE               	movlw	-18
 13672   00240C  50E3               	movf	plusw1,w,c
 13673   00240E  A4D8               	btfss	status,2,c
 13674   002410  EF0C  F012         	goto	u3111
 13675   002414  EF0E  F012         	goto	u3110
 13676   002418                     u3111:
 13677   002418  EF39  F012         	goto	l3500
 13678   00241C                     u3110:
 13679   00241C                     
 13680                           ;stkvar	_b @ sp[(-13)+-4]
 13681   00241C  0EEF               	movlw	-17
 13682   00241E  6AE3               	clrf	plusw1,c
 13683   002420  0EF0               	movlw	-16
 13684   002422  6AE3               	clrf	plusw1,c
 13685   002424  0EF1               	movlw	-15
 13686   002426  6AE3               	clrf	plusw1,c
 13687   002428  0EF2               	movlw	-14
 13688   00242A  6AE3               	clrf	plusw1,c
 13689   00242C                     
 13690                           ;stkvar	_b @ sp[(-13)+-4]
 13691   00242C  0EF1               	movlw	241
 13692   00242E  24E1               	addwf	fsr1l,w,c
 13693   002430  6ED9               	movwf	fsr2l,c
 13694   002432  0EFF               	movlw	255
 13695   002434  20E2               	addwfc	fsr1h,w,c
 13696   002436  6EDA               	movwf	fsr2h,c
 13697   002438  0E80               	movlw	128
 13698   00243A  12DE               	iorwf	postinc2,f,c
 13699   00243C  0E7F               	movlw	127
 13700   00243E  12DD               	iorwf	postdec2,f,c
 13701   002440                     l3494:
 13702                           
 13703                           ;stkvar	_sign @ sp[(-13)+12]
 13704   002440  0EFF               	movlw	-1
 13705   002442  CFE3 F00C          	movff	plusw1,btemp+11
 13706                           
 13707                           ;stkvar	_b @ sp[(-13)+-4]
 13708   002446  0EF2               	movlw	242
 13709   002448  24E1               	addwf	fsr1l,w,c
 13710   00244A  6ED9               	movwf	fsr2l,c
 13711   00244C  0EFF               	movlw	255
 13712   00244E  20E2               	addwfc	fsr1h,w,c
 13713   002450  6EDA               	movwf	fsr2h,c
 13714   002452  500C               	movf	(btemp+11)^0,w,c
 13715   002454  12DF               	iorwf	indf2,f,c
 13716   002456                     
 13717                           ;stkvar	_b @ sp[(-13)+-4]
 13718   002456  0EEF               	movlw	-17
 13719   002458  CFE3 F001          	movff	plusw1,btemp
 13720   00245C  0EF0               	movlw	-16
 13721   00245E  CFE3 F002          	movff	plusw1,btemp+1
 13722   002462  0EF1               	movlw	-15
 13723   002464  CFE3 F003          	movff	plusw1,btemp+2
 13724   002468  0EF2               	movlw	-14
 13725   00246A  CFE3 F004          	movff	plusw1,btemp+3
 13726   00246E  EF22  F014         	goto	l985
 13727   002472                     l3500:
 13728                           
 13729                           ;stkvar	_bexp @ sp[(-13)+11]
 13730   002472  0EFE               	movlw	-2
 13731   002474  50E3               	movf	plusw1,w,c
 13732   002476  A4D8               	btfss	status,2,c
 13733   002478  EF40  F012         	goto	u3121
 13734   00247C  EF42  F012         	goto	u3120
 13735   002480                     u3121:
 13736   002480  EF4C  F012         	goto	l3508
 13737   002484                     u3120:
 13738   002484  0E00               	movlw	0
 13739   002486  6E01               	movwf	btemp^0,c
 13740   002488  0E00               	movlw	0
 13741   00248A  6E02               	movwf	(btemp+1)^0,c
 13742   00248C  0E00               	movlw	0
 13743   00248E  6E03               	movwf	(btemp+2)^0,c
 13744   002490  0E00               	movlw	0
 13745   002492  6E04               	movwf	(btemp+3)^0,c
 13746   002494  EF22  F014         	goto	l985
 13747   002498                     l3508:
 13748                           
 13749                           ;stkvar	_bexp @ sp[(-13)+11]
 13750   002498  0EFE               	movlw	-2
 13751   00249A  50E3               	movf	plusw1,w,c
 13752   00249C  6E0B               	movwf	(btemp+10)^0,c
 13753   00249E  6A0C               	clrf	(btemp+11)^0,c
 13754                           
 13755                           ;stkvar	_aexp @ sp[(-13)+10]
 13756   0024A0  0EFD               	movlw	-3
 13757   0024A2  50E3               	movf	plusw1,w,c
 13758   0024A4  5E0B               	subwf	(btemp+10)^0,f,c
 13759   0024A6  0E00               	movlw	0
 13760   0024A8  5A0C               	subwfb	(btemp+11)^0,f,c
 13761   0024AA  0E7F               	movlw	127
 13762   0024AC  260B               	addwf	(btemp+10)^0,f,c
 13763   0024AE  0E00               	movlw	0
 13764   0024B0  220C               	addwfc	(btemp+11)^0,f,c
 13765                           
 13766                           ;stkvar	_new_exp @ sp[(-13)+8]
 13767   0024B2  0EFB               	movlw	-5
 13768   0024B4  C00B  FFE3         	movff	btemp+10,plusw1
 13769   0024B8  0EFC               	movlw	-4
 13770   0024BA  C00C  FFE3         	movff	btemp+11,plusw1
 13771   0024BE                     
 13772                           ;stkvar	_b @ sp[(-13)+-4]
 13773   0024BE  0EEF               	movlw	-17
 13774   0024C0  CFE3 F009          	movff	plusw1,btemp+8
 13775   0024C4  0EF0               	movlw	-16
 13776   0024C6  CFE3 F00A          	movff	plusw1,btemp+9
 13777   0024CA  0EF1               	movlw	-15
 13778   0024CC  CFE3 F00B          	movff	plusw1,btemp+10
 13779   0024D0  0EF2               	movlw	-14
 13780   0024D2  CFE3 F00C          	movff	plusw1,btemp+11
 13781                           
 13782                           ;stkvar	_rem @ sp[(-13)+4]
 13783   0024D6  0EF7               	movlw	-9
 13784   0024D8  C009  FFE3         	movff	btemp+8,plusw1
 13785   0024DC  0EF8               	movlw	-8
 13786   0024DE  C00A  FFE3         	movff	btemp+9,plusw1
 13787   0024E2  0EF9               	movlw	-7
 13788   0024E4  C00B  FFE3         	movff	btemp+10,plusw1
 13789   0024E8  0EFA               	movlw	-6
 13790   0024EA  C00C  FFE3         	movff	btemp+11,plusw1
 13791   0024EE                     
 13792                           ;stkvar	_b @ sp[(-13)+-4]
 13793   0024EE  0EEF               	movlw	-17
 13794   0024F0  6AE3               	clrf	plusw1,c
 13795   0024F2  0EF0               	movlw	-16
 13796   0024F4  6AE3               	clrf	plusw1,c
 13797   0024F6  0EF1               	movlw	-15
 13798   0024F8  6AE3               	clrf	plusw1,c
 13799   0024FA  0EF2               	movlw	-14
 13800   0024FC  6AE3               	clrf	plusw1,c
 13801   0024FE                     
 13802                           ;stkvar	_grs @ sp[(-13)+0]
 13803   0024FE  0EF3               	movlw	-13
 13804   002500  6AE3               	clrf	plusw1,c
 13805   002502  0EF4               	movlw	-12
 13806   002504  6AE3               	clrf	plusw1,c
 13807   002506  0EF5               	movlw	-11
 13808   002508  6AE3               	clrf	plusw1,c
 13809   00250A  0EF6               	movlw	-10
 13810   00250C  6AE3               	clrf	plusw1,c
 13811   00250E                     
 13812                           ;stkvar	_aexp @ sp[(-13)+10]
 13813   00250E  0EFD               	movlw	-3
 13814   002510  6AE3               	clrf	plusw1,c
 13815   002512  EFEA  F012         	goto	l3536
 13816   002516                     l3518:
 13817                           
 13818                           ;stkvar	_aexp @ sp[(-13)+10]
 13819   002516  0EFD               	movlw	-3
 13820   002518  50E3               	movf	plusw1,w,c
 13821   00251A  B4D8               	btfsc	status,2,c
 13822   00251C  EF92  F012         	goto	u3131
 13823   002520  EF94  F012         	goto	u3130
 13824   002524                     u3131:
 13825   002524  EFB9  F012         	goto	l3528
 13826   002528                     u3130:
 13827   002528                     
 13828                           ;stkvar	_rem @ sp[(-13)+4]
 13829   002528  90D8               	bcf	status,0,c
 13830   00252A  0EF7               	movlw	-9
 13831   00252C  36E3               	rlcf	plusw1,f,c
 13832   00252E  0EF8               	movlw	-8
 13833   002530  36E3               	rlcf	plusw1,f,c
 13834   002532  0EF9               	movlw	-7
 13835   002534  36E3               	rlcf	plusw1,f,c
 13836   002536  0EFA               	movlw	-6
 13837   002538  36E3               	rlcf	plusw1,f,c
 13838                           
 13839                           ;stkvar	_b @ sp[(-13)+-4]
 13840   00253A  90D8               	bcf	status,0,c
 13841   00253C  0EEF               	movlw	-17
 13842   00253E  36E3               	rlcf	plusw1,f,c
 13843   002540  0EF0               	movlw	-16
 13844   002542  36E3               	rlcf	plusw1,f,c
 13845   002544  0EF1               	movlw	-15
 13846   002546  36E3               	rlcf	plusw1,f,c
 13847   002548  0EF2               	movlw	-14
 13848   00254A  36E3               	rlcf	plusw1,f,c
 13849   00254C                     
 13850                           ;stkvar	_grs @ sp[(-13)+0]
 13851   00254C  0EF6               	movlw	-10
 13852   00254E  AEE3               	btfss	plusw1,7,c
 13853   002550  EFAC  F012         	goto	u3141
 13854   002554  EFAE  F012         	goto	u3140
 13855   002558                     u3141:
 13856   002558  EFB0  F012         	goto	l3526
 13857   00255C                     u3140:
 13858   00255C                     
 13859                           ;stkvar	_b @ sp[(-13)+-4]
 13860   00255C  0EEF               	movlw	-17
 13861   00255E  80E3               	bsf	plusw1,0,c
 13862   002560                     l3526:
 13863                           
 13864                           ;stkvar	_grs @ sp[(-13)+0]
 13865   002560  90D8               	bcf	status,0,c
 13866   002562  0EF3               	movlw	-13
 13867   002564  36E3               	rlcf	plusw1,f,c
 13868   002566  0EF4               	movlw	-12
 13869   002568  36E3               	rlcf	plusw1,f,c
 13870   00256A  0EF5               	movlw	-11
 13871   00256C  36E3               	rlcf	plusw1,f,c
 13872   00256E  0EF6               	movlw	-10
 13873   002570  36E3               	rlcf	plusw1,f,c
 13874   002572                     l3528:
 13875                           
 13876                           ;stkvar	_a @ sp[(-13)+-8]
 13877                           ;stkvar	_rem @ sp[(-13)+4]
 13878   002572  50E1               	movf	fsr1l,w,c
 13879   002574  0FF7               	addlw	-9
 13880   002576  6ED9               	movwf	fsr2l,c
 13881   002578  50E2               	movf	fsr1h,w,c
 13882   00257A  6EDA               	movwf	fsr2h,c
 13883   00257C  0EFF               	movlw	255
 13884   00257E  22DA               	addwfc	fsr2h,f,c
 13885   002580  0EEB               	movlw	-21
 13886   002582  50E3               	movf	plusw1,w,c
 13887   002584  5CDE               	subwf	postinc2,w,c
 13888   002586  0EEC               	movlw	-20
 13889   002588  50E3               	movf	plusw1,w,c
 13890   00258A  58DE               	subwfb	postinc2,w,c
 13891   00258C  0EED               	movlw	-19
 13892   00258E  50E3               	movf	plusw1,w,c
 13893   002590  58DE               	subwfb	postinc2,w,c
 13894   002592  0EEE               	movlw	-18
 13895   002594  50E3               	movf	plusw1,w,c
 13896   002596  58DE               	subwfb	postinc2,w,c
 13897   002598  A0D8               	btfss	status,0,c
 13898   00259A  EFD1  F012         	goto	u3151
 13899   00259E  EFD3  F012         	goto	u3150
 13900   0025A2                     u3151:
 13901   0025A2  EFE8  F012         	goto	l3534
 13902   0025A6                     u3150:
 13903   0025A6                     
 13904                           ;stkvar	_grs @ sp[(-13)+0]
 13905   0025A6  0EF6               	movlw	-10
 13906   0025A8  8CE3               	bsf	plusw1,6,c
 13907   0025AA                     
 13908                           ;stkvar	_a @ sp[(-13)+-8]
 13909                           ;stkvar	_rem @ sp[(-13)+4]
 13910   0025AA  50E1               	movf	fsr1l,w,c
 13911   0025AC  0FF7               	addlw	-9
 13912   0025AE  6ED9               	movwf	fsr2l,c
 13913   0025B0  50E2               	movf	fsr1h,w,c
 13914   0025B2  6EDA               	movwf	fsr2h,c
 13915   0025B4  0EFF               	movlw	255
 13916   0025B6  22DA               	addwfc	fsr2h,f,c
 13917   0025B8  0EEB               	movlw	-21
 13918   0025BA  50E3               	movf	plusw1,w,c
 13919   0025BC  5EDE               	subwf	postinc2,f,c
 13920   0025BE  0EEC               	movlw	-20
 13921   0025C0  50E3               	movf	plusw1,w,c
 13922   0025C2  5ADE               	subwfb	postinc2,f,c
 13923   0025C4  0EED               	movlw	-19
 13924   0025C6  50E3               	movf	plusw1,w,c
 13925   0025C8  5ADE               	subwfb	postinc2,f,c
 13926   0025CA  0EEE               	movlw	-18
 13927   0025CC  50E3               	movf	plusw1,w,c
 13928   0025CE  5ADE               	subwfb	postinc2,f,c
 13929   0025D0                     l3534:
 13930                           
 13931                           ;stkvar	_aexp @ sp[(-13)+10]
 13932   0025D0  0EFD               	movlw	-3
 13933   0025D2  2AE3               	incf	plusw1,f,c
 13934   0025D4                     l3536:
 13935                           
 13936                           ;stkvar	_aexp @ sp[(-13)+10]
 13937   0025D4  0EFD               	movlw	-3
 13938   0025D6  CFE3 F001          	movff	plusw1,btemp
 13939   0025DA  0E19               	movlw	25
 13940   0025DC  6401               	cpfsgt	btemp^0,c
 13941   0025DE  EFF3  F012         	goto	u3161
 13942   0025E2  EFF5  F012         	goto	u3160
 13943   0025E6                     u3161:
 13944   0025E6  EF8B  F012         	goto	l3518
 13945   0025EA                     u3160:
 13946   0025EA                     
 13947                           ;stkvar	_rem @ sp[(-13)+4]
 13948   0025EA  0EF7               	movlw	-9
 13949   0025EC  50E3               	movf	plusw1,w,c
 13950   0025EE  E10F               	bnz	u3170
 13951   0025F0  0EF8               	movlw	-8
 13952   0025F2  50E3               	movf	plusw1,w,c
 13953   0025F4  E10C               	bnz	u3170
 13954   0025F6  0EF9               	movlw	-7
 13955   0025F8  50E3               	movf	plusw1,w,c
 13956   0025FA  E109               	bnz	u3170
 13957   0025FC  0EFA               	movlw	-6
 13958   0025FE  50E3               	movf	plusw1,w,c
 13959   002600  B4D8               	btfsc	status,2,c
 13960   002602  EF05  F013         	goto	u3171
 13961   002606  EF07  F013         	goto	u3170
 13962   00260A                     u3171:
 13963   00260A  EF31  F013         	goto	l3552
 13964   00260E                     u3170:
 13965   00260E                     
 13966                           ;stkvar	_grs @ sp[(-13)+0]
 13967   00260E  0EF3               	movlw	-13
 13968   002610  80E3               	bsf	plusw1,0,c
 13969   002612  EF31  F013         	goto	l3552
 13970   002616                     l3542:
 13971                           
 13972                           ;stkvar	_b @ sp[(-13)+-4]
 13973   002616  90D8               	bcf	status,0,c
 13974   002618  0EEF               	movlw	-17
 13975   00261A  36E3               	rlcf	plusw1,f,c
 13976   00261C  0EF0               	movlw	-16
 13977   00261E  36E3               	rlcf	plusw1,f,c
 13978   002620  0EF1               	movlw	-15
 13979   002622  36E3               	rlcf	plusw1,f,c
 13980   002624  0EF2               	movlw	-14
 13981   002626  36E3               	rlcf	plusw1,f,c
 13982   002628                     
 13983                           ;stkvar	_grs @ sp[(-13)+0]
 13984   002628  0EF6               	movlw	-10
 13985   00262A  AEE3               	btfss	plusw1,7,c
 13986   00262C  EF1A  F013         	goto	u3181
 13987   002630  EF1C  F013         	goto	u3180
 13988   002634                     u3181:
 13989   002634  EF1E  F013         	goto	l3548
 13990   002638                     u3180:
 13991   002638                     
 13992                           ;stkvar	_b @ sp[(-13)+-4]
 13993   002638  0EEF               	movlw	-17
 13994   00263A  80E3               	bsf	plusw1,0,c
 13995   00263C                     l3548:
 13996                           
 13997                           ;stkvar	_grs @ sp[(-13)+0]
 13998   00263C  90D8               	bcf	status,0,c
 13999   00263E  0EF3               	movlw	-13
 14000   002640  36E3               	rlcf	plusw1,f,c
 14001   002642  0EF4               	movlw	-12
 14002   002644  36E3               	rlcf	plusw1,f,c
 14003   002646  0EF5               	movlw	-11
 14004   002648  36E3               	rlcf	plusw1,f,c
 14005   00264A  0EF6               	movlw	-10
 14006   00264C  36E3               	rlcf	plusw1,f,c
 14007   00264E                     
 14008                           ;stkvar	_new_exp @ sp[(-13)+8]
 14009   00264E  50E1               	movf	fsr1l,w,c
 14010   002650  0FFB               	addlw	-5
 14011   002652  6ED9               	movwf	fsr2l,c
 14012   002654  50E2               	movf	fsr1h,w,c
 14013   002656  6EDA               	movwf	fsr2h,c
 14014   002658  0EFF               	movlw	255
 14015   00265A  22DA               	addwfc	fsr2h,f,c
 14016   00265C  06DE               	decf	postinc2,f,c
 14017   00265E  0E00               	movlw	0
 14018   002660  5ADD               	subwfb	postdec2,f,c
 14019   002662                     l3552:
 14020                           
 14021                           ;stkvar	_b @ sp[(-13)+-4]
 14022   002662  0EF1               	movlw	-15
 14023   002664  AEE3               	btfss	plusw1,7,c
 14024   002666  EF37  F013         	goto	u3191
 14025   00266A  EF39  F013         	goto	u3190
 14026   00266E                     u3191:
 14027   00266E  EF0B  F013         	goto	l3542
 14028   002672                     u3190:
 14029   002672                     
 14030                           ;stkvar	_aexp @ sp[(-13)+10]
 14031   002672  0EFD               	movlw	-3
 14032   002674  6AE3               	clrf	plusw1,c
 14033   002676                     
 14034                           ;stkvar	_grs @ sp[(-13)+0]
 14035   002676  0EF6               	movlw	-10
 14036   002678  AEE3               	btfss	plusw1,7,c
 14037   00267A  EF41  F013         	goto	u3201
 14038   00267E  EF43  F013         	goto	u3200
 14039   002682                     u3201:
 14040   002682  EF70  F013         	goto	l3566
 14041   002686                     u3200:
 14042   002686                     
 14043                           ;stkvar	_grs @ sp[(-13)+0]
 14044   002686  50E1               	movf	fsr1l,w,c
 14045   002688  0FF3               	addlw	-13
 14046   00268A  6ED9               	movwf	fsr2l,c
 14047   00268C  50E2               	movf	fsr1h,w,c
 14048   00268E  6EDA               	movwf	fsr2h,c
 14049   002690  0EFF               	movlw	255
 14050   002692  22DA               	addwfc	fsr2h,f,c
 14051   002694  0EFF               	movlw	255
 14052   002696  14DE               	andwf	postinc2,w,c
 14053   002698  6E09               	movwf	(btemp+8)^0,c
 14054   00269A  0EFF               	movlw	255
 14055   00269C  14DE               	andwf	postinc2,w,c
 14056   00269E  6E0A               	movwf	(btemp+9)^0,c
 14057   0026A0  0EFF               	movlw	255
 14058   0026A2  14DE               	andwf	postinc2,w,c
 14059   0026A4  6E0B               	movwf	(btemp+10)^0,c
 14060   0026A6  0E7F               	movlw	127
 14061   0026A8  14DE               	andwf	postinc2,w,c
 14062   0026AA  6E0C               	movwf	(btemp+11)^0,c
 14063   0026AC  5009               	movf	(btemp+8)^0,w,c
 14064   0026AE  100A               	iorwf	(btemp+9)^0,w,c
 14065   0026B0  100B               	iorwf	(btemp+10)^0,w,c
 14066   0026B2  100C               	iorwf	(btemp+11)^0,w,c
 14067   0026B4  B4D8               	btfsc	status,2,c
 14068   0026B6  EF5F  F013         	goto	u3211
 14069   0026BA  EF61  F013         	goto	u3210
 14070   0026BE                     u3211:
 14071   0026BE  EF66  F013         	goto	l3562
 14072   0026C2                     u3210:
 14073   0026C2                     l3560:
 14074                           
 14075                           ;stkvar	_aexp @ sp[(-13)+10]
 14076   0026C2  0EFD               	movlw	-3
 14077   0026C4  6AE3               	clrf	plusw1,c
 14078   0026C6  2AE3               	incf	plusw1,f,c
 14079   0026C8  EF70  F013         	goto	l3566
 14080   0026CC                     l3562:
 14081                           
 14082                           ;stkvar	_b @ sp[(-13)+-4]
 14083   0026CC  0EEF               	movlw	-17
 14084   0026CE  A0E3               	btfss	plusw1,0,c
 14085   0026D0  EF6C  F013         	goto	u3221
 14086   0026D4  EF6E  F013         	goto	u3220
 14087   0026D8                     u3221:
 14088   0026D8  EF70  F013         	goto	l3566
 14089   0026DC                     u3220:
 14090   0026DC  EF61  F013         	goto	l3560
 14091   0026E0                     l3566:
 14092                           
 14093                           ;stkvar	_aexp @ sp[(-13)+10]
 14094   0026E0  0EFD               	movlw	-3
 14095   0026E2  50E3               	movf	plusw1,w,c
 14096   0026E4  B4D8               	btfsc	status,2,c
 14097   0026E6  EF77  F013         	goto	u3231
 14098   0026EA  EF79  F013         	goto	u3230
 14099   0026EE                     u3231:
 14100   0026EE  EFB4  F013         	goto	l3576
 14101   0026F2                     u3230:
 14102   0026F2                     
 14103                           ;stkvar	_b @ sp[(-13)+-4]
 14104   0026F2  50E1               	movf	fsr1l,w,c
 14105   0026F4  0FEF               	addlw	-17
 14106   0026F6  6ED9               	movwf	fsr2l,c
 14107   0026F8  50E2               	movf	fsr1h,w,c
 14108   0026FA  6EDA               	movwf	fsr2h,c
 14109   0026FC  0EFF               	movlw	255
 14110   0026FE  22DA               	addwfc	fsr2h,f,c
 14111   002700  2ADE               	incf	postinc2,f,c
 14112   002702  0E00               	movlw	0
 14113   002704  22DE               	addwfc	postinc2,f,c
 14114   002706  22DE               	addwfc	postinc2,f,c
 14115   002708  22DE               	addwfc	postinc2,f,c
 14116   00270A                     
 14117                           ;stkvar	_b @ sp[(-13)+-4]
 14118   00270A  0EF2               	movlw	-14
 14119   00270C  A0E3               	btfss	plusw1,0,c
 14120   00270E  EF8B  F013         	goto	u3241
 14121   002712  EF8D  F013         	goto	u3240
 14122   002716                     u3241:
 14123   002716  EFB4  F013         	goto	l3576
 14124   00271A                     u3240:
 14125   00271A  0E01               	movlw	1
 14126   00271C  6E0C               	movwf	(btemp+11)^0,c
 14127                           
 14128                           ;stkvar	_b @ sp[(-13)+-4]
 14129   00271E  50E1               	movf	fsr1l,w,c
 14130   002720  0FEF               	addlw	-17
 14131   002722  6ED9               	movwf	fsr2l,c
 14132   002724  50E2               	movf	fsr1h,w,c
 14133   002726  6EDA               	movwf	fsr2h,c
 14134   002728  0EFF               	movlw	255
 14135   00272A  22DA               	addwfc	fsr2h,f,c
 14136   00272C  280C               	incf	(btemp+11)^0,w,c
 14137   00272E  52DE               	movf	postinc2,f,c
 14138   002730  EFA2  F013         	goto	u3250
 14139   002734                     u3255:
 14140   002734  52DE               	movf	postinc2,f,c
 14141   002736  90D8               	bcf	status,0,c
 14142   002738  BEDC               	btfsc	preinc2,7,c
 14143   00273A  80D8               	bsf	status,0,c
 14144   00273C  32DD               	rrcf	postdec2,f,c
 14145   00273E  32DD               	rrcf	postdec2,f,c
 14146   002740  32DD               	rrcf	postdec2,f,c
 14147   002742  32DE               	rrcf	postinc2,f,c
 14148   002744                     u3250:
 14149   002744  2EE8               	decfsz	wreg,f,c
 14150   002746  EF9A  F013         	goto	u3255
 14151   00274A                     
 14152                           ;stkvar	_new_exp @ sp[(-13)+8]
 14153   00274A  0EFB               	movlw	-5
 14154   00274C  50E3               	movf	plusw1,w,c
 14155   00274E  0F01               	addlw	1
 14156   002750  6E01               	movwf	btemp^0,c
 14157   002752  0EFB               	movlw	-5
 14158   002754  C001  FFE3         	movff	btemp,plusw1
 14159   002758  6A01               	clrf	btemp^0,c
 14160   00275A  0EFC               	movlw	-4
 14161   00275C  50E3               	movf	plusw1,w,c
 14162   00275E  2001               	addwfc	btemp^0,w,c
 14163   002760  6E01               	movwf	btemp^0,c
 14164   002762  0EFC               	movlw	-4
 14165   002764  C001  FFE3         	movff	btemp,plusw1
 14166   002768                     l3576:
 14167                           
 14168                           ;stkvar	_new_exp @ sp[(-13)+8]
 14169   002768  0EFC               	movlw	-4
 14170   00276A  BEE3               	btfsc	plusw1,7,c
 14171   00276C  EFC2  F013         	goto	u3261
 14172   002770  0EFC               	movlw	-4
 14173   002772  50E3               	movf	plusw1,w,c
 14174   002774  E109               	bnz	u3260
 14175   002776  0EFB               	movlw	-5
 14176   002778  28E3               	incf	plusw1,w,c
 14177   00277A  A0D8               	btfss	status,0,c
 14178   00277C  EFC2  F013         	goto	u3261
 14179   002780  EFC4  F013         	goto	u3260
 14180   002784                     u3261:
 14181   002784  EFD6  F013         	goto	l3582
 14182   002788                     u3260:
 14183   002788  0EFF               	movlw	255
 14184   00278A  6E0B               	movwf	(btemp+10)^0,c
 14185   00278C  0E00               	movlw	0
 14186   00278E  6E0C               	movwf	(btemp+11)^0,c
 14187                           
 14188                           ;stkvar	_new_exp @ sp[(-13)+8]
 14189   002790  0EFB               	movlw	-5
 14190   002792  C00B  FFE3         	movff	btemp+10,plusw1
 14191   002796  0EFC               	movlw	-4
 14192   002798  C00C  FFE3         	movff	btemp+11,plusw1
 14193   00279C                     
 14194                           ;stkvar	_b @ sp[(-13)+-4]
 14195   00279C  0EEF               	movlw	-17
 14196   00279E  6AE3               	clrf	plusw1,c
 14197   0027A0  0EF0               	movlw	-16
 14198   0027A2  6AE3               	clrf	plusw1,c
 14199   0027A4  0EF1               	movlw	-15
 14200   0027A6  6AE3               	clrf	plusw1,c
 14201   0027A8  0EF2               	movlw	-14
 14202   0027AA  6AE3               	clrf	plusw1,c
 14203   0027AC                     l3582:
 14204                           
 14205                           ;stkvar	_new_exp @ sp[(-13)+8]
 14206   0027AC  0EFC               	movlw	-4
 14207   0027AE  BEE3               	btfsc	plusw1,7,c
 14208   0027B0  EFE6  F013         	goto	u3270
 14209   0027B4  0EFC               	movlw	-4
 14210   0027B6  50E3               	movf	plusw1,w,c
 14211   0027B8  E107               	bnz	u3271
 14212   0027BA  0EFB               	movlw	-5
 14213   0027BC  04E3               	decf	plusw1,w,c
 14214   0027BE  B0D8               	btfsc	status,0,c
 14215   0027C0  EFE4  F013         	goto	u3271
 14216   0027C4  EFE6  F013         	goto	u3270
 14217   0027C8                     u3271:
 14218   0027C8  EFF4  F013         	goto	l3588
 14219   0027CC                     u3270:
 14220   0027CC                     
 14221                           ;stkvar	_new_exp @ sp[(-13)+8]
 14222   0027CC  0EFB               	movlw	-5
 14223   0027CE  6AE3               	clrf	plusw1,c
 14224   0027D0  0EFC               	movlw	-4
 14225   0027D2  6AE3               	clrf	plusw1,c
 14226                           
 14227                           ;stkvar	_b @ sp[(-13)+-4]
 14228   0027D4  0EEF               	movlw	-17
 14229   0027D6  6AE3               	clrf	plusw1,c
 14230   0027D8  0EF0               	movlw	-16
 14231   0027DA  6AE3               	clrf	plusw1,c
 14232   0027DC  0EF1               	movlw	-15
 14233   0027DE  6AE3               	clrf	plusw1,c
 14234   0027E0  0EF2               	movlw	-14
 14235   0027E2  6AE3               	clrf	plusw1,c
 14236   0027E4                     
 14237                           ;stkvar	_sign @ sp[(-13)+12]
 14238   0027E4  0EFF               	movlw	-1
 14239   0027E6  6AE3               	clrf	plusw1,c
 14240   0027E8                     l3588:
 14241                           
 14242                           ;stkvar	_new_exp @ sp[(-13)+8]
 14243                           ;stkvar	_bexp @ sp[(-13)+11]
 14244   0027E8  0EFB               	movlw	-5
 14245   0027EA  CFE3 F001          	movff	plusw1,btemp
 14246   0027EE  0EFE               	movlw	-2
 14247   0027F0  C001  FFE3         	movff	btemp,plusw1
 14248   0027F4                     
 14249                           ;stkvar	_bexp @ sp[(-13)+11]
 14250   0027F4  0EFE               	movlw	-2
 14251   0027F6  A0E3               	btfss	plusw1,0,c
 14252   0027F8  EF00  F014         	goto	u3281
 14253   0027FC  EF02  F014         	goto	u3280
 14254   002800                     u3281:
 14255   002800  EF0C  F014         	goto	l3594
 14256   002804                     u3280:
 14257   002804                     
 14258                           ;stkvar	_b @ sp[(-13)+-4]
 14259   002804  0EF1               	movlw	241
 14260   002806  24E1               	addwf	fsr1l,w,c
 14261   002808  6ED9               	movwf	fsr2l,c
 14262   00280A  0EFF               	movlw	255
 14263   00280C  20E2               	addwfc	fsr1h,w,c
 14264   00280E  6EDA               	movwf	fsr2h,c
 14265   002810  0E00               	movlw	0
 14266   002812  8EDB               	bsf	plusw2,7,c
 14267   002814  EF14  F014         	goto	l3596
 14268   002818                     l3594:
 14269                           
 14270                           ;stkvar	_b @ sp[(-13)+-4]
 14271   002818  0EF1               	movlw	241
 14272   00281A  24E1               	addwf	fsr1l,w,c
 14273   00281C  6ED9               	movwf	fsr2l,c
 14274   00281E  0EFF               	movlw	255
 14275   002820  20E2               	addwfc	fsr1h,w,c
 14276   002822  6EDA               	movwf	fsr2h,c
 14277   002824  0E7F               	movlw	127
 14278   002826  16DF               	andwf	indf2,f,c
 14279   002828                     l3596:
 14280                           
 14281                           ;stkvar	_b @ sp[(-13)+-4]
 14282   002828  0EF2               	movlw	242
 14283   00282A  24E1               	addwf	fsr1l,w,c
 14284   00282C  6ED9               	movwf	fsr2l,c
 14285   00282E  0EFF               	movlw	255
 14286   002830  20E2               	addwfc	fsr1h,w,c
 14287   002832  6EDA               	movwf	fsr2h,c
 14288                           
 14289                           ;stkvar	_bexp @ sp[(-13)+11]
 14290   002834  0EFE               	movlw	-2
 14291   002836  CFE3 F00C          	movff	plusw1,btemp+11
 14292   00283A  90D8               	bcf	status,0,c
 14293   00283C  300C               	rrcf	(btemp+11)^0,w,c
 14294   00283E  6EDF               	movwf	indf2,c
 14295   002840  EF20  F012         	goto	l3494
 14296   002844                     l985:
 14297                           
 14298                           ; ___fldiv: autosize = 13, savesize = 0, parsavesize = 0, tempsize = 0 parsize = 8, args
      +                          ize = 8, vargsize = 0
 14299   002844  0EEB               	movlw	235
 14300   002846  26E1               	addwf	fsr1l,f,c
 14301   002848  0EFF               	movlw	255
 14302   00284A  22E2               	addwfc	fsr1h,f,c
 14303   00284C  0012               	return		;funcret
 14304   00284E                     __end_of___fldiv:
 14305                           	callstack 0
 14306                           
 14307 ;; *************** function _bsp_set_timeout *****************
 14308 ;; Defined at:
 14309 ;;		line 68 in file "bsp.c"
 14310 ;; Parameters:    Size  Location     Type
 14311 ;;  timeout_in      4  [STACK] long 
 14312 ;; Auto vars:     Size  Location     Type
 14313 ;;		None
 14314 ;; Return value:  Size  Location     Type
 14315 ;;                  1  [STACK] void 
 14316 ;; Registers used:
 14317 ;;		wreg, fsr1l, fsr1h, fsr2l, fsr2h
 14318 ;; Tracked objects:
 14319 ;;		On entry : 0/F
 14320 ;;		On exit  : 3F/F
 14321 ;;		Unchanged: 0/0
 14322 ;; Data sizes:     COMRAM   BANK0   BANK1   BANK2   BANK3   BANK4   BANK5   BANK6   BANK7   BANK8   BANK9  BANK10  BANK1
      +1  BANK12  BANK13  BANK14  BANK15
 14323 ;;      Params:         0       0       0       0       0       0       0       0       0       0       0       0       
      +0       0       0       0       0
 14324 ;;      Locals:         0       0       0       0       0       0       0       0       0       0       0       0       
      +0       0       0       0       0
 14325 ;;      Temps:          0       0       0       0       0       0       0       0       0       0       0       0       
      +0       0       0       0       0
 14326 ;;      Totals:         0       0       0       0       0       0       0       0       0       0       0       0       
      +0       0       0       0       0
 14327 ;;Total ram usage:        0 bytes
 14328 ;; Hardware stack levels used: 1
 14329 ;; Hardware stack levels required when called: 7
 14330 ;; This function calls:
 14331 ;;		Nothing
 14332 ;; This function is called by:
 14333 ;;		_init
 14334 ;;		_state2
 14335 ;; This function uses a reentrant model
 14336 ;;
 14337                           
 14338                           	psect	text48
 14339   00532E                     __ptext48:
 14340                           	callstack 0
 14341   00532E                     _bsp_set_timeout:
 14342                           	callstack 0
 14343   00532E                     
 14344                           ;bsp.c: 69:     bsp_timeout = timeout_in;
 14345                           ;stkvar	_timeout_in @ sp[(0)+-4]
 14346   00532E  50E1               	movf	fsr1l,w,c
 14347   005330  0FFC               	addlw	-4
 14348   005332  6ED9               	movwf	fsr2l,c
 14349   005334  50E2               	movf	fsr1h,w,c
 14350   005336  6EDA               	movwf	fsr2h,c
 14351   005338  0EFF               	movlw	255
 14352   00533A  22DA               	addwfc	fsr2h,f,c
 14353   00533C  CFDE F031          	movff	postinc2,_bsp_timeout	;volatile
 14354   005340  CFDE F032          	movff	postinc2,_bsp_timeout+1	;volatile
 14355   005344  CFDE F033          	movff	postinc2,_bsp_timeout+2	;volatile
 14356   005348  CFDE F034          	movff	postinc2,_bsp_timeout+3	;volatile
 14357   00534C                     
 14358                           ;bsp.c: 70:     TMR6 = 0;
 14359   00534C  010F               	movlb	15	; () banked
 14360   00534E  6B4C               	clrf	76,b	;volatile
 14361   005350                     
 14362                           ; BSR set to: 15
 14363                           ;bsp.c: 71:     TMR6ON = 1;
 14364   005350  854A               	bsf	74,2,b	;volatile
 14365   005352                     
 14366                           ; BSR set to: 15
 14367                           ; _bsp_set_timeout: autosize = 0, savesize = 0, parsavesize = 0, tempsize = 0 parsize = 
      +                          4, argsize = 4, vargsize = 0
 14368   005352  52E5               	movf	postdec1,f,c
 14369   005354  52E5               	movf	postdec1,f,c
 14370   005356  52E5               	movf	postdec1,f,c
 14371   005358  52E5               	movf	postdec1,f,c
 14372   00535A  0012               	return		;funcret
 14373   00535C                     __end_of_bsp_set_timeout:
 14374                           	callstack 0
 14375                           
 14376 ;; *************** function _LCD_ShowString *****************
 14377 ;; Defined at:
 14378 ;;		line 58 in file "lcd.c"
 14379 ;; Parameters:    Size  Location     Type
 14380 ;;  lineNum         1  [STACK] unsigned char 
 14381 ;;  textData        2  [STACK] PTR unsigned char 
 14382 ;;		 -> str(17), STR_21(25), STR_17(23), STR_14(22), 
 14383 ;;		 -> STR_13(22), STR_10(22), STR_9(22), STR_7(22), 
 14384 ;;		 -> STR_6(22), STR_4(22), STR_3(21), STR_1(17), 
 14385 ;; Auto vars:     Size  Location     Type
 14386 ;;  i               1  [STACK] unsigned char 
 14387 ;; Return value:  Size  Location     Type
 14388 ;;                  1  [STACK] void 
 14389 ;; Registers used:
 14390 ;;		wreg, fsr0l, fsr0h, fsr1l, fsr1h, status,2, status,0, btemp, btemp+10, btemp+11, tblptrl, tblptrh, tblptru
 14391 ;; Tracked objects:
 14392 ;;		On entry : 0/F
 14393 ;;		On exit  : 0/0
 14394 ;;		Unchanged: 0/0
 14395 ;; Data sizes:     COMRAM   BANK0   BANK1   BANK2   BANK3   BANK4   BANK5   BANK6   BANK7   BANK8   BANK9  BANK10  BANK1
      +1  BANK12  BANK13  BANK14  BANK15
 14396 ;;      Params:         0       0       0       0       0       0       0       0       0       0       0       0       
      +0       0       0       0       0
 14397 ;;      Locals:         0       0       0       0       0       0       0       0       0       0       0       0       
      +0       0       0       0       0
 14398 ;;      Temps:          0       0       0       0       0       0       0       0       0       0       0       0       
      +0       0       0       0       0
 14399 ;;      Totals:         0       0       0       0       0       0       0       0       0       0       0       0       
      +0       0       0       0       0
 14400 ;;Total ram usage:        0 bytes
 14401 ;; Hardware stack levels used: 1
 14402 ;; Hardware stack levels required when called: 8
 14403 ;; This function calls:
 14404 ;;		_LCD_Send
 14405 ;; This function is called by:
 14406 ;;		_init
 14407 ;;		_state1
 14408 ;;		_state2
 14409 ;;		_state3
 14410 ;;		_state4
 14411 ;;		_uart_state
 14412 ;;		_pot_state
 14413 ;; This function uses a reentrant model
 14414 ;;
 14415                           
 14416                           	psect	text49
 14417   0043B8                     __ptext49:
 14418                           	callstack 0
 14419   0043B8                     _LCD_ShowString:
 14420                           	callstack 0
 14421                           
 14422                           ; BSR set to: 15
 14423                           ; autosize = 1, savesize = 0, parsavesize = 0, tempsize = 0 parsize = 3, argsize = 3 var
      +                          gsize = 0, retsize = 0 argfudge = 0
 14424   0043B8  52E6               	movf	postinc1,f,c
 14425   0043BA                     
 14426                           ;lcd.c: 63:     SSP2CON2bits.SEN = 1;
 14427   0043BA  806B               	bsf	107,0,c	;volatile
 14428   0043BC                     l95:
 14429   0043BC  B06B               	btfsc	107,0,c	;volatile
 14430   0043BE  EFE3  F021         	goto	u4471
 14431   0043C2  EFE5  F021         	goto	u4470
 14432   0043C6                     u4471:
 14433   0043C6  EFDE  F021         	goto	l95
 14434   0043CA                     u4470:
 14435   0043CA                     
 14436                           ;lcd.c: 65:     SSP2IF = 0;
 14437   0043CA  9EA4               	bcf	4004,7,c	;volatile
 14438   0043CC                     
 14439                           ;lcd.c: 67:     LCD_Send(0x7c);
 14440   0043CC  0E7C               	movlw	124
 14441   0043CE  6EE6               	movwf	postinc1,c
 14442   0043D0  ECAE  F029         	call	_LCD_Send	;wreg free
 14443                           
 14444                           ;lcd.c: 69:     LCD_Send(0x80);
 14445   0043D4  0E80               	movlw	128
 14446   0043D6  6EE6               	movwf	postinc1,c
 14447   0043D8  ECAE  F029         	call	_LCD_Send	;wreg free
 14448   0043DC                     
 14449                           ;lcd.c: 71:     if(lineNum == 1){
 14450                           ;stkvar	_lineNum @ sp[(-1)+-1]
 14451   0043DC  0EFE               	movlw	-2
 14452   0043DE  04E3               	decf	plusw1,w,c
 14453   0043E0  A4D8               	btfss	status,2,c
 14454   0043E2  EFF5  F021         	goto	u4481
 14455   0043E6  EFF7  F021         	goto	u4480
 14456   0043EA                     u4481:
 14457   0043EA  EFFD  F021         	goto	l4394
 14458   0043EE                     u4480:
 14459   0043EE                     
 14460                           ;lcd.c: 72:         LCD_Send(0x80);
 14461   0043EE  0E80               	movlw	128
 14462   0043F0  6EE6               	movwf	postinc1,c
 14463   0043F2  ECAE  F029         	call	_LCD_Send	;wreg free
 14464                           
 14465                           ;lcd.c: 73:     }
 14466   0043F6  EF0D  F022         	goto	l99
 14467   0043FA                     l4394:
 14468                           
 14469                           ;stkvar	_lineNum @ sp[(-1)+-1]
 14470   0043FA  0EFE               	movlw	-2
 14471   0043FC  CFE3 F001          	movff	plusw1,btemp
 14472   004400  0E02               	movlw	2
 14473   004402  1801               	xorwf	btemp^0,w,c
 14474   004404  A4D8               	btfss	status,2,c
 14475   004406  EF07  F022         	goto	u4491
 14476   00440A  EF09  F022         	goto	u4490
 14477   00440E                     u4491:
 14478   00440E  EF0D  F022         	goto	l99
 14479   004412                     u4490:
 14480   004412                     
 14481                           ;lcd.c: 75:         LCD_Send(0xC0);
 14482   004412  0EC0               	movlw	192
 14483   004414  6EE6               	movwf	postinc1,c
 14484   004416  ECAE  F029         	call	_LCD_Send	;wreg free
 14485   00441A                     l99:
 14486                           
 14487                           ;lcd.c: 78:     LCD_Send(0x40);
 14488   00441A  0E40               	movlw	64
 14489   00441C  6EE6               	movwf	postinc1,c
 14490   00441E  ECAE  F029         	call	_LCD_Send	;wreg free
 14491   004422                     
 14492                           ;lcd.c: 80:     for (i = 0; i<16; i++){
 14493                           ;stkvar	_i @ sp[(-1)+0]
 14494   004422  0EFF               	movlw	-1
 14495   004424  6AE3               	clrf	plusw1,c
 14496   004426                     l4404:
 14497                           
 14498                           ;lcd.c: 81:         LCD_Send(textData[i]);
 14499                           ;stkvar	_i @ sp[(-1)+0]
 14500   004426  0EFF               	movlw	-1
 14501   004428  50E3               	movf	plusw1,w,c
 14502   00442A  6E0B               	movwf	(btemp+10)^0,c
 14503   00442C  6A0C               	clrf	(btemp+11)^0,c
 14504                           
 14505                           ;stkvar	_textData @ sp[(-1)+-3]
 14506   00442E  0EFC               	movlw	-4
 14507   004430  50E3               	movf	plusw1,w,c
 14508   004432  260B               	addwf	(btemp+10)^0,f,c
 14509   004434  0EFD               	movlw	-3
 14510   004436  50E3               	movf	plusw1,w,c
 14511   004438  220C               	addwfc	(btemp+11)^0,f,c
 14512   00443A  C00B  FFF6         	movff	btemp+10,tblptrl
 14513   00443E  C00C  FFF7         	movff	btemp+11,tblptrh
 14514   004442  0E00               	movlw	low (__mediumconst shr (0+16))
 14515   004444  6EF8               	movwf	tblptru,c
 14516   004446  0E0F               	movlw	(high __ramtop+-1)
 14517   004448  64F7               	cpfsgt	tblptrh,c
 14518   00444A  D003               	bra	u4507
 14519   00444C  0008               	tblrd		*
 14520   00444E  50F5               	movf	tablat,w,c
 14521   004450  D005               	bra	u4500
 14522   004452                     u4507:
 14523   004452  CFF6 FFE9          	movff	tblptrl,fsr0l
 14524   004456  CFF7 FFEA          	movff	tblptrh,fsr0h
 14525   00445A  50EF               	movf	indf0,w,c
 14526   00445C                     u4500:
 14527   00445C  6EE6               	movwf	postinc1,c
 14528   00445E  ECAE  F029         	call	_LCD_Send	;wreg free
 14529   004462                     
 14530                           ;lcd.c: 82:     }
 14531                           ;stkvar	_i @ sp[(-1)+0]
 14532   004462  0EFF               	movlw	-1
 14533   004464  2AE3               	incf	plusw1,f,c
 14534   004466                     
 14535                           ;stkvar	_i @ sp[(-1)+0]
 14536   004466  0EFF               	movlw	-1
 14537   004468  CFE3 F001          	movff	plusw1,btemp
 14538   00446C  0E0F               	movlw	15
 14539   00446E  6401               	cpfsgt	btemp^0,c
 14540   004470  EF3C  F022         	goto	u4511
 14541   004474  EF3E  F022         	goto	u4510
 14542   004478                     u4511:
 14543   004478  EF13  F022         	goto	l4404
 14544   00447C                     u4510:
 14545   00447C                     
 14546                           ;lcd.c: 84:     SSP2CON2bits.PEN = 1;
 14547   00447C  846B               	bsf	107,2,c	;volatile
 14548   00447E                     l103:
 14549   00447E  B46B               	btfsc	107,2,c	;volatile
 14550   004480  EF44  F022         	goto	u4521
 14551   004484  EF46  F022         	goto	u4520
 14552   004488                     u4521:
 14553   004488  EF3F  F022         	goto	l103
 14554   00448C                     u4520:
 14555   00448C                     
 14556                           ; _LCD_ShowString: autosize = 1, savesize = 0, parsavesize = 0, tempsize = 0 parsize = 3
      +                          , argsize = 3, vargsize = 0
 14557   00448C  52E5               	movf	postdec1,f,c
 14558   00448E  52E5               	movf	postdec1,f,c
 14559   004490  52E5               	movf	postdec1,f,c
 14560   004492  52E5               	movf	postdec1,f,c
 14561   004494  0012               	return		;funcret
 14562   004496                     __end_of_LCD_ShowString:
 14563                           	callstack 0
 14564                           
 14565 ;; *************** function _LCD_Send *****************
 14566 ;; Defined at:
 14567 ;;		line 88 in file "lcd.c"
 14568 ;; Parameters:    Size  Location     Type
 14569 ;;  data            1  [STACK] unsigned char 
 14570 ;; Auto vars:     Size  Location     Type
 14571 ;;		None
 14572 ;; Return value:  Size  Location     Type
 14573 ;;                  1  [STACK] void 
 14574 ;; Registers used:
 14575 ;;		fsr1l, fsr1h
 14576 ;; Tracked objects:
 14577 ;;		On entry : 0/F
 14578 ;;		On exit  : 0/0
 14579 ;;		Unchanged: 0/0
 14580 ;; Data sizes:     COMRAM   BANK0   BANK1   BANK2   BANK3   BANK4   BANK5   BANK6   BANK7   BANK8   BANK9  BANK10  BANK1
      +1  BANK12  BANK13  BANK14  BANK15
 14581 ;;      Params:         0       0       0       0       0       0       0       0       0       0       0       0       
      +0       0       0       0       0
 14582 ;;      Locals:         0       0       0       0       0       0       0       0       0       0       0       0       
      +0       0       0       0       0
 14583 ;;      Temps:          0       0       0       0       0       0       0       0       0       0       0       0       
      +0       0       0       0       0
 14584 ;;      Totals:         0       0       0       0       0       0       0       0       0       0       0       0       
      +0       0       0       0       0
 14585 ;;Total ram usage:        0 bytes
 14586 ;; Hardware stack levels used: 1
 14587 ;; Hardware stack levels required when called: 7
 14588 ;; This function calls:
 14589 ;;		Nothing
 14590 ;; This function is called by:
 14591 ;;		_LCD_Init
 14592 ;;		_LCD_ShowString
 14593 ;;		_LCD_Clear
 14594 ;; This function uses a reentrant model
 14595 ;;
 14596                           
 14597                           	psect	text50
 14598   00535C                     __ptext50:
 14599                           	callstack 0
 14600   00535C                     _LCD_Send:
 14601                           	callstack 0
 14602   00535C                     
 14603                           ;lcd.c: 90:     SSP2BUF = data;
 14604                           ;stkvar	_data @ sp[(0)+-1]
 14605   00535C  0EFF               	movlw	-1
 14606   00535E  CFE3 FF6F          	movff	plusw1,3951	;volatile
 14607   005362                     l109:
 14608   005362  B06D               	btfsc	109,0,c	;volatile
 14609   005364  EFB6  F029         	goto	u4441
 14610   005368  EFB8  F029         	goto	u4440
 14611   00536C                     u4441:
 14612   00536C  EFB1  F029         	goto	l109
 14613   005370                     u4440:
 14614   005370                     l112:
 14615   005370  AEA4               	btfss	4004,7,c	;volatile
 14616   005372  EFBD  F029         	goto	u4451
 14617   005376  EFBF  F029         	goto	u4450
 14618   00537A                     u4451:
 14619   00537A  EFB8  F029         	goto	l112
 14620   00537E                     u4450:
 14621   00537E                     
 14622                           ;lcd.c: 93:     SSP2IF = 0;
 14623   00537E  9EA4               	bcf	4004,7,c	;volatile
 14624   005380                     
 14625                           ; _LCD_Send: autosize = 0, savesize = 0, parsavesize = 0, tempsize = 0 parsize = 1, args
      +                          ize = 1, vargsize = 0
 14626   005380  52E5               	movf	postdec1,f,c
 14627   005382  0012               	return		;funcret
 14628   005384                     __end_of_LCD_Send:
 14629                           	callstack 0
 14630                           
 14631 ;; *************** function _LOW_ISR *****************
 14632 ;; Defined at:
 14633 ;;		line 112 in file "bsp.c"
 14634 ;; Parameters:    Size  Location     Type
 14635 ;;		None
 14636 ;; Auto vars:     Size  Location     Type
 14637 ;;		None
 14638 ;; Return value:  Size  Location     Type
 14639 ;;                  1    wreg      void 
 14640 ;; Registers used:
 14641 ;;		wreg, fsr1l, fsr1h, fsr2l, fsr2h, status,2, status,0, btemp+8, btemp+9, btemp+10, btemp+11
 14642 ;; Tracked objects:
 14643 ;;		On entry : 0/0
 14644 ;;		On exit  : 0/0
 14645 ;;		Unchanged: 0/0
 14646 ;; Data sizes:     COMRAM   BANK0   BANK1   BANK2   BANK3   BANK4   BANK5   BANK6   BANK7   BANK8   BANK9  BANK10  BANK1
      +1  BANK12  BANK13  BANK14  BANK15
 14647 ;;      Params:         0       0       0       0       0       0       0       0       0       0       0       0       
      +0       0       0       0       0
 14648 ;;      Locals:         0       0       0       0       0       0       0       0       0       0       0       0       
      +0       0       0       0       0
 14649 ;;      Temps:          0      11       0       0       0       0       0       0       0       0       0       0       
      +0       0       0       0       0
 14650 ;;      Totals:         0      11       0       0       0       0       0       0       0       0       0       0       
      +0       0       0       0       0
 14651 ;;Total ram usage:       11 bytes
 14652 ;; Hardware stack levels used: 1
 14653 ;; Hardware stack levels required when called: 6
 14654 ;; This function calls:
 14655 ;;		_fsm_add_event
 14656 ;; This function is called by:
 14657 ;;		Interrupt level 1
 14658 ;; This function uses a non-reentrant model
 14659 ;;
 14660                           
 14661                           	psect	intcodelo
 14662   000018                     __pintcodelo:
 14663                           	callstack 0
 14664   000018                     _LOW_ISR:
 14665                           	callstack 0
 14666                           
 14667                           ;incstack = 0
 14668 ;; hardware stack exceeded
 14669   000018  CFD8 F0F3          	movff	status,??_LOW_ISR
 14670   00001C  CFE8 F0F4          	movff	wreg,??_LOW_ISR+1
 14671   000020  CFE0 F0F5          	movff	bsr,??_LOW_ISR+2
 14672   000024  CFE1 F0F6          	movff	fsr1l,??_LOW_ISR+3
 14673   000028  CFE2 F0F7          	movff	fsr1h,??_LOW_ISR+4
 14674   00002C  CFD9 F0F8          	movff	fsr2l,??_LOW_ISR+5
 14675   000030  CFDA F0F9          	movff	fsr2h,??_LOW_ISR+6
 14676   000034  C009  F0FA         	movff	btemp+8,??_LOW_ISR+7
 14677   000038  C00A  F0FB         	movff	btemp+9,??_LOW_ISR+8
 14678   00003C  C00B  F0FC         	movff	btemp+10,??_LOW_ISR+9
 14679   000040  C00C  F0FD         	movff	btemp+11,??_LOW_ISR+10
 14680   000044  EE1A  F07A         	lfsr	1,___intlo_sp
 14681   000048                     
 14682                           ;bsp.c: 114:     if (TMR2IF && TMR2IE ){
 14683   000048  A29E               	btfss	3998,1,c	;volatile
 14684   00004A  EF29  F000         	goto	i1u513_21
 14685   00004E  EF2B  F000         	goto	i1u513_20
 14686   000052                     i1u513_21:
 14687   000052  EF97  F000         	goto	i1l229
 14688   000056                     i1u513_20:
 14689   000056  A29D               	btfss	3997,1,c	;volatile
 14690   000058  EF30  F000         	goto	i1u514_21
 14691   00005C  EF32  F000         	goto	i1u514_20
 14692   000060                     i1u514_21:
 14693   000060  EF97  F000         	goto	i1l229
 14694   000064                     i1u514_20:
 14695   000064                     
 14696                           ;bsp.c: 116:         buttons.btn1_acc<<=1;
 14697   000064  90D8               	bcf	status,0,c
 14698   000066  3621               	rlcf	_buttons^0,f,c
 14699                           
 14700                           ;volatile
 14701                           ;bsp.c: 117:         buttons.btn1_acc |= PORTCbits.RC0;
 14702   000068  B082               	btfsc	130,0,c	;volatile
 14703   00006A  EF39  F000         	goto	i1u515_21
 14704   00006E  EF3C  F000         	goto	i1u515_20
 14705   000072                     i1u515_21:
 14706   000072  0E01               	movlw	1
 14707   000074  EF3D  F000         	goto	i1u515_26
 14708   000078                     i1u515_20:
 14709   000078  0E00               	movlw	0
 14710   00007A                     i1u515_26:
 14711   00007A  1221               	iorwf	_buttons^0,f,c	;volatile
 14712                           
 14713                           ;bsp.c: 119:         buttons.btn2_acc<<=1;
 14714   00007C  90D8               	bcf	status,0,c
 14715   00007E  3623               	rlcf	(_buttons+2)^0,f,c
 14716                           
 14717                           ;volatile
 14718                           ;bsp.c: 120:         buttons.btn2_acc |= PORTAbits.RA4;
 14719   000080  B880               	btfsc	128,4,c	;volatile
 14720   000082  EF45  F000         	goto	i1u516_21
 14721   000086  EF48  F000         	goto	i1u516_20
 14722   00008A                     i1u516_21:
 14723   00008A  0E01               	movlw	1
 14724   00008C  EF49  F000         	goto	i1u516_26
 14725   000090                     i1u516_20:
 14726   000090  0E00               	movlw	0
 14727   000092                     i1u516_26:
 14728   000092  1223               	iorwf	(_buttons+2)^0,f,c	;volatile
 14729                           
 14730                           ;bsp.c: 122:         buttons.btn3_acc<<=1;
 14731   000094  90D8               	bcf	status,0,c
 14732   000096  3625               	rlcf	(_buttons+4)^0,f,c
 14733                           
 14734                           ;volatile
 14735                           ;bsp.c: 123:         buttons.btn3_acc |= PORTAbits.RA3;
 14736   000098  B680               	btfsc	128,3,c	;volatile
 14737   00009A  EF51  F000         	goto	i1u517_21
 14738   00009E  EF54  F000         	goto	i1u517_20
 14739   0000A2                     i1u517_21:
 14740   0000A2  0E01               	movlw	1
 14741   0000A4  EF55  F000         	goto	i1u517_26
 14742   0000A8                     i1u517_20:
 14743   0000A8  0E00               	movlw	0
 14744   0000AA                     i1u517_26:
 14745   0000AA  1225               	iorwf	(_buttons+4)^0,f,c	;volatile
 14746                           
 14747                           ;bsp.c: 125:         buttons.btn4_acc<<=1;
 14748   0000AC  90D8               	bcf	status,0,c
 14749   0000AE  3627               	rlcf	(_buttons+6)^0,f,c
 14750                           
 14751                           ;volatile
 14752                           ;bsp.c: 126:         buttons.btn4_acc |= PORTAbits.RA2;
 14753   0000B0  B480               	btfsc	128,2,c	;volatile
 14754   0000B2  EF5D  F000         	goto	i1u518_21
 14755   0000B6  EF60  F000         	goto	i1u518_20
 14756   0000BA                     i1u518_21:
 14757   0000BA  0E01               	movlw	1
 14758   0000BC  EF61  F000         	goto	i1u518_26
 14759   0000C0                     i1u518_20:
 14760   0000C0  0E00               	movlw	0
 14761   0000C2                     i1u518_26:
 14762   0000C2  1227               	iorwf	(_buttons+6)^0,f,c	;volatile
 14763                           
 14764                           ;bsp.c: 128:         if(buttons.btn1_acc == 0b01111111){
 14765   0000C4  0E7F               	movlw	127
 14766   0000C6  1821               	xorwf	_buttons^0,w,c	;volatile
 14767   0000C8  A4D8               	btfss	status,2,c
 14768   0000CA  EF69  F000         	goto	i1u519_21
 14769   0000CE  EF6B  F000         	goto	i1u519_20
 14770   0000D2                     i1u519_21:
 14771   0000D2  EF6F  F000         	goto	i1l5042
 14772   0000D6                     i1u519_20:
 14773   0000D6                     
 14774                           ;bsp.c: 129:            fsm_add_event(3U);
 14775   0000D6  0E03               	movlw	3
 14776   0000D8  6EE6               	movwf	postinc1,c
 14777   0000DA  ECF7  F029         	call	_fsm_add_event	;wreg free
 14778   0000DE                     i1l5042:
 14779                           
 14780                           ;bsp.c: 131:         if(buttons.btn2_acc == 0b01111111){
 14781   0000DE  0E7F               	movlw	127
 14782   0000E0  1823               	xorwf	(_buttons+2)^0,w,c	;volatile
 14783   0000E2  A4D8               	btfss	status,2,c
 14784   0000E4  EF76  F000         	goto	i1u520_21
 14785   0000E8  EF78  F000         	goto	i1u520_20
 14786   0000EC                     i1u520_21:
 14787   0000EC  EF7C  F000         	goto	i1l5046
 14788   0000F0                     i1u520_20:
 14789   0000F0                     
 14790                           ;bsp.c: 132:            fsm_add_event(4U);
 14791   0000F0  0E04               	movlw	4
 14792   0000F2  6EE6               	movwf	postinc1,c
 14793   0000F4  ECF7  F029         	call	_fsm_add_event	;wreg free
 14794   0000F8                     i1l5046:
 14795                           
 14796                           ;bsp.c: 134:         if(buttons.btn3_acc == 0b01111111){
 14797   0000F8  0E7F               	movlw	127
 14798   0000FA  1825               	xorwf	(_buttons+4)^0,w,c	;volatile
 14799   0000FC  A4D8               	btfss	status,2,c
 14800   0000FE  EF83  F000         	goto	i1u521_21
 14801   000102  EF85  F000         	goto	i1u521_20
 14802   000106                     i1u521_21:
 14803   000106  EF89  F000         	goto	i1l5050
 14804   00010A                     i1u521_20:
 14805   00010A                     
 14806                           ;bsp.c: 135:            fsm_add_event(5U);
 14807   00010A  0E05               	movlw	5
 14808   00010C  6EE6               	movwf	postinc1,c
 14809   00010E  ECF7  F029         	call	_fsm_add_event	;wreg free
 14810   000112                     i1l5050:
 14811                           
 14812                           ;bsp.c: 137:         if(buttons.btn4_acc == 0b01111111){
 14813   000112  0E7F               	movlw	127
 14814   000114  1827               	xorwf	(_buttons+6)^0,w,c	;volatile
 14815   000116  A4D8               	btfss	status,2,c
 14816   000118  EF90  F000         	goto	i1u522_21
 14817   00011C  EF92  F000         	goto	i1u522_20
 14818   000120                     i1u522_21:
 14819   000120  EF96  F000         	goto	i1l5054
 14820   000124                     i1u522_20:
 14821   000124                     
 14822                           ;bsp.c: 138:            fsm_add_event(6U);
 14823   000124  0E06               	movlw	6
 14824   000126  6EE6               	movwf	postinc1,c
 14825   000128  ECF7  F029         	call	_fsm_add_event	;wreg free
 14826   00012C                     i1l5054:
 14827                           
 14828                           ;bsp.c: 141:         TMR2IF = 0;
 14829   00012C  929E               	bcf	3998,1,c	;volatile
 14830   00012E                     i1l229:
 14831   00012E  C0FD  F00C         	movff	??_LOW_ISR+10,btemp+11
 14832   000132  C0FC  F00B         	movff	??_LOW_ISR+9,btemp+10
 14833   000136  C0FB  F00A         	movff	??_LOW_ISR+8,btemp+9
 14834   00013A  C0FA  F009         	movff	??_LOW_ISR+7,btemp+8
 14835   00013E  C0F9  FFDA         	movff	??_LOW_ISR+6,fsr2h
 14836   000142  C0F8  FFD9         	movff	??_LOW_ISR+5,fsr2l
 14837   000146  C0F7  FFE2         	movff	??_LOW_ISR+4,fsr1h
 14838   00014A  C0F6  FFE1         	movff	??_LOW_ISR+3,fsr1l
 14839   00014E  C0F5  FFE0         	movff	??_LOW_ISR+2,bsr
 14840   000152  C0F4  FFE8         	movff	??_LOW_ISR+1,wreg
 14841   000156  C0F3  FFD8         	movff	??_LOW_ISR,status
 14842   00015A  0010               	retfie	
 14843   00015C                     __end_of_LOW_ISR:
 14844                           	callstack 0
 14845                           
 14846 ;; *************** function _fsm_add_event *****************
 14847 ;; Defined at:
 14848 ;;		line 6 in file "fsm.c"
 14849 ;; Parameters:    Size  Location     Type
 14850 ;;  in              1  [STACK] unsigned char 
 14851 ;; Auto vars:     Size  Location     Type
 14852 ;;		None
 14853 ;; Return value:  Size  Location     Type
 14854 ;;                  1  [STACK] void 
 14855 ;; Registers used:
 14856 ;;		wreg, fsr1l, fsr1h, fsr2l, fsr2h, status,2, status,0, btemp+8, btemp+9, btemp+10, btemp+11
 14857 ;; Tracked objects:
 14858 ;;		On entry : 0/0
 14859 ;;		On exit  : 0/0
 14860 ;;		Unchanged: 0/0
 14861 ;; Data sizes:     COMRAM   BANK0   BANK1   BANK2   BANK3   BANK4   BANK5   BANK6   BANK7   BANK8   BANK9  BANK10  BANK1
      +1  BANK12  BANK13  BANK14  BANK15
 14862 ;;      Params:         0       0       0       0       0       0       0       0       0       0       0       0       
      +0       0       0       0       0
 14863 ;;      Locals:         0       0       0       0       0       0       0       0       0       0       0       0       
      +0       0       0       0       0
 14864 ;;      Temps:          0       0       0       0       0       0       0       0       0       0       0       0       
      +0       0       0       0       0
 14865 ;;      Totals:         0       0       0       0       0       0       0       0       0       0       0       0       
      +0       0       0       0       0
 14866 ;;Total ram usage:        0 bytes
 14867 ;; Hardware stack levels used: 1
 14868 ;; Hardware stack levels required when called: 5
 14869 ;; This function calls:
 14870 ;;		_write_evt
 14871 ;; This function is called by:
 14872 ;;		_HIGH_ISR
 14873 ;;		_LOW_ISR
 14874 ;;		_rc_isr_handle
 14875 ;; This function uses a reentrant model
 14876 ;;
 14877                           
 14878                           	psect	text52
 14879   0053EE                     __ptext52:
 14880                           	callstack 0
 14881   0053EE                     _fsm_add_event:
 14882                           	callstack 0
 14883   0053EE                     
 14884                           ;fsm.c: 7:     write_evt(&event_queue, in);
 14885                           ;stkvar	_in @ sp[(0)+-1]
 14886   0053EE  0EFF               	movlw	-1
 14887   0053F0  50E3               	movf	plusw1,w,c
 14888   0053F2  6EE6               	movwf	postinc1,c
 14889   0053F4  0EB0               	movlw	low _event_queue
 14890   0053F6  6EE6               	movwf	postinc1,c
 14891   0053F8  0E00               	movlw	high _event_queue
 14892   0053FA  6EE6               	movwf	postinc1,c
 14893   0053FC  ECED  F025         	call	_write_evt	;wreg free
 14894   005400                     
 14895                           ; _fsm_add_event: autosize = 0, savesize = 0, parsavesize = 0, tempsize = 0 parsize = 1,
      +                           argsize = 1, vargsize = 0
 14896   005400  52E5               	movf	postdec1,f,c
 14897   005402  0012               	return		;funcret
 14898   005404                     __end_of_fsm_add_event:
 14899                           	callstack 0
 14900                           
 14901 ;; *************** function _write_evt *****************
 14902 ;; Defined at:
 14903 ;;		line 3 in file "evt_queue.c"
 14904 ;; Parameters:    Size  Location     Type
 14905 ;;  queue           2  [STACK] PTR volatile struct .
 14906 ;;		 -> event_queue(34), 
 14907 ;;  in              1  [STACK] unsigned char 
 14908 ;; Auto vars:     Size  Location     Type
 14909 ;;  tmp             1  [STACK] unsigned char 
 14910 ;; Return value:  Size  Location     Type
 14911 ;;                  1  [STACK] void 
 14912 ;; Registers used:
 14913 ;;		wreg, fsr1l, fsr1h, fsr2l, fsr2h, status,2, status,0, btemp+8, btemp+9, btemp+10, btemp+11
 14914 ;; Tracked objects:
 14915 ;;		On entry : 0/0
 14916 ;;		On exit  : 0/0
 14917 ;;		Unchanged: 0/0
 14918 ;; Data sizes:     COMRAM   BANK0   BANK1   BANK2   BANK3   BANK4   BANK5   BANK6   BANK7   BANK8   BANK9  BANK10  BANK1
      +1  BANK12  BANK13  BANK14  BANK15
 14919 ;;      Params:         0       0       0       0       0       0       0       0       0       0       0       0       
      +0       0       0       0       0
 14920 ;;      Locals:         0       0       0       0       0       0       0       0       0       0       0       0       
      +0       0       0       0       0
 14921 ;;      Temps:          0       0       0       0       0       0       0       0       0       0       0       0       
      +0       0       0       0       0
 14922 ;;      Totals:         0       0       0       0       0       0       0       0       0       0       0       0       
      +0       0       0       0       0
 14923 ;;Total ram usage:        0 bytes
 14924 ;; Hardware stack levels used: 1
 14925 ;; Hardware stack levels required when called: 4
 14926 ;; This function calls:
 14927 ;;		Nothing
 14928 ;; This function is called by:
 14929 ;;		_fsm_add_event
 14930 ;; This function uses a reentrant model
 14931 ;;
 14932                           
 14933                           	psect	text53
 14934   004BDA                     __ptext53:
 14935                           	callstack 0
 14936   004BDA                     _write_evt:
 14937                           	callstack 0
 14938                           
 14939                           ; autosize = 1, savesize = 0, parsavesize = 0, tempsize = 0 parsize = 3, argsize = 3 var
      +                          gsize = 0, retsize = 0 argfudge = 0
 14940   004BDA  52E6               	movf	postinc1,f,c
 14941   004BDC                     
 14942                           ;evt_queue.c: 4:  char tmp = (GIE & 0b1); GIE=0;;
 14943   004BDC  BEF2               	btfsc	4082,7,c	;volatile
 14944   004BDE  EFF3  F025         	goto	u480_21
 14945   004BE2  EFF7  F025         	goto	u480_20
 14946   004BE6                     u480_21:
 14947   004BE6  6A0C               	clrf	(btemp+11)^0,c
 14948   004BE8  2A0C               	incf	(btemp+11)^0,f,c
 14949   004BEA  EFF8  F025         	goto	u481_28
 14950   004BEE                     u480_20:
 14951   004BEE  6A0C               	clrf	(btemp+11)^0,c
 14952   004BF0                     u481_28:
 14953   004BF0  0E01               	movlw	1
 14954   004BF2  160C               	andwf	(btemp+11)^0,f,c
 14955                           
 14956                           ;stkvar	_tmp @ sp[(-1)+0]
 14957   004BF4  0EFF               	movlw	-1
 14958   004BF6  C00C  FFE3         	movff	btemp+11,plusw1
 14959   004BFA  9EF2               	bcf	4082,7,c	;volatile
 14960   004BFC                     
 14961                           ;evt_queue.c: 5:     queue->fifo[queue->head++] = in;
 14962                           ;stkvar	_in @ sp[(-1)+-3]
 14963                           ;stkvar	_queue @ sp[(-1)+-2]
 14964   004BFC  0EFD               	movlw	-3
 14965   004BFE  CFE3 F00B          	movff	plusw1,btemp+10
 14966   004C02  0EFE               	movlw	-2
 14967   004C04  CFE3 F00C          	movff	plusw1,btemp+11
 14968   004C08  0E20               	movlw	32
 14969   004C0A  240B               	addwf	(btemp+10)^0,w,c
 14970   004C0C  6ED9               	movwf	fsr2l,c
 14971   004C0E  0E00               	movlw	0
 14972   004C10  200C               	addwfc	(btemp+11)^0,w,c
 14973   004C12  6EDA               	movwf	fsr2h,c
 14974   004C14  50DF               	movf	223,w,c
 14975   004C16  0B1F               	andlw	31
 14976   004C18  6E0C               	movwf	(btemp+11)^0,c
 14977                           
 14978                           ;stkvar	_queue @ sp[(-1)+-2]
 14979   004C1A  0EFD               	movlw	-3
 14980   004C1C  CFE3 F009          	movff	plusw1,btemp+8
 14981   004C20  0EFE               	movlw	-2
 14982   004C22  CFE3 F00A          	movff	plusw1,btemp+9
 14983   004C26  500C               	movf	(btemp+11)^0,w,c
 14984   004C28  2409               	addwf	(btemp+8)^0,w,c
 14985   004C2A  6ED9               	movwf	fsr2l,c
 14986   004C2C  0E00               	movlw	0
 14987   004C2E  200A               	addwfc	(btemp+9)^0,w,c
 14988   004C30  6EDA               	movwf	fsr2h,c
 14989   004C32  0EFC               	movlw	-4
 14990   004C34  CFE3 FFDF          	movff	plusw1,indf2
 14991   004C38                     
 14992                           ;stkvar	_queue @ sp[(-1)+-2]
 14993   004C38  0EFD               	movlw	-3
 14994   004C3A  CFE3 F00B          	movff	plusw1,btemp+10
 14995   004C3E  0EFE               	movlw	-2
 14996   004C40  CFE3 F00C          	movff	plusw1,btemp+11
 14997   004C44  0E20               	movlw	32
 14998   004C46  240B               	addwf	(btemp+10)^0,w,c
 14999   004C48  6ED9               	movwf	fsr2l,c
 15000   004C4A  0E00               	movlw	0
 15001   004C4C  200C               	addwfc	(btemp+11)^0,w,c
 15002   004C4E  6EDA               	movwf	fsr2h,c
 15003   004C50  50DF               	movf	223,w,c
 15004   004C52  0B1F               	andlw	31
 15005   004C54  6E0C               	movwf	(btemp+11)^0,c
 15006   004C56  2A0C               	incf	(btemp+11)^0,f,c
 15007   004C58  50DF               	movf	223,w,c
 15008   004C5A  180C               	xorwf	(btemp+11)^0,w,c
 15009   004C5C  0BE0               	andlw	-32
 15010   004C5E  180C               	xorwf	(btemp+11)^0,w,c
 15011   004C60  6EDF               	movwf	223,c
 15012   004C62                     
 15013                           ;evt_queue.c: 6:     GIE = (tmp & 0b1);;
 15014                           ;stkvar	_tmp @ sp[(-1)+0]
 15015   004C62  0EFF               	movlw	-1
 15016   004C64  CFE3 F00C          	movff	plusw1,btemp+11
 15017   004C68  300C               	rrcf	(btemp+11)^0,w,c
 15018   004C6A  B0D8               	btfsc	status,0,c
 15019   004C6C  EF3A  F026         	goto	u482_21
 15020   004C70  EF3D  F026         	goto	u482_20
 15021   004C74                     u482_21:
 15022   004C74  8EF2               	bsf	4082,7,c	;volatile
 15023   004C76  EF3E  F026         	goto	u483_25
 15024   004C7A                     u482_20:
 15025   004C7A  9EF2               	bcf	4082,7,c	;volatile
 15026   004C7C                     u483_25:
 15027   004C7C                     
 15028                           ; _write_evt: autosize = 1, savesize = 0, parsavesize = 0, tempsize = 0 parsize = 3, arg
      +                          size = 3, vargsize = 0
 15029   004C7C  52E5               	movf	postdec1,f,c
 15030   004C7E  52E5               	movf	postdec1,f,c
 15031   004C80  52E5               	movf	postdec1,f,c
 15032   004C82  52E5               	movf	postdec1,f,c
 15033   004C84  0012               	return		;funcret
 15034   004C86                     __end_of_write_evt:
 15035                           	callstack 0
 15036                           
 15037 ;; *************** function _HIGH_ISR *****************
 15038 ;; Defined at:
 15039 ;;		line 88 in file "bsp.c"
 15040 ;; Parameters:    Size  Location     Type
 15041 ;;		None
 15042 ;; Auto vars:     Size  Location     Type
 15043 ;;		None
 15044 ;; Return value:  Size  Location     Type
 15045 ;;                  1    wreg      void 
 15046 ;; Registers used:
 15047 ;;		wreg, fsr1l, fsr1h, fsr2l, fsr2h, status,2, status,0, pcl, pclath, pclatu, btemp, btemp+8, btemp+9, btemp+10, btemp+
      +11, tosl
 15048 ;; Tracked objects:
 15049 ;;		On entry : 0/0
 15050 ;;		On exit  : 0/0
 15051 ;;		Unchanged: 0/0
 15052 ;; Data sizes:     COMRAM   BANK0   BANK1   BANK2   BANK3   BANK4   BANK5   BANK6   BANK7   BANK8   BANK9  BANK10  BANK1
      +1  BANK12  BANK13  BANK14  BANK15
 15053 ;;      Params:         0       0       0       0       0       0       0       0       0       0       0       0       
      +0       0       0       0       0
 15054 ;;      Locals:         0       0       0       0       0       0       0       0       0       0       0       0       
      +0       0       0       0       0
 15055 ;;      Temps:         11       0       0       0       0       0       0       0       0       0       0       0       
      +0       0       0       0       0
 15056 ;;      Totals:        11       0       0       0       0       0       0       0       0       0       0       0       
      +0       0       0       0       0
 15057 ;;Total ram usage:       11 bytes
 15058 ;; Hardware stack levels used: 1
 15059 ;; Hardware stack levels required when called: 3
 15060 ;; This function calls:
 15061 ;;		NULL
 15062 ;;		_fsm_add_event
 15063 ;;		_rc_isr_handle
 15064 ;; This function is called by:
 15065 ;;		Interrupt level 2
 15066 ;; This function uses a non-reentrant model
 15067 ;;
 15068                           
 15069                           	psect	intcode
 15070   000008                     __pintcode:
 15071                           	callstack 0
 15072   000008                     _HIGH_ISR:
 15073                           	callstack 0
 15074                           
 15075                           ;incstack = 0
 15076 ;; hardware stack exceeded
 15077   000008  EF36  F01E         	goto	int_func
 15078                           
 15079                           	psect	intcode_body
 15080   003C6C                     __pintcode_body:
 15081                           	callstack 0
 15082   003C6C                     int_func:
 15083                           	callstack 0
 15084   003C6C  CFFA F03C          	movff	pclath,??_HIGH_ISR
 15085   003C70  CFFB F03D          	movff	pclatu,??_HIGH_ISR+1
 15086   003C74  CFE1 F03E          	movff	fsr1l,??_HIGH_ISR+2
 15087   003C78  CFE2 F03F          	movff	fsr1h,??_HIGH_ISR+3
 15088   003C7C  CFD9 F040          	movff	fsr2l,??_HIGH_ISR+4
 15089   003C80  CFDA F041          	movff	fsr2h,??_HIGH_ISR+5
 15090   003C84  C001  F042         	movff	btemp,??_HIGH_ISR+6
 15091   003C88  C009  F043         	movff	btemp+8,??_HIGH_ISR+7
 15092   003C8C  C00A  F044         	movff	btemp+9,??_HIGH_ISR+8
 15093   003C90  C00B  F045         	movff	btemp+10,??_HIGH_ISR+9
 15094   003C94  C00C  F046         	movff	btemp+11,??_HIGH_ISR+10
 15095   003C98  EE15  F0BC         	lfsr	1,___inthi_sp
 15096   003C9C                     
 15097                           ;bsp.c: 90:     if (TMR1IF && TMR1IE ){
 15098   003C9C  A09E               	btfss	3998,0,c	;volatile
 15099   003C9E  EF53  F01E         	goto	i2u493_41
 15100   003CA2  EF55  F01E         	goto	i2u493_40
 15101   003CA6                     i2u493_41:
 15102   003CA6  EF65  F01E         	goto	i2l4762
 15103   003CAA                     i2u493_40:
 15104   003CAA  A09D               	btfss	3997,0,c	;volatile
 15105   003CAC  EF5A  F01E         	goto	i2u494_41
 15106   003CB0  EF5C  F01E         	goto	i2u494_40
 15107   003CB4                     i2u494_41:
 15108   003CB4  EF65  F01E         	goto	i2l4762
 15109   003CB8                     i2u494_40:
 15110   003CB8                     
 15111                           ;bsp.c: 91:         fsm_add_event(8U);
 15112   003CB8  0E08               	movlw	8
 15113   003CBA  6EE6               	movwf	postinc1,c
 15114   003CBC  ECF7  F029         	call	_fsm_add_event	;wreg free
 15115   003CC0                     
 15116                           ;bsp.c: 92:         TMR1 = 55535;
 15117   003CC0  0ED8               	movlw	216
 15118   003CC2  6ECF               	movwf	207,c	;volatile
 15119   003CC4  0EEF               	movlw	239
 15120   003CC6  6ECE               	movwf	206,c	;volatile
 15121   003CC8                     
 15122                           ;bsp.c: 93:         TMR1IF = 0;
 15123   003CC8  909E               	bcf	3998,0,c	;volatile
 15124   003CCA                     i2l4762:
 15125                           
 15126                           ;bsp.c: 96:     if (TMR6IF && TMR6IE ){
 15127   003CCA  A47E               	btfss	3966,2,c	;volatile
 15128   003CCC  EF6A  F01E         	goto	i2u495_41
 15129   003CD0  EF6C  F01E         	goto	i2u495_40
 15130   003CD4                     i2u495_41:
 15131   003CD4  EF92  F01E         	goto	i2l4776
 15132   003CD8                     i2u495_40:
 15133   003CD8  A47D               	btfss	3965,2,c	;volatile
 15134   003CDA  EF71  F01E         	goto	i2u496_41
 15135   003CDE  EF73  F01E         	goto	i2u496_40
 15136   003CE2                     i2u496_41:
 15137   003CE2  EF92  F01E         	goto	i2l4776
 15138   003CE6                     i2u496_40:
 15139   003CE6                     
 15140                           ;bsp.c: 97:         if(--bsp_timeout <= 0){
 15141   003CE6  0EFF               	movlw	255
 15142   003CE8  2631               	addwf	_bsp_timeout^0,f,c	;volatile
 15143   003CEA  0EFF               	movlw	255
 15144   003CEC  2232               	addwfc	(_bsp_timeout+1)^0,f,c	;volatile
 15145   003CEE  0EFF               	movlw	255
 15146   003CF0  2233               	addwfc	(_bsp_timeout+2)^0,f,c	;volatile
 15147   003CF2  0EFF               	movlw	255
 15148   003CF4  2234               	addwfc	(_bsp_timeout+3)^0,f,c	;volatile
 15149   003CF6  BE34               	btfsc	(_bsp_timeout+3)^0,7,c	;volatile
 15150   003CF8  EF8A  F01E         	goto	i2u497_40
 15151   003CFC  5034               	movf	(_bsp_timeout+3)^0,w,c	;volatile
 15152   003CFE  1033               	iorwf	(_bsp_timeout+2)^0,w,c	;volatile
 15153   003D00  1032               	iorwf	(_bsp_timeout+1)^0,w,c	;volatile
 15154   003D02  E106               	bnz	i2u497_41
 15155   003D04  0431               	decf	_bsp_timeout^0,w,c	;volatile
 15156   003D06  B0D8               	btfsc	status,0,c
 15157   003D08  EF88  F01E         	goto	i2u497_41
 15158   003D0C  EF8A  F01E         	goto	i2u497_40
 15159   003D10                     i2u497_41:
 15160   003D10  EF90  F01E         	goto	i2l4772
 15161   003D14                     i2u497_40:
 15162   003D14                     
 15163                           ;bsp.c: 98:             fsm_add_event(7U);
 15164   003D14  0E07               	movlw	7
 15165   003D16  6EE6               	movwf	postinc1,c
 15166   003D18  ECF7  F029         	call	_fsm_add_event	;wreg free
 15167   003D1C                     
 15168                           ;bsp.c: 99:             TMR6ON = 0;
 15169   003D1C  010F               	movlb	15	; () banked
 15170   003D1E  954A               	bcf	74,2,b	;volatile
 15171   003D20                     i2l4772:
 15172                           
 15173                           ;bsp.c: 101:         LATBbits.LB5 ^= 1;
 15174   003D20  7A8A               	btg	138,5,c	;volatile
 15175   003D22                     
 15176                           ;bsp.c: 102:         TMR6IF = 0;
 15177   003D22  947E               	bcf	3966,2,c	;volatile
 15178   003D24                     i2l4776:
 15179                           
 15180                           ;bsp.c: 105:     if(RC1IF && RC1IE){
 15181   003D24  AA9E               	btfss	3998,5,c	;volatile
 15182   003D26  EF97  F01E         	goto	i2u498_41
 15183   003D2A  EF99  F01E         	goto	i2u498_40
 15184   003D2E                     i2u498_41:
 15185   003D2E  EFB5  F01E         	goto	i2l219
 15186   003D32                     i2u498_40:
 15187   003D32  AA9D               	btfss	3997,5,c	;volatile
 15188   003D34  EF9E  F01E         	goto	i2u499_41
 15189   003D38  EFA0  F01E         	goto	i2u499_40
 15190   003D3C                     i2u499_41:
 15191   003D3C  EFB5  F01E         	goto	i2l219
 15192   003D40                     i2u499_40:
 15193   003D40                     
 15194                           ;bsp.c: 106:         if(RC_isr_cb != ((void*)0)){
 15195   003D40  5039               	movf	_RC_isr_cb^0,w,c
 15196   003D42  103A               	iorwf	(_RC_isr_cb+1)^0,w,c
 15197   003D44  B4D8               	btfsc	status,2,c
 15198   003D46  EFA7  F01E         	goto	i2u500_41
 15199   003D4A  EFA9  F01E         	goto	i2u500_40
 15200   003D4E                     i2u500_41:
 15201   003D4E  EFB5  F01E         	goto	i2l219
 15202   003D52                     i2u500_40:
 15203   003D52                     
 15204                           ;bsp.c: 107:             RC_isr_cb();
 15205   003D52  D802               	call	i2u501_48
 15206   003D54  EFB5  F01E         	goto	i2u501_49
 15207   003D58                     i2u501_48:
 15208   003D58  0005               	push	
 15209   003D5A  6EFA               	movwf	pclath,c
 15210   003D5C  5039               	movf	_RC_isr_cb^0,w,c
 15211   003D5E  6EFD               	movwf	tosl,c
 15212   003D60  503A               	movf	(_RC_isr_cb+1)^0,w,c
 15213   003D62  6EFE               	movwf	tosh,c
 15214   003D64  6AFF               	clrf	tosu,c
 15215   003D66  50FA               	movf	pclath,w,c
 15216   003D68  0012               	return		;indir
 15217   003D6A                     i2u501_49:
 15218   003D6A                     i2l219:
 15219   003D6A  C046  F00C         	movff	??_HIGH_ISR+10,btemp+11
 15220   003D6E  C045  F00B         	movff	??_HIGH_ISR+9,btemp+10
 15221   003D72  C044  F00A         	movff	??_HIGH_ISR+8,btemp+9
 15222   003D76  C043  F009         	movff	??_HIGH_ISR+7,btemp+8
 15223   003D7A  C042  F001         	movff	??_HIGH_ISR+6,btemp
 15224   003D7E  C041  FFDA         	movff	??_HIGH_ISR+5,fsr2h
 15225   003D82  C040  FFD9         	movff	??_HIGH_ISR+4,fsr2l
 15226   003D86  C03F  FFE2         	movff	??_HIGH_ISR+3,fsr1h
 15227   003D8A  C03E  FFE1         	movff	??_HIGH_ISR+2,fsr1l
 15228   003D8E  C03D  FFFB         	movff	??_HIGH_ISR+1,pclatu
 15229   003D92  C03C  FFFA         	movff	??_HIGH_ISR,pclath
 15230   003D96  0011               	retfie		f
 15231   003D98                     __end_of_HIGH_ISR:
 15232                           	callstack 0
 15233                           
 15234 ;; *************** function _rc_isr_handle *****************
 15235 ;; Defined at:
 15236 ;;		line 229 in file "main_menu.c"
 15237 ;; Parameters:    Size  Location     Type
 15238 ;;		None
 15239 ;; Auto vars:     Size  Location     Type
 15240 ;;  rchar           1  [STACK] unsigned char 
 15241 ;; Return value:  Size  Location     Type
 15242 ;;                  1  [STACK] void 
 15243 ;; Registers used:
 15244 ;;		wreg, fsr1l, fsr1h, fsr2l, fsr2h, status,2, status,0, btemp, btemp+8, btemp+9, btemp+10, btemp+11
 15245 ;; Tracked objects:
 15246 ;;		On entry : 0/0
 15247 ;;		On exit  : 0/0
 15248 ;;		Unchanged: 0/0
 15249 ;; Data sizes:     COMRAM   BANK0   BANK1   BANK2   BANK3   BANK4   BANK5   BANK6   BANK7   BANK8   BANK9  BANK10  BANK1
      +1  BANK12  BANK13  BANK14  BANK15
 15250 ;;      Params:         0       0       0       0       0       0       0       0       0       0       0       0       
      +0       0       0       0       0
 15251 ;;      Locals:         0       0       0       0       0       0       0       0       0       0       0       0       
      +0       0       0       0       0
 15252 ;;      Temps:          0       0       0       0       0       0       0       0       0       0       0       0       
      +0       0       0       0       0
 15253 ;;      Totals:         0       0       0       0       0       0       0       0       0       0       0       0       
      +0       0       0       0       0
 15254 ;;Total ram usage:        0 bytes
 15255 ;; Hardware stack levels used: 1
 15256 ;; Hardware stack levels required when called: 2
 15257 ;; This function calls:
 15258 ;;		_fsm_add_event
 15259 ;; This function is called by:
 15260 ;;		_main
 15261 ;;		_HIGH_ISR
 15262 ;; This function uses a reentrant model
 15263 ;;
 15264                           
 15265                           	psect	text55
 15266   004FD6                     __ptext55:
 15267                           	callstack 0
 15268   004FD6                     _rc_isr_handle:
 15269                           	callstack 0
 15270                           
 15271                           ; autosize = 1, savesize = 0, parsavesize = 0, tempsize = 0 parsize = 0, argsize = 0 var
      +                          gsize = 0, retsize = 0 argfudge = 0
 15272   004FD6  52E6               	movf	postinc1,f,c
 15273   004FD8                     
 15274                           ;main_menu.c: 231:     char rchar = RCREG1;
 15275                           ;stkvar	_rchar @ sp[(-1)+0]
 15276   004FD8  0EFF               	movlw	-1
 15277   004FDA  CFAE FFE3          	movff	4014,plusw1	;volatile
 15278   004FDE                     
 15279                           ;main_menu.c: 233:     if(rchar != '\n'){
 15280                           ;stkvar	_rchar @ sp[(-1)+0]
 15281   004FDE  0EFF               	movlw	-1
 15282   004FE0  CFE3 F001          	movff	plusw1,btemp
 15283   004FE4  0E0A               	movlw	10
 15284   004FE6  1801               	xorwf	btemp^0,w,c
 15285   004FE8  B4D8               	btfsc	status,2,c
 15286   004FEA  EFF9  F027         	goto	u491_41
 15287   004FEE  EFFB  F027         	goto	u491_40
 15288   004FF2                     u491_41:
 15289   004FF2  EF11  F028         	goto	l4746
 15290   004FF6                     u491_40:
 15291   004FF6                     
 15292                           ;main_menu.c: 234:         msg.data[msg.idx++] = rchar;
 15293                           ;stkvar	_rchar @ sp[(-1)+0]
 15294   004FF6  0ED2               	movlw	low _msg
 15295   004FF8  0100               	movlb	0	; () banked
 15296   004FFA  25F2               	addwf	(_msg+32)& (0+255),w,b	;volatile
 15297   004FFC  6ED9               	movwf	fsr2l,c
 15298   004FFE  6ADA               	clrf	fsr2h,c
 15299   005000  0E00               	movlw	high _msg
 15300   005002  22DA               	addwfc	fsr2h,f,c
 15301   005004  0EFF               	movlw	-1
 15302   005006  CFE3 FFDF          	movff	plusw1,indf2
 15303   00500A                     
 15304                           ; BSR set to: 0
 15305   00500A  2BF2               	incf	(_msg+32)& (0+255),f,b	;volatile
 15306   00500C                     
 15307                           ; BSR set to: 0
 15308                           ;main_menu.c: 235:         if(msg.idx > 31){
 15309   00500C  0E1F               	movlw	31
 15310   00500E  65F2               	cpfsgt	(_msg+32)& (0+255),b	;volatile
 15311   005010  EF0C  F028         	goto	u492_41
 15312   005014  EF0E  F028         	goto	u492_40
 15313   005018                     u492_41:
 15314   005018  EF1E  F028         	goto	l400
 15315   00501C                     u492_40:
 15316   00501C                     
 15317                           ; BSR set to: 0
 15318                           ;main_menu.c: 236:             msg.idx = 0;
 15319   00501C  6BF2               	clrf	(_msg+32)& (0+255),b	;volatile
 15320   00501E  EF1E  F028         	goto	l400
 15321   005022                     l4746:
 15322                           
 15323                           ;main_menu.c: 240:         msg.data[msg.idx] = '\0';
 15324   005022  0ED2               	movlw	low _msg
 15325   005024  0100               	movlb	0	; () banked
 15326   005026  25F2               	addwf	(_msg+32)& (0+255),w,b	;volatile
 15327   005028  6ED9               	movwf	fsr2l,c
 15328   00502A  6ADA               	clrf	fsr2h,c
 15329   00502C  0E00               	movlw	high _msg
 15330   00502E  22DA               	addwfc	fsr2h,f,c
 15331   005030  6ADF               	clrf	indf2,c
 15332   005032                     
 15333                           ; BSR set to: 0
 15334                           ;main_menu.c: 241:         msg.idx = 0;
 15335   005032  6BF2               	clrf	(_msg+32)& (0+255),b	;volatile
 15336   005034                     
 15337                           ; BSR set to: 0
 15338                           ;main_menu.c: 242:         fsm_add_event(9U);
 15339   005034  0E09               	movlw	9
 15340   005036  6EE6               	movwf	postinc1,c
 15341   005038  ECF7  F029         	call	_fsm_add_event	;wreg free
 15342   00503C                     l400:
 15343                           
 15344                           ; _rc_isr_handle: autosize = 1, savesize = 0, parsavesize = 0, tempsize = 0 parsize = 0,
      +                           argsize = 0, vargsize = 0
 15345   00503C  52E5               	movf	postdec1,f,c
 15346   00503E  0012               	return		;funcret
 15347   005040                     __end_of_rc_isr_handle:
 15348                           	callstack 0
 15349                           
 15350                           	psect	text56
 15351   000000                     __ptext56:
 15352                           	callstack 0
 15353   000000                     
 15354                           	psect	rparam
 15355   000000                     
 15356                           	psect	temp
 15357   000001                     btemp:
 15358                           	callstack 0
 15359   000001                     	ds	32
 15360   000000                     wtemp0	set	btemp
 15361   000000                     wtemp1	set	btemp+2
 15362   000000                     wtemp2	set	btemp+4
 15363   000000                     wtemp3	set	btemp+6
 15364   000000                     wtemp4	set	btemp+8
 15365   000000                     wtemp5	set	btemp+10
 15366   000000                     wtemp8	set	btemp+1
 15367   000000                     ttemp0	set	btemp
 15368   000000                     ttemp1	set	btemp+3
 15369   000000                     ttemp2	set	btemp+6
 15370   000000                     ttemp3	set	btemp+9
 15371   000000                     ttemp5	set	btemp+1
 15372   000000                     ttemp6	set	btemp+4
 15373   000000                     ttemp7	set	btemp+8
 15374   000000                     ltemp0	set	btemp
 15375   000000                     ltemp1	set	btemp+4
 15376   000000                     ltemp2	set	btemp+8
 15377   000000                     lltemp0	set	btemp
 15378   000000                     lltemp1	set	btemp+8
 15379   000000                     lltemp2	set	btemp+16
 15380   000000                     lltemp3	set	btemp+24
 15381                           
 15382                           	psect	idloc
 15383                           
 15384                           ;Config register IDLOC0 @ 0x200000
 15385                           ;	unspecified, using default values
 15386   200000                     	org	2097152
 15387   200000  FF                 	db	255
 15388                           
 15389                           ;Config register IDLOC1 @ 0x200001
 15390                           ;	unspecified, using default values
 15391   200001                     	org	2097153
 15392   200001  FF                 	db	255
 15393                           
 15394                           ;Config register IDLOC2 @ 0x200002
 15395                           ;	unspecified, using default values
 15396   200002                     	org	2097154
 15397   200002  FF                 	db	255
 15398                           
 15399                           ;Config register IDLOC3 @ 0x200003
 15400                           ;	unspecified, using default values
 15401   200003                     	org	2097155
 15402   200003  FF                 	db	255
 15403                           
 15404                           ;Config register IDLOC4 @ 0x200004
 15405                           ;	unspecified, using default values
 15406   200004                     	org	2097156
 15407   200004  FF                 	db	255
 15408                           
 15409                           ;Config register IDLOC5 @ 0x200005
 15410                           ;	unspecified, using default values
 15411   200005                     	org	2097157
 15412   200005  FF                 	db	255
 15413                           
 15414                           ;Config register IDLOC6 @ 0x200006
 15415                           ;	unspecified, using default values
 15416   200006                     	org	2097158
 15417   200006  FF                 	db	255
 15418                           
 15419                           ;Config register IDLOC7 @ 0x200007
 15420                           ;	unspecified, using default values
 15421   200007                     	org	2097159
 15422   200007  FF                 	db	255
 15423                           
 15424                           	psect	config
 15425                           
 15426                           ; Padding undefined space
 15427   300000                     	org	3145728
 15428   300000  FF                 	db	255
 15429                           
 15430                           ;Config register CONFIG1H @ 0x300001
 15431                           ;	Oscillator Selection bits
 15432                           ;	FOSC = HSMP, HS oscillator (medium power 4-16 MHz)
 15433                           ;	4X PLL Enable
 15434                           ;	PLLCFG = ON, Oscillator multiplied by 4
 15435                           ;	Primary clock enable bit
 15436                           ;	PRICLKEN = 0x1, unprogrammed default
 15437                           ;	Fail-Safe Clock Monitor Enable bit
 15438                           ;	FCMEN = 0x0, unprogrammed default
 15439                           ;	Internal/External Oscillator Switchover bit
 15440                           ;	IESO = 0x0, unprogrammed default
 15441   300001                     	org	3145729
 15442   300001  33                 	db	51
 15443                           
 15444                           ;Config register CONFIG2L @ 0x300002
 15445                           ;	unspecified, using default values
 15446                           ;	Power-up Timer Enable bit
 15447                           ;	PWRTEN = 0x1, unprogrammed default
 15448                           ;	Brown-out Reset Enable bits
 15449                           ;	BOREN = 0x3, unprogrammed default
 15450                           ;	Brown Out Reset Voltage bits
 15451                           ;	BORV = 0x3, unprogrammed default
 15452   300002                     	org	3145730
 15453   300002  1F                 	db	31
 15454                           
 15455                           ;Config register CONFIG2H @ 0x300003
 15456                           ;	Watchdog Timer Enable bits
 15457                           ;	WDTEN = OFF, Watch dog timer is always disabled. SWDTEN has no effect.
 15458                           ;	Watchdog Timer Postscale Select bits
 15459                           ;	WDTPS = 0xF, unprogrammed default
 15460   300003                     	org	3145731
 15461   300003  3C                 	db	60
 15462                           
 15463                           ; Padding undefined space
 15464   300004                     	org	3145732
 15465   300004  FF                 	db	255
 15466                           
 15467                           ;Config register CONFIG3H @ 0x300005
 15468                           ;	unspecified, using default values
 15469                           ;	CCP2 MUX bit
 15470                           ;	CCP2MX = 0x1, unprogrammed default
 15471                           ;	PORTB A/D Enable bit
 15472                           ;	PBADEN = 0x1, unprogrammed default
 15473                           ;	P3A/CCP3 Mux bit
 15474                           ;	CCP3MX = 0x1, unprogrammed default
 15475                           ;	HFINTOSC Fast Start-up
 15476                           ;	HFOFST = 0x1, unprogrammed default
 15477                           ;	Timer3 Clock input mux bit
 15478                           ;	T3CMX = 0x1, unprogrammed default
 15479                           ;	ECCP2 B output mux bit
 15480                           ;	P2BMX = 0x1, unprogrammed default
 15481                           ;	MCLR Pin Enable bit
 15482                           ;	MCLRE = 0x1, unprogrammed default
 15483   300005                     	org	3145733
 15484   300005  BF                 	db	191
 15485                           
 15486                           ;Config register CONFIG4L @ 0x300006
 15487                           ;	unspecified, using default values
 15488                           ;	Stack Full/Underflow Reset Enable bit
 15489                           ;	STVREN = 0x1, unprogrammed default
 15490                           ;	Single-Supply ICSP Enable bit
 15491                           ;	LVP = 0x1, unprogrammed default
 15492                           ;	Extended Instruction Set Enable bit
 15493                           ;	XINST = 0x0, unprogrammed default
 15494                           ;	Background Debug
 15495                           ;	DEBUG = 0x1, unprogrammed default
 15496   300006                     	org	3145734
 15497   300006  85                 	db	133
 15498                           
 15499                           ; Padding undefined space
 15500   300007                     	org	3145735
 15501   300007  FF                 	db	255
 15502                           
 15503                           ;Config register CONFIG5L @ 0x300008
 15504                           ;	unspecified, using default values
 15505                           ;	Code Protection Block 0
 15506                           ;	CP0 = 0x1, unprogrammed default
 15507                           ;	Code Protection Block 1
 15508                           ;	CP1 = 0x1, unprogrammed default
 15509                           ;	Code Protection Block 2
 15510                           ;	CP2 = 0x1, unprogrammed default
 15511                           ;	Code Protection Block 3
 15512                           ;	CP3 = 0x1, unprogrammed default
 15513   300008                     	org	3145736
 15514   300008  0F                 	db	15
 15515                           
 15516                           ;Config register CONFIG5H @ 0x300009
 15517                           ;	unspecified, using default values
 15518                           ;	Boot Block Code Protection bit
 15519                           ;	CPB = 0x1, unprogrammed default
 15520                           ;	Data EEPROM Code Protection bit
 15521                           ;	CPD = 0x1, unprogrammed default
 15522   300009                     	org	3145737
 15523   300009  C0                 	db	192
 15524                           
 15525                           ;Config register CONFIG6L @ 0x30000A
 15526                           ;	unspecified, using default values
 15527                           ;	Write Protection Block 0
 15528                           ;	WRT0 = 0x1, unprogrammed default
 15529                           ;	Write Protection Block 1
 15530                           ;	WRT1 = 0x1, unprogrammed default
 15531                           ;	Write Protection Block 2
 15532                           ;	WRT2 = 0x1, unprogrammed default
 15533                           ;	Write Protection Block 3
 15534                           ;	WRT3 = 0x1, unprogrammed default
 15535   30000A                     	org	3145738
 15536   30000A  0F                 	db	15
 15537                           
 15538                           ;Config register CONFIG6H @ 0x30000B
 15539                           ;	unspecified, using default values
 15540                           ;	Configuration Register Write Protection bit
 15541                           ;	WRTC = 0x1, unprogrammed default
 15542                           ;	Boot Block Write Protection bit
 15543                           ;	WRTB = 0x1, unprogrammed default
 15544                           ;	Data EEPROM Write Protection bit
 15545                           ;	WRTD = 0x1, unprogrammed default
 15546   30000B                     	org	3145739
 15547   30000B  E0                 	db	224
 15548                           
 15549                           ;Config register CONFIG7L @ 0x30000C
 15550                           ;	unspecified, using default values
 15551                           ;	Table Read Protection Block 0
 15552                           ;	EBTR0 = 0x1, unprogrammed default
 15553                           ;	Table Read Protection Block 1
 15554                           ;	EBTR1 = 0x1, unprogrammed default
 15555                           ;	Table Read Protection Block 2
 15556                           ;	EBTR2 = 0x1, unprogrammed default
 15557                           ;	Table Read Protection Block 3
 15558                           ;	EBTR3 = 0x1, unprogrammed default
 15559   30000C                     	org	3145740
 15560   30000C  0F                 	db	15
 15561                           
 15562                           ;Config register CONFIG7H @ 0x30000D
 15563                           ;	unspecified, using default values
 15564                           ;	Boot Block Table Read Protection bit
 15565                           ;	EBTRB = 0x1, unprogrammed default
 15566   30000D                     	org	3145741
 15567   30000D  40                 	db	64
 15568                           tosu	equ	0xFFF
 15569                           tosh	equ	0xFFE
 15570                           tosl	equ	0xFFD
 15571                           stkptr	equ	0xFFC
 15572                           pclatu	equ	0xFFB
 15573                           pclath	equ	0xFFA
 15574                           pcl	equ	0xFF9
 15575                           tblptru	equ	0xFF8
 15576                           tblptrh	equ	0xFF7
 15577                           tblptrl	equ	0xFF6
 15578                           tablat	equ	0xFF5
 15579                           prodh	equ	0xFF4
 15580                           prodl	equ	0xFF3
 15581                           indf0	equ	0xFEF
 15582                           postinc0	equ	0xFEE
 15583                           postdec0	equ	0xFED
 15584                           preinc0	equ	0xFEC
 15585                           plusw0	equ	0xFEB
 15586                           fsr0h	equ	0xFEA
 15587                           fsr0l	equ	0xFE9
 15588                           wreg	equ	0xFE8
 15589                           indf1	equ	0xFE7
 15590                           postinc1	equ	0xFE6
 15591                           postdec1	equ	0xFE5
 15592                           preinc1	equ	0xFE4
 15593                           plusw1	equ	0xFE3
 15594                           fsr1h	equ	0xFE2
 15595                           fsr1l	equ	0xFE1
 15596                           bsr	equ	0xFE0
 15597                           indf2	equ	0xFDF
 15598                           postinc2	equ	0xFDE
 15599                           postdec2	equ	0xFDD
 15600                           preinc2	equ	0xFDC
 15601                           plusw2	equ	0xFDB
 15602                           fsr2h	equ	0xFDA
 15603                           fsr2l	equ	0xFD9
 15604                           status	equ	0xFD8

Data Sizes:
    Strings     436
    Constant    0
    Data        7
    BSS         174
    Persistent  0
    Stack       0

Auto Spaces:
    Space          Size  Autos    Used
    COMRAM           63     11      45
    BANK0           160     11     158
    BANK1           256      0       0
    BANK2           256      0       0
    BANK3           256      0       0
    BANK4           256      0       0
    BANK5           256      0       0
    BANK6           256      0       0
    BANK7           256      0       0
    BANK8           256      0       0
    BANK9           256      0       0
    BANK10          256      0       0
    BANK11          256      0       0
    BANK12          256      0       0
    BANK13          256      0       0
    BANK14          256      0       0
    BANK15           56      0       0

Pointer List with Targets:

    init_state$0	PTR struct fsm_t size(2) Largest target is 2
		 -> fsm(STACK[2]), 

    new_state$0	PTR struct fsm_t size(2) Largest target is 2
		 -> fsm(STACK[2]), 

    S50$0$0	PTR struct fsm_t size(2) Largest target is 2
		 -> fsm(STACK[2]), 

    _r	PTR const unsigned char  size(2) Largest target is 4
		 -> STR_33(CODE[4]), 

    r	PTR const unsigned char  size(2) Largest target is 4
		 -> STR_33(CODE[4]), 

    _l	PTR const unsigned char  size(2) Largest target is 23
		 -> STR_24(CODE[23]), STR_23(CODE[16]), STR_22(CODE[17]), STR_20(CODE[12]), 
		 -> STR_19(CODE[17]), STR_18(CODE[15]), STR_16(CODE[18]), STR_15(CODE[14]), 
		 -> STR_12(CODE[15]), STR_11(CODE[14]), STR_8(CODE[14]), STR_5(CODE[14]), 
		 -> STR_2(CODE[17]), 

    l	PTR const unsigned char  size(2) Largest target is 23
		 -> STR_24(CODE[23]), STR_23(CODE[16]), STR_22(CODE[17]), STR_20(CODE[12]), 
		 -> STR_19(CODE[17]), STR_18(CODE[15]), STR_16(CODE[18]), STR_15(CODE[14]), 
		 -> STR_12(CODE[15]), STR_11(CODE[14]), STR_8(CODE[14]), STR_5(CODE[14]), 
		 -> STR_2(CODE[17]), 

    s	PTR const unsigned char  size(2) Largest target is 7
		 -> ?_printf(COMRAM[2]), nuls(STACK[7]), ?_sprintf(COMRAM[2]), msg(BANK0[33]), 

    a	PTR const unsigned char  size(2) Largest target is 7
		 -> ?_printf(COMRAM[2]), nuls(STACK[7]), ?_sprintf(COMRAM[2]), msg(BANK0[33]), 

    dest	PTR unsigned char  size(2) Largest target is 80
		 -> dbuf(BANK0[80]), 

    d	PTR unsigned char  size(2) Largest target is 80
		 -> dbuf(BANK0[80]), 

    src	PTR const unsigned char  size(2) Largest target is 4
		 -> STR_28(CODE[4]), STR_25(CODE[4]), 

    s	PTR const unsigned char  size(2) Largest target is 4
		 -> STR_28(CODE[4]), STR_25(CODE[4]), 

    fmt	PTR const unsigned char  size(2) Largest target is 18
		 -> STR_23(CODE[16]), STR_22(CODE[17]), STR_20(CODE[12]), STR_19(CODE[17]), 
		 -> STR_18(CODE[15]), STR_16(CODE[18]), STR_15(CODE[14]), STR_12(CODE[15]), 
		 -> STR_11(CODE[14]), STR_8(CODE[14]), STR_5(CODE[14]), STR_2(CODE[17]), 

    ap	PTR void [1] size(2) Largest target is 2
		 -> ?_printf(COMRAM[2]), ?_sprintf(COMRAM[2]), 

    s	PTR const unsigned char  size(2) Largest target is 80
		 -> dbuf(BANK0[80]), 

    fp	PTR struct _IO_FILE size(2) Largest target is 12
		 -> f(STACK[12]), NULL(NULL[0]), 

    fp...source	PTR const unsigned char  size(2) Largest target is 0

    fp...buffer	PTR unsigned char  size(2) Largest target is 0

    fp	PTR struct _IO_FILE size(2) Largest target is 12
		 -> f(STACK[12]), NULL(NULL[0]), 

    d1	PTR void  size(2) Largest target is 80
		 -> dbuf(BANK0[80]), 

    d	PTR unsigned char  size(2) Largest target is 80
		 -> dbuf(BANK0[80]), 

    s1	PTR const void  size(2) Largest target is 80
		 -> dbuf(BANK0[80]), 

    s	PTR const unsigned char  size(2) Largest target is 80
		 -> dbuf(BANK0[80]), 

    ap	PTR PTR void  size(2) Largest target is 2
		 -> ap(STACK[2]), ap(STACK[2]), 

    fp	PTR struct _IO_FILE size(2) Largest target is 12
		 -> f(STACK[12]), NULL(NULL[0]), 

    fmt	PTR const unsigned char  size(2) Largest target is 23
		 -> STR_24(CODE[23]), STR_23(CODE[16]), STR_22(CODE[17]), STR_20(CODE[12]), 
		 -> STR_19(CODE[17]), STR_18(CODE[15]), STR_16(CODE[18]), STR_15(CODE[14]), 
		 -> STR_12(CODE[15]), STR_11(CODE[14]), STR_8(CODE[14]), STR_5(CODE[14]), 
		 -> STR_2(CODE[17]), 

    cfmt	PTR unsigned char  size(2) Largest target is 23
		 -> STR_24(CODE[23]), STR_23(CODE[16]), STR_22(CODE[17]), STR_20(CODE[12]), 
		 -> STR_19(CODE[17]), STR_18(CODE[15]), STR_16(CODE[18]), STR_15(CODE[14]), 
		 -> STR_12(CODE[15]), STR_11(CODE[14]), STR_8(CODE[14]), STR_5(CODE[14]), 
		 -> STR_2(CODE[17]), 

    cp	PTR unsigned char  size(2) Largest target is 23
		 -> STR_24(CODE[23]), STR_23(CODE[16]), STR_22(CODE[17]), STR_20(CODE[12]), 
		 -> STR_19(CODE[17]), STR_18(CODE[15]), STR_16(CODE[18]), STR_15(CODE[14]), 
		 -> STR_12(CODE[15]), STR_11(CODE[14]), STR_8(CODE[14]), STR_5(CODE[14]), 
		 -> STR_2(CODE[17]), 

    fp	PTR struct _IO_FILE size(2) Largest target is 12
		 -> f(STACK[12]), NULL(NULL[0]), 

    ap	PTR PTR void  size(2) Largest target is 2
		 -> ap(STACK[2]), ap(STACK[2]), 

    fmt	PTR PTR unsigned char  size(2) Largest target is 2
		 -> cfmt(STACK[2]), 

    S2486$vp	PTR void  size(2) Largest target is 0

    convarg.vp	PTR void  size(2) Largest target is 0

    ap	PTR PTR void [1] size(2) Largest target is 2
		 -> ap(STACK[2]), ap(STACK[2]), 

    fmt	PTR PTR const unsigned char  size(2) Largest target is 2
		 -> cfmt(STACK[2]), 

    fp	PTR struct _IO_FILE size(2) Largest target is 12
		 -> f(STACK[12]), NULL(NULL[0]), 

    s	PTR unsigned char  size(2) Largest target is 2
		 -> ?_printf(COMRAM[2]), ?_sprintf(COMRAM[2]), msg(BANK0[33]), 

    cp	PTR unsigned char  size(2) Largest target is 7
		 -> ?_printf(COMRAM[2]), nuls(STACK[7]), ?_sprintf(COMRAM[2]), msg(BANK0[33]), 

    sp__memcpy	PTR void  size(2) Largest target is 80
		 -> dbuf(BANK0[80]), 

    fp	PTR struct _IO_FILE size(2) Largest target is 12
		 -> f(STACK[12]), NULL(NULL[0]), 

    sp__strcpy	PTR unsigned char  size(2) Largest target is 80
		 -> dbuf(BANK0[80]), 

    buf	PTR unsigned char  size(2) Largest target is 80
		 -> dbuf(BANK0[80]), 

    fp	PTR struct _IO_FILE size(2) Largest target is 12
		 -> f(STACK[12]), NULL(NULL[0]), 

    fmt	PTR const unsigned char  size(2) Largest target is 23
		 -> STR_24(CODE[23]), 

    s	PTR unsigned char  size(2) Largest target is 17
		 -> str(UNKNOWN), 

    ap	PTR void [1] size(2) Largest target is 2
		 -> ?_printf(COMRAM[2]), ?_sprintf(COMRAM[2]), 

    S2396$source	PTR const unsigned char  size(2) Largest target is 0

    f...source	PTR const unsigned char  size(2) Largest target is 0

    S2396$buffer	PTR unsigned char  size(2) Largest target is 0

    f...buffer	PTR unsigned char  size(2) Largest target is 0

    fsm	PTR struct fsm_t size(2) Largest target is 2
		 -> fsm(STACK[2]), 

    fsm	PTR struct fsm_t size(2) Largest target is 2
		 -> fsm(STACK[2]), 

    fsm	PTR struct fsm_t size(2) Largest target is 2
		 -> fsm(STACK[2]), 

    fsm	PTR struct fsm_t size(2) Largest target is 2
		 -> fsm(STACK[2]), 

    fsm	PTR struct fsm_t size(2) Largest target is 2
		 -> fsm(STACK[2]), 

    fsm	PTR struct fsm_t size(2) Largest target is 2
		 -> fsm(STACK[2]), 

    fsm	PTR struct fsm_t size(2) Largest target is 2
		 -> fsm(STACK[2]), 

    fsm.state	PTR FTN(PTR struct fsm_t,unsigned char ,)void  size(2) Largest target is 1
		 -> uart_state(), pot_state(), state4(), state3(), 
		 -> state2(), state1(), init(), 

    cb	PTR FTN()void  size(2) Largest target is 1
		 -> rc_isr_handle(), 

    RC_isr_cb	PTR FTN()void  size(2) Largest target is 1
		 -> rc_isr_handle(), NULL(), 

    textData	PTR unsigned char  size(2) Largest target is 25
		 -> str(UNKNOWN), STR_21(CODE[25]), STR_17(CODE[23]), STR_14(CODE[22]), 
		 -> STR_13(CODE[22]), STR_10(CODE[22]), STR_9(CODE[22]), STR_7(CODE[22]), 
		 -> STR_6(CODE[22]), STR_4(CODE[22]), STR_3(CODE[21]), STR_1(CODE[17]), 

    fsm.state	PTR FTN(PTR struct fsm_t,unsigned char ,)void  size(2) Largest target is 1
		 -> uart_state(), pot_state(), state4(), state3(), 
		 -> state2(), state1(), init(), 

    new_state	PTR FTN(PTR struct fsm_t,unsigned char ,)void  size(2) Largest target is 1
		 -> uart_state(), pot_state(), state4(), state3(), 
		 -> state2(), state1(), 

    fsm	PTR struct fsm_t size(2) Largest target is 2
		 -> fsm(STACK[2]), 

    fsm.state	PTR FTN(PTR struct fsm_t,unsigned char ,)void  size(2) Largest target is 1
		 -> uart_state(), pot_state(), state4(), state3(), 
		 -> state2(), state1(), init(), 

    fsm	PTR struct fsm_t size(2) Largest target is 2
		 -> fsm(STACK[2]), 

    S50fsm_t$state	PTR FTN(PTR struct fsm_t,unsigned char ,)void  size(2) Largest target is 1
		 -> uart_state(), pot_state(), state4(), state3(), 
		 -> state2(), state1(), init(), 

    fsm.state	PTR FTN(PTR struct fsm_t,unsigned char ,)void  size(2) Largest target is 1
		 -> uart_state(), pot_state(), state4(), state3(), 
		 -> state2(), state1(), init(), 

    init_state	PTR FTN(PTR struct fsm_t,unsigned char ,)void  size(2) Largest target is 1
		 -> init(), 

    fsm	PTR struct fsm_t size(2) Largest target is 2
		 -> fsm(STACK[2]), 

    out	PTR unsigned char  size(2) Largest target is 1
		 -> event(STACK[1]), 

    out	PTR unsigned char  size(2) Largest target is 1
		 -> event(STACK[1]), 

    queue	PTR volatile struct . size(2) Largest target is 34
		 -> event_queue(BANK0[34]), 

    queue	PTR volatile struct . size(2) Largest target is 34
		 -> event_queue(BANK0[34]), 


Critical Paths under _main in COMRAM

    None.

Critical Paths under _LOW_ISR in COMRAM

    None.

Critical Paths under _HIGH_ISR in COMRAM

    None.

Critical Paths under _main in BANK0

    None.

Critical Paths under _LOW_ISR in BANK0

    None.

Critical Paths under _HIGH_ISR in BANK0

    None.

Critical Paths under _main in BANK1

    None.

Critical Paths under _LOW_ISR in BANK1

    None.

Critical Paths under _HIGH_ISR in BANK1

    None.

Critical Paths under _main in BANK2

    None.

Critical Paths under _LOW_ISR in BANK2

    None.

Critical Paths under _HIGH_ISR in BANK2

    None.

Critical Paths under _main in BANK3

    None.

Critical Paths under _LOW_ISR in BANK3

    None.

Critical Paths under _HIGH_ISR in BANK3

    None.

Critical Paths under _main in BANK4

    None.

Critical Paths under _LOW_ISR in BANK4

    None.

Critical Paths under _HIGH_ISR in BANK4

    None.

Critical Paths under _main in BANK5

    None.

Critical Paths under _LOW_ISR in BANK5

    None.

Critical Paths under _HIGH_ISR in BANK5

    None.

Critical Paths under _main in BANK6

    None.

Critical Paths under _LOW_ISR in BANK6

    None.

Critical Paths under _HIGH_ISR in BANK6

    None.

Critical Paths under _main in BANK7

    None.

Critical Paths under _LOW_ISR in BANK7

    None.

Critical Paths under _HIGH_ISR in BANK7

    None.

Critical Paths under _main in BANK8

    None.

Critical Paths under _LOW_ISR in BANK8

    None.

Critical Paths under _HIGH_ISR in BANK8

    None.

Critical Paths under _main in BANK9

    None.

Critical Paths under _LOW_ISR in BANK9

    None.

Critical Paths under _HIGH_ISR in BANK9

    None.

Critical Paths under _main in BANK10

    None.

Critical Paths under _LOW_ISR in BANK10

    None.

Critical Paths under _HIGH_ISR in BANK10

    None.

Critical Paths under _main in BANK11

    None.

Critical Paths under _LOW_ISR in BANK11

    None.

Critical Paths under _HIGH_ISR in BANK11

    None.

Critical Paths under _main in BANK12

    None.

Critical Paths under _LOW_ISR in BANK12

    None.

Critical Paths under _HIGH_ISR in BANK12

    None.

Critical Paths under _main in BANK13

    None.

Critical Paths under _LOW_ISR in BANK13

    None.

Critical Paths under _HIGH_ISR in BANK13

    None.

Critical Paths under _main in BANK14

    None.

Critical Paths under _LOW_ISR in BANK14

    None.

Critical Paths under _HIGH_ISR in BANK14

    None.

Critical Paths under _main in BANK15

    None.

Critical Paths under _LOW_ISR in BANK15

    None.

Critical Paths under _HIGH_ISR in BANK15

    None.

Call Graph Tables:

 ---------------------------------------------------------------------------------
 (Depth) Function   	        Calls       Base Space   Used Autos Params    Refs
 ---------------------------------------------------------------------------------
 (0) _main                                                 3     3      0  192912
                           _LCD_Init
                           _adc_init
                           _bsp_init
                      _bsp_reg_RC_cb
                       _fsm_dispatch
                      _fsm_get_event
                           _fsm_init
                          _uart_init
 ---------------------------------------------------------------------------------
 (1) _uart_init                                            0     0      0       0
 ---------------------------------------------------------------------------------
 (1) _fsm_init                                             4     0      4   96334
                       _fsm_dispatch
 ---------------------------------------------------------------------------------
 (1) _fsm_get_event                                        2     0      2     177
                            _get_evt
 ---------------------------------------------------------------------------------
 (2) _get_evt                                              5     1      4     155
 ---------------------------------------------------------------------------------
 (1) _bsp_reg_RC_cb                                        2     0      2      15
 ---------------------------------------------------------------------------------
 (1) _bsp_init                                             0     0      0       0
 ---------------------------------------------------------------------------------
 (1) _adc_init                                             0     0      0       0
 ---------------------------------------------------------------------------------
 (1) _LCD_Init                                             0     0      0      22
                           _LCD_Send
 ---------------------------------------------------------------------------------
 (?) _fsm_transition (recursive)                           4     0      4     220
                       _fsm_dispatch
 ---------------------------------------------------------------------------------
 (?) _fsm_dispatch (recursive)                             3     0      3   96268
                               _init *
                          _pot_state *
                             _state1 *
                             _state2 *
                             _state3 *
                             _state4 *
                         _uart_state *
 ---------------------------------------------------------------------------------
 (?) _uart_state (recursive)                               3     0      3   13482
                          _LCD_Clear
                     _LCD_ShowString
                     _fsm_transition
                             _printf
 ---------------------------------------------------------------------------------
 (?) _state4 (recursive)                                   3     0      3   13504
                          _LCD_Clear
                     _LCD_ShowString
                     _fsm_transition
                             _printf
 ---------------------------------------------------------------------------------
 (?) _state3 (recursive)                                   3     0      3   13526
                          _LCD_Clear
                     _LCD_ShowString
                     _fsm_transition
                             _printf
 ---------------------------------------------------------------------------------
 (?) _state2 (recursive)                                   3     0      3   13526
                          _LCD_Clear
                     _LCD_ShowString
                    _bsp_set_timeout
                     _fsm_transition
                             _printf
 ---------------------------------------------------------------------------------
 (?) _state1 (recursive)                                   3     0      3   13592
                     _LCD_ShowString
                      _bsp_drive_led
                     _fsm_transition
                             _printf
 ---------------------------------------------------------------------------------
 (?) _bsp_drive_led                                        1     0      1     132
 ---------------------------------------------------------------------------------
 (?) _pot_state (recursive)                               20    17      3   28528
                          _LCD_Clear
                     _LCD_ShowString
                            ___flmul
                           ___xxtofl
                           _adc_read
                     _fsm_transition
                             _printf
                            _sprintf
 ---------------------------------------------------------------------------------
 (?) _sprintf                                             24    16      8   13184
                           _vfprintf
 ---------------------------------------------------------------------------------
 (?) _adc_read                                             3     2      1      45
 ---------------------------------------------------------------------------------
 (?) ___xxtofl                                            10     5      5     322
 ---------------------------------------------------------------------------------
 (?) _LCD_Clear                                            0     0      0      22
                           _LCD_Send
 ---------------------------------------------------------------------------------
 (?) _init (recursive)                                     3     0      3   13482
                     _LCD_ShowString
                    _bsp_set_timeout
                     _fsm_transition
                             _printf
 ---------------------------------------------------------------------------------
 (?) _printf                                               8     4      4   13039
                           _vfprintf
 ---------------------------------------------------------------------------------
 (?) _vfprintf                                             8     2      6   12979
                          _vfpfcnvrt
 ---------------------------------------------------------------------------------
 (?) _vfpfcnvrt                                           19    13      6   12842
                             _efgtoa
                              _fputc
                 _read_prec_or_width
                               _stoa
                            _strncmp
 ---------------------------------------------------------------------------------
 (?) _strncmp                                             10     4      6     225
 ---------------------------------------------------------------------------------
 (?) _stoa                                                21    17      4     704
                              _fputc
                             _strlen
 ---------------------------------------------------------------------------------
 (?) _strlen                                               4     2      2      90
 ---------------------------------------------------------------------------------
 (?) _read_prec_or_width                                   7     3      4     180
 ---------------------------------------------------------------------------------
 (?) _efgtoa                                              52    45      7   10816
                            ___fladd
                            ___fldiv
                             ___fleq
                             ___flge
                            ___flmul
                            ___flneg
                            ___flsub
                            ___fltol
                      ___fpclassifyf
                             _floorf
                               _labs
                             _memcpy
                                _pad
                             _strcpy
 ---------------------------------------------------------------------------------
 (?) _strcpy                                               8     4      4      96
 ---------------------------------------------------------------------------------
 (?) _pad                                                 10     4      6     751
                              _fputc
                              _fputs
 ---------------------------------------------------------------------------------
 (?) _fputs                                                7     3      4     345
                              _fputc
 ---------------------------------------------------------------------------------
 (?) _fputc                                                4     0      4     248
                              _putch
 ---------------------------------------------------------------------------------
 (?) _putch                                                1     0      1      22
 ---------------------------------------------------------------------------------
 (?) _memcpy                                              11     5      6     143
 ---------------------------------------------------------------------------------
 (?) _labs                                                 4     0      4      66
 ---------------------------------------------------------------------------------
 (?) _floorf                                              14    10      4     338
 ---------------------------------------------------------------------------------
 (?) ___fpclassifyf                                       10     6      4     135
 ---------------------------------------------------------------------------------
 (?) ___fltol                                              6     2      4     229
 ---------------------------------------------------------------------------------
 (?) ___flsub                                              8     0      8    2007
                            ___fladd
 ---------------------------------------------------------------------------------
 (?) ___fladd                                             12     4      8    1962
 ---------------------------------------------------------------------------------
 (?) ___flneg                                              4     0      4      45
 ---------------------------------------------------------------------------------
 (?) ___flmul                                             21    13      8    1445
 ---------------------------------------------------------------------------------
 (?) ___flge                                               8     0      8     182
 ---------------------------------------------------------------------------------
 (?) ___fleq                                               8     0      8      90
 ---------------------------------------------------------------------------------
 (?) ___fldiv                                             21    13      8    1099
 ---------------------------------------------------------------------------------
 (?) _bsp_set_timeout                                      4     0      4      22
 ---------------------------------------------------------------------------------
 (?) _LCD_ShowString                                       4     1      3     157
                           _LCD_Send
 ---------------------------------------------------------------------------------
 (?) _LCD_Send                                             1     0      1      22
 ---------------------------------------------------------------------------------
 (Depth) Function   	        Calls       Base Space   Used Autos Params    Refs
 ---------------------------------------------------------------------------------
 (?) _LOW_ISR                                             11    11      0     133
                                              0 BANK0     11    11      0
                      _fsm_add_event
 ---------------------------------------------------------------------------------
 (?) _fsm_add_event                                        1     0      1     133
                          _write_evt
 ---------------------------------------------------------------------------------
 (?) _write_evt                                            4     1      3     111
 ---------------------------------------------------------------------------------
 (Depth) Function   	        Calls       Base Space   Used Autos Params    Refs
 ---------------------------------------------------------------------------------
 (?) _HIGH_ISR                                            11    11      0     311
                                              0 COMRAM    11    11      0
                                NULL *
                      _fsm_add_event
                      _rc_isr_handle *
 ---------------------------------------------------------------------------------
 (?) _rc_isr_handle                                        1     1      0     178
                      _fsm_add_event
 ---------------------------------------------------------------------------------
 (?) _fsm_add_event                                        1     0      1     133
                          _write_evt
 ---------------------------------------------------------------------------------
 (?) _write_evt                                            4     1      3     111
 ---------------------------------------------------------------------------------
 (?) NULL(Fake)                                            0     0      0       0
 ---------------------------------------------------------------------------------
 Estimated maximum stack depth unknown (due to recursion)
 ---------------------------------------------------------------------------------

 Call Graph Graphs:

 _main (ROOT)
   _LCD_Init
     _LCD_Send
   _adc_init
   _bsp_init
   _bsp_reg_RC_cb
   _fsm_dispatch
     _init *
       _LCD_ShowString
         _LCD_Send
       _bsp_set_timeout
       _fsm_transition
       _printf
         _vfprintf
           _vfpfcnvrt
             _efgtoa
               ___fladd
               ___fldiv
               ___fleq
               ___flge
               ___flmul
               ___flneg
               ___flsub
                 ___fladd
               ___fltol
               ___fpclassifyf
               _floorf
               _labs
               _memcpy
               _pad
                 _fputc
                   _putch
                 _fputs
                   _fputc
               _strcpy
             _fputc
             _read_prec_or_width
             _stoa
               _fputc
               _strlen
             _strncmp
     _pot_state *
       _LCD_Clear
         _LCD_Send
       _LCD_ShowString
       ___flmul
       ___xxtofl
       _adc_read
       _fsm_transition
       _printf
       _sprintf
         _vfprintf
     _state1 *
       _LCD_ShowString
       _bsp_drive_led
       _fsm_transition
       _printf
     _state2 *
       _LCD_Clear
       _LCD_ShowString
       _bsp_set_timeout
       _fsm_transition
       _printf
     _state3 *
       _LCD_Clear
       _LCD_ShowString
       _fsm_transition
       _printf
     _state4 *
       _LCD_Clear
       _LCD_ShowString
       _fsm_transition
       _printf
     _uart_state *
       _LCD_Clear
       _LCD_ShowString
       _fsm_transition
       _printf
   _fsm_get_event
     _get_evt
   _fsm_init
     _fsm_dispatch
   _uart_init

 _LOW_ISR (ROOT)
   _fsm_add_event
     _write_evt

 _HIGH_ISR (ROOT)
   NULL(Fake) *
   _fsm_add_event *
     _write_evt
   _rc_isr_handle *
     _fsm_add_event

 Address spaces:
Name               Size   Autos  Total    Cost      Usage
BIGRAM             F37      0       0      54        0.0%
EEDATA             400      0       0       0        0.0%
BITBANK14          100      0       0      32        0.0%
BANK14             100      0       0      33        0.0%
BITBANK13          100      0       0      30        0.0%
BANK13             100      0       0      31        0.0%
BITBANK12          100      0       0      28        0.0%
BANK12             100      0       0      29        0.0%
BITBANK11          100      0       0      26        0.0%
BANK11             100      0       0      27        0.0%
BITBANK10          100      0       0      24        0.0%
BANK10             100      0       0      25        0.0%
BITBANK9           100      0       0      22        0.0%
BANK9              100      0       0      23        0.0%
BITBANK8           100      0       0      20        0.0%
BANK8              100      0       0      21        0.0%
BITBANK7           100      0       0      18        0.0%
BANK7              100      0       0      19        0.0%
BITBANK6           100      0       0      16        0.0%
BANK6              100      0       0      17        0.0%
BITBANK5           100      0       0      14        0.0%
BANK5              100      0       0      15        0.0%
BITBANK4           100      0       0      12        0.0%
BANK4              100      0       0      13        0.0%
BITBANK3           100      0       0      10        0.0%
BANK3              100      0       0      11        0.0%
BITBANK2           100      0       0       8        0.0%
BANK2              100      0       0       9        0.0%
BITBANK1           100      0       0       6        0.0%
BANK1              100      0       0       7        0.0%
BITBANK0            A0      0       0       4        0.0%
BANK0               A0      B      9E       5       98.8%
BITCOMRAM           3F      0       0       0        0.0%
COMRAM              3F      B      2D       1       71.4%
BITBANK15           38      0       0      34        0.0%
BANK15              38      0       0      35        0.0%
BITBIGSFRlhhhhh     21      0       0      37        0.0%
BITBIGSFRllhlll     1E      0       0      50        0.0%
BITBIGSFRllhllh      D      0       0      49        0.0%
BITBIGSFRllhlll      D      0       0      51        0.0%
BITBIGSFRh           D      0       0      36        0.0%
BITBIGSFRlhhl        A      0       0      41        0.0%
BITBIGSFRlhhhlh      8      0       0      38        0.0%
BITBIGSFRlhlll       7      0       0      44        0.0%
BITBIGSFRllhllh      6      0       0      46        0.0%
BITBIGSFRlhllhh      6      0       0      42        0.0%
BITBIGSFRllhlhh      5      0       0      45        0.0%
BITBIGSFRlhhhll      4      0       0      40        0.0%
BITBIGSFRlhllhl      4      0       0      43        0.0%
BITBIGSFRlhhhlh      1      0       0      39        0.0%
BITBIGSFRllhllh      1      0       0      47        0.0%
BITBIGSFRllhllh      1      0       0      48        0.0%
BITBIGSFRlll         1      0       0      52        0.0%
BIGSFR               0      0       0     200        0.0%
BITSFR_1             0      0       0     200        0.0%
SFR_1                0      0       0     200        0.0%
BITSFR               0      0       0     200        0.0%
SFR                  0      0       0     200        0.0%
STACK                0      0       0       2        0.0%
NULL                 0      0       0       0        0.0%
ABS                  0      0      CB      53        0.0%
DATA                 0      0      CB       3        0.0%
CODE                 0      0       0       0        0.0%


Microchip Technology PIC18 Macro Assembler V2.41 build 20230208172133 
Symbol Table                                                                                   Fri May 03 13:09:40 2024

                         l5 4C7C                          l10 40E4                          l22 5400  
                        l31 5274                          l25 53B8                          l34 5198  
                        l28 52EE                          l53 53D4                          l56 53D6  
                        l59 53EA                          l92 41F0                          l86 411A  
                        l95 43BC                          l88 4128                          l97 43CA  
                        l89 41D4                          l99 441A                          bsr 0FE0  
                       l102 447C                         l103 447E                         l112 5370  
                       l200 5352                         l120 51B2                         l121 51CE  
                       l114 537E                         l106 448C                         l115 5380  
                       l124 51EC                         l109 5362                         l118 51A4  
                       l400 503C                         l209 5410                         l252 50F4  
                       l246 53A0                         l335 4DBA                         l249 50BA  
                       l194 509E                         l347 48BE                         l700 37F6  
                       l197 464A                         l357 456A                         l367 4720  
                       l376 4B1E                         l385 4A56                         l394 3C62  
                       l662 42CC                         l673 3B0E                         l666 3A2A  
                       l940 19C8                         l677 522E                         l952 17CE  
                       l973 5324                         l985 2844                         _GIE 7F97  
                       _PR2 0FBB                         _PR6 0F4B                         _pad 48C6  
                       _msg 00D2                         tosl 0FFD                         wreg 0FE8  
                _TXSTA1bits 0FAC                        l1021 221E                        l1130 10E4  
                      l1115 4902                        l1301 4D22                        l1061 3256  
                      l1119 498A                        l1311 364E                        l1231 4ED4  
                      l1241 3988                        l1209 2CBA                        l1081 47E4  
                      l1307 4F50                        l1180 3348                        l1262 4FCC  
                      l1248 2FF6                        l3200 53D6                        l1280 3EB6  
                      l4000 02A8                        l3202 53E4                        l3210 3DDA  
                      l4002 02BC                        l4010 031E                        l3300 1422  
                      l3220 10F6                        l1268 43AE                        l3212 3E04  
                      l3204 3D98                        l4100 0988                        l4020 0386  
                      l4012 0346                        l4004 02E4                        l1197 3FD4  
                      l1189 346E                        l3310 14A4                        l3302 1426  
                      l3230 115C                        l3222 1110                        l3214 3E52  
                      l3206 3DB2                        l4110 0A8E                        l4102 09B8  
                      l4030 03DA                        l4014 0358                        l4006 02FA  
                      l1295 5142                        l3320 14F2                        l3312 14B4  
                      l3304 1454                        l3240 11D4                        l3232 116E  
                      l3224 112C                        l3216 3E98                        l3208 3DCC  
                      l1288 4E4A                        l4200 10B0                        l4120 0B7E  
                      l4112 0A9E                        l4104 09F6                        l4040 0468  
                      l4032 03E2                        l4016 035E                        l3410 18E4  
                      l3402 187A                        l3330 156A                        l3322 1522  
                      l3314 14CC                        l3306 1484                        l3250 124A  
                      l3242 11EE                        l3234 1196                        l3226 1146  
                      l4130 0C3A                        l4122 0BBC                        l4114 0AC6  
                      l4106 0A2C                        l4050 05D8                        l4042 04A6  
                      l4018 0372                        l4210 32AE                        l3500 2472  
                      l3420 192E                        l3412 18F6                        l3404 188C  
                      l3340 15E6                        l3316 14DE                        l3308 1494  
                      l3324 1526                        l3260 129E                        l3252 124E  
                      l3244 1210                        l3236 119A                        l3228 114A  
                      l4140 0CE0                        l4132 0C3E                        l4124 0BD4  
                      l4116 0B06                        l4108 0A58                        l4052 0616  
                      l4044 050A                        l4036 041A                        l4060 06C8  
                      l4028 03B2                        l4220 3330                        l4212 32C6  
                      l4204 3268                        l4300 298C                        l3510 24BE  
                      l3502 2484                        l3430 1978                        l3422 1940  
                      l3406 18A4                        l3414 18FA                        l3350 1654  
                      l3342 15FE                        l3334 157E                        l3318 14EE  
                      l3326 1548                        l3270 130E                        l3254 1260  
                      l3262 12B0                        l3246 1214                        l3238 11AC  
                      l4150 0D60                        l4142 0D0E                        l4134 0C46  
                      l4118 0B60                        l4126 0BF2                        l4070 072A  
                      l4062 06E0                        l4054 062A                        l4046 0540  
                      l4038 044A                        l4230 33D4                        l4222 3360  
                      l4214 32E0                        l4206 327C                        l4302 29A4  
                      l4310 2A1E                        l3520 2528                        l3512 24EE  
                      l3504 2484                        l3432 1990                        l3424 1944  
                      l3416 190C                        l3408 18B4                        l3360 170A  
                      l3344 1610                        l3336 15C6                        l3328 1558  
                      l3352 165C                        l3280 134A                        l3272 131A  
                      l3264 12D8                        l3256 1272                        l3248 1230  
                      l3440 4DC8                        l4160 0DD6                        l4152 0D7E  
                      l4144 0D22                        l4136 0C52                        l4128 0C22  
                      l4080 07A0                        l4072 0748                        l4064 06EE  
                      l4048 05A4                        l4240 3EC6                        l4232 33E0  
                      l4224 3370                        l4216 32EC                        l4208 3294  
                      l4312 2A3E                        l4304 29B8                        l3530 25A6  
                      l3522 254C                        l3514 24FE                        l3450 224A  
                      l3610 1A2A                        l3434 19A0                        l3426 1954  
                      l3418 191E                        l3370 1794                        l3362 171C  
                      l3354 1698                        l3346 1620                        l3338 15D6  
                      l3290 13B0                        l3282 1356                        l3274 1326  
                      l3266 12FA                        l3258 129A                        l3442 4DD4  
                      l4170 0E56                        l4162 0DEA                        l4154 0D92  
                      l4146 0D34                        l4138 0CA6                        l4090 0848  
                      l4082 07B8                        l4074 0760                        l4066 06FE  
                      l4058 0692                        l4250 3F7A                        l4242 3ECE  
                      l4234 3402                        l4226 3386                        l4218 32FC  
                      l4314 2A62                        l4322 2A9A                        l4306 29D8  
                      l4410 51A2                        l4404 4426                        l4420 532E  
                      l3540 260E                        l3532 25AA                        l3524 255C  
                      l3516 250E                        l3508 2498                        l3460 22A8  
                      l3452 2266                        l3700 1FB8                        l3620 1A82  
                      l3612 1A2E                        l3604 19DA                        l3436 19B0  
                      l3428 1968                        l3380 17DE                        l3356 16F8  
                      l3364 1738                        l3348 1624                        l3292 13CC  
                      l3284 136C                        l3276 1332                        l3268 130A  
                      l3444 4DEC                        l4172 0E6A                        l4156 0D9C  
                      l4148 0D44                        l4164 0DFE                        l4180 0F40  
                      l4092 089C                        l4076 0770                        l4084 07DC  
                      l4068 0712                        l4244 3EF8                        l4252 3F8C  
                      l4236 3420                        l4228 33A4                        l4260 34B0  
                      l4332 2B9E                        l4316 2A84                        l4324 2ACE  
                      l4412 51B4                        l4500 323A                        l4406 4462  
                      l4422 534C                        l3550 264E                        l3542 2616  
                      l3534 25D0                        l3526 2560                        l3518 2516  
                      l3470 2334                        l3462 22D0                        l3454 2280  
                      l3702 1FCA                        l3710 2004                        l3630 1B0A  
                      l3622 1AAA                        l3614 1A40                        l3606 19F4  
                      l3382 17F8                        l3374 17A8                        l3366 175E  
                      l3358 16FC                        l3390 1830                        l3294 13DE  
                      l3286 1388                        l3278 133E                        l3446 4E0A  
                      l4190 1002                        l4182 0F70                        l4174 0ED0  
                      l4166 0E18                        l4158 0DB8                        l4094 08C6  
                      l4086 07E4                        l4078 0798                        l4254 3FC8  
                      l4246 3F0A                        l4238 343E                        l4270 357C  
                      l4262 34E8                        l4342 2C36                        l4334 2BCA  
                      l4326 2AFE                        l4318 2A92                        l4414 51CC  
                      l4502 323E                        l4430 50C8                        l4510 481C  
                      l4408 4466                        l4424 5350                        l3560 26C2  
                      l3544 2628                        l3552 2662                        l3528 2572  
                      l3536 25D4                        l3480 2392                        l3472 2350  
                      l3464 22D4                        l3456 2284                        l3448 2230  
                      l3800 3AD2                        l3720 206E                        l3712 2014  
                      l3704 1FDA                        l3640 1B86                        l3632 1B1C  
                      l3624 1AD0                        l3616 1A52                        l3608 1A10  
                      l3392 1834                        l3384 180A                        l3376 17BA  
                      l3368 1782                        l3296 13F4                        l3288 139A  
                      l4192 1026                        l4184 0F96                        l4176 0F0E  
                      l4168 0E38                        l4096 092C                        l4088 0814  
                      l4248 3F46                        l4272 35A8                        l4336 2BF4  
                      l4328 2B4E                        l4344 2C72                        l4280 2856  
                      l4416 51DC                        l4432 50E8                        l4520 485E  
                      l4512 4824                        l4600 4AC8                        l2840 53CA  
                      l3570 270A                        l3562 26CC                        l3554 2672  
                      l3546 2638                        l3538 25EA                        l3490 241C  
                      l3482 23BA                        l3474 236A                        l3458 2296  
                      l3466 22E6                        l3802 3B06                        l3730 20BC  
                      l3714 2018                        l3706 1FDE                        l3650 1BE0  
                      l3642 1B98                        l3634 1B2E                        l3626 1AEC  
                      l3618 1A7A                        l3810 5212                        l3394 1844  
                      l3386 181C                        l3378 17CA                        l3298 1410  
                      l4194 104C                        l4186 0FAA                        l4178 0F22  
                      l4098 096A                        l4274 35C2                        l4266 34F4  
                      l4258 3480                        l4290 28C4                        l4282 2880  
                      l4370 4E74                        l4426 50A4                        l4450 47B6  
                      l4442 4730                        l4418 4572                        l4610 4994  
                      l4522 4866                        l4514 482C                        l4530 4882  
                      l4506 47F8                        l2842 53CC                        l3580 279C  
                      l3572 271A                        l3556 2676                        l3548 263C  
                      l3492 242C                        l3484 23BE                        l3476 236E  
                      l3468 230E                        l3804 3B0C                        l3740 2176  
                      l3732 20EC                        l3716 2028                        l3724 2082  
                      l3708 1FF0                        l3660 1CA8                        l3652 1C08  
                      l3644 1BAA                        l3636 1B56                        l3628 1B06  
                      l3812 5216                        l3396 185C                        l3388 1820  
                      l3900 4F5A                        l4196 105E                        l4188 0FC4  
                      l4276 360C                        l4268 3550                        l4292 28D6  
                      l4284 2892                        l4348 2C88                        l4372 4EA0  
                      l4436 5100                        l4460 3070                        l4428 50B8  
                      l4444 4760                        l4620 49DC                        l4612 4998  
                      l4524 486A                        l4516 4840                        l4508 47FC  
                      l4540 44BA                        l5260 46F2                        l4604 4AE2  
                      l4380 5164                        l4700 409C                        l2844 53CE  
                      l2836 53BE                        l4366 535C                        l4390 43DC  
                      l3590 27F4                        l3582 27AC                        l3574 274A  
                      l3558 2686                        l3566 26E0                        l3494 2440  
                      l3478 2380                        l3486 23D0                        l3750 21C8  
                      l3742 2186                        l3726 2094                        l3734 210A  
                      l3718 2064                        l3670 1D52                        l3662 1CCA  
                      l3654 1C3A                        l3638 1B5E                        l3398 1866  
                      l3830 3716                        l3822 36B0                        l3910 2D24  
                      l3902 4F86                        l4198 108C                        l5270 2AB0  
                      l4294 28F6                        l4286 2896                        l4374 4ECC  
                      l4438 5118                        l4470 30E6                        l4462 30A0  
                      l4454 3008                        l4446 4770                        l4622 49E4  
                      l4614 49A8                        l4526 487A                        l4518 485A  
                      l5262 453C                        l4550 4506                        l4542 44D2  
                      l4382 5186                        l2870 5076                        l4702 40C6  
                      l4710 53A2                        l2846 53D0                        l2838 53C6  
                      l4392 43EE                        l4384 43BA                        l3592 2804  
                      l3584 27CC                        l3568 26F2                        l3576 2768  
                      l3496 2456                        l3488 23F8                        l3752 21D8  
                      l3744 218E                        l3736 212A                        l3728 20AC  
                      l3680 1E00                        l3672 1D7A                        l3664 1CE6  
                      l3656 1C66                        l3648 1BBE                        l3808 51EE  
                      l3760 52F8                        l3832 3726                        l3840 3768  
                      l3824 36E4                        l3816 365C                        l3920 2DCC  
                      l3912 2D7A                        l3904 4FB4                        l5272 2BB4  
                      l4296 2920                        l4288 289A                        l4368 4E58  
                      l4480 3154                        l4472 30FC                        l4464 30C4  
                      l4456 301A                        l4448 4780                        l4624 49FE  
                      l4616 49B8                        l5264 4898                        l4552 4520  
                      l4544 44E2                        l4536 4496                        l5256 3C3C  
                      l4640 3B58                        l4632 3B20                        l4720 40FC  
                      l2880 5098                        l2872 5078                        l4704 40E0  
                      l2848 53D2                        l4394 43FA                        l4386 43BA  
                      l3594 2818                        l3586 27E4                        l3578 2788  
                      l3770 423E                        l3746 219A                        l3754 21F0  
                      l3738 2156                        l3690 1ED0                        l3682 1E28  
                      l3674 1D9C                        l3666 1D0C                        l3658 1C82  
                      l3762 52FC                        l3850 37AA                        l3826 36E8  
                      l3818 36A2                        l3930 2E9C                        l3922 2E14  
                      l3914 2DA0                        l5274 2C64                        l4298 2962  
                      l4490 31CA                        l4482 317E                        l4474 3126  
                      l4458 302A                        l4618 49CC                        l4626 4A1A  
                      l5266 4D9C                        l4546 44E4                        l4538 449A  
                      l4570 4686                        l5258 4AF8                        l4642 3B60  
                      l4634 3B24                        l4650 3C26                        l4378 5152  
                      l4730 41D2                        l4722 4108                        l2890 5388  
                      l2882 509A                        l2874 507A                        l2866 5040  
                      l4714 52BA                        l4810 4B48                        l4740 500A  
                      l4660 4BFA                        l4708 53EE                        l4396 4412  
                      l4388 43CC                        l3596 2828                        l3588 27E8  
                      l3772 427A                        l3756 2206                        l3748 21B8  
                      l3692 1EFC                        l3684 1E54                        l3676 1DC4  
                      l3668 1D30                        l3852 37BC                        l3828 3706  
                      l3940 2FB6                        l3932 2EE4                        l3908 2CCC  
                      l3860 48DE                        l4492 31CE                        l4484 3194  
                      l4476 312A                        l4468 30D8                        l5268 4A30  
                      l4548 44EC                        l4572 468E                        l4580 46DC  
                      l4564 464E                        l4644 3B7A                        l4636 3B34  
                      l4732 41E2                        l4724 410A                        l2892 538C  
                      l2884 509C                        l2876 508C                        l2868 5066  
                      l4716 52DC                        l4820 4B58                        l4812 4B4C  
                      l4750 5034                        l4742 500C                        l4734 4FD8  
                      l4662 4BFC                        l4398 4422                        l3774 428A  
                      l3766 41F2                        l3790 3A3A                        l3782 3992  
                      l3694 1F40                        l3686 1E7C                        l3678 1DE8  
                      l3854 37DE                        l3846 3782                        l3838 3740  
                      l3942 2FDE                        l3934 2F2E                        l3918 2DBC  
                      l3950 4328                        l3870 4972                        l3862 48FA  
                      l4494 31E0                        l4486 31A4                        l4478 3142  
                      l4670 4D30                        l4558 4526                        l4574 46A8  
                      l4566 4652                        l4590 4A72                        l4646 3C06  
                      l4638 3B48                        l4726 4118                        l4718 40EE  
                      l2894 538E                        l2878 508E                        l2886 5404  
                      l4830 4B8C                        l4822 4B5A                        l4814 4B50  
                      l4806 4B2C                        l4744 501C                        l4736 4FDE  
                      l4664 4C38                        l3776 42C4                        l3768 422E  
                      l3792 3A7A                        l3784 39CE                        l3696 1F66  
                      l3688 1EA8                        l3848 3798                        l3880 3904  
                      l3872 3808                        l3936 2F62                        l3928 2E5E  
                      l3952 4346                        l3864 490E                        l3960 4EFE  
                      l4496 3218                        l4488 31BA                        l4672 4D40  
                      l4680 4D86                        l4576 46C2                        l4568 4676  
                      l4592 4A82                        l4656 5238                        l4728 412A  
                      l2896 5396                        l2888 5384                        l4832 4BB4  
                      l4824 4B5C                        l4816 4B54                        l4808 4B44  
                      l4738 4FF6                        l4746 5022                        l4666 4C62  
                      l4658 4BDC                        l3778 42CA                        l3794 3A8A  
                      l3786 39DE                        l3698 1F8A                        l3882 3910  
                      l3874 3860                        l3938 2F76                        l3954 4358  
                      l3946 42DE                        l3866 4924                        l3858 48CE  
                      l3970 0170                        l3962 4F1C                        l4498 322A  
                      l4674 4D58                        l4594 4A96                        l4586 4A5E  
                      l2898 539E                        l4826 4B68                        l4818 4B56  
                      l4748 5032                        l3796 3ACA                        l3788 3A1A  
                      l3892 3980                        l3876 38AA                        l3948 4312  
                      l3956 4376                        l3868 4942                        l3980 01EC  
                      l3972 01A0                        l3964 4F38                        l4676 4D6C  
                      l4668 4D2C                        l4596 4AA6                        l4588 4A62  
                      l4692 3FEC                        l4828 4B6C                        l3798 3ACE  
                      l3878 38C4                        l3886 391C                        l3990 0248  
                      l3982 01F8                        l3974 01B0                        l3958 4EE2  
                      l4598 4AAE                        l4694 4036                        l4686 3FE0  
                      l3888 3934                        l3896 4C8E                        l3984 020A  
                      l3992 0254                        l3976 01B6                        l3968 016C  
                      l4696 4054                        l4688 3FE4                        l3898 4CBE  
                      l3994 027C                        l3986 021C                        l3978 01E4  
                      l4698 4056                        l3996 028E                        l3988 0234  
                      l3998 0294                        STR_1 FF70                        STR_2 FF4E  
                      STR_3 FF16                        STR_4 FE92                        STR_5 FFAF  
                      STR_6 FEA8                        STR_7 FEBE                        STR_8 FFBD  
                      STR_9 FED4                        _GIEH 7F97                        _GIEL 7F96  
                      u3000 191E                        u3001 191A                        u3010 1940  
                      u3011 193C                        u3100 2392                        u3020 1954  
                      u3101 238E                        u3021 1950                        u3110 241C  
                      u3030 19A0                        u3111 2418                        u3031 199C  
                      u3200 2686                        u3120 2484                        u3040 4E4A  
                      u4000 0416                        u3201 2682                        u3121 2480  
                      u3041 4E46                        u4001 0412                        u3210 26C2  
                      u3130 2528                        u3050 2280                        u4010 050A  
                      u3211 26BE                        u3131 2524                        u3051 227C  
                      u4011 0506                        u3220 26DC                        u3140 255C  
                      u3060 2296                        u3300 1A40                        u4100 09B8  
                      u4020 0540                        u3221 26D8                        u3141 2558  
                      u3061 2292                        u3301 1A3C                        u4101 09B4  
                      u4021 053C                        u3230 26F2                        u3150 25A6  
                      u3070 22A8                        u3310 1A52                        u4110 0A2C  
                      u4030 05A4                        u3231 26EE                        u3151 25A2  
                      u3071 22A4                        u3311 1A4E                        u4111 0A28  
                      u4031 05A0                        u3240 271A                        u3160 25EA  
                      u3080 236A                        u3400 1FDA                        u3320 1B06  
                      u2600 3E04                        u4200 0F70                        u4120 0A8E  
                      u4040 068E                        u3241 2716                        u3161 25E6  
                      u3081 2366                        u3401 1FD6                        u3321 1B02  
                      u2601 3E00                        u4201 0F6C                        u4121 0A8A  
                      u4041 068A                        u3250 2744                        u3170 260E  
                      u3090 2380                        u3410 2014                        u3330 1B1C  
                      u2610 3E52                        u4210 0F96                        u4130 0A9E  
                      u4050 06C8                        u3171 260A                        u3091 237C  
                      u3411 2010                        u3331 1B18                        u2611 3E4E  
                      u4211 0F92                        u4131 0A9A                        u4051 06C4  
                      u3260 2788                        u3180 2638                        u3500 21C8  
                      u3420 2028                        u3340 1B2E                        u2700 130A  
                      u2620 1146                        u4220 103A                        u4140 0B60  
                      u4060 06EE                        u4300 346E                        u3261 2784  
                      u3181 2634                        u3501 21C4                        u3421 2024  
                      u3341 1B2A                        u2701 1306                        u2621 1142  
                      u4221 1034                        u4141 0B5C                        u4061 06EA  
                      u4301 346A                        u3270 27CC                        u3190 2672  
                      u3510 422E                        u3430 2064                        u3350 1B98  
                      u2710 1454                        u2630 115C                        u4230 103C  
                      u4150 0BD4                        u4070 0760                        u4310 3EF8  
                      u3271 27C8                        u3255 2734                        u3191 266E  
                      u3511 422A                        u3431 2060                        u3351 1B94  
                      u2711 1450                        u2631 1158                        u4151 0BD0  
                      u4071 075C                        u4311 3EF4                        u3280 2804  
                      u3520 427A                        u3440 207E                        u3360 1BAA  
                      u2800 15D6                        u2720 147C                        u2640 116E  
                      u3600 3684                        u4240 105E                        u4160 0CE0  
                      u4080 0770                        u4320 3FC8                        u4400 2920  
                      u5120 4BB4                        _IPEN 7E87                        u3281 2800  
                      u3521 4276                        u3441 207A                        u3361 1BA6  
                      u2801 15D2                        u2721 1474                        u2641 116A  
                      u4241 105A                        u4161 0CDC                        u4081 076C  
                      u4321 3FC4                        u4401 291C                        u5121 4BB0  
                      u3530 42C4                        u3450 2094                        u3290 1A2A  
                      u2810 15E6                        u2650 1210                        u3610 36A2  
                      u2570 53E4                        u4170 0D34                        u4090 07B8  
                      u4330 34E8                        u4410 2962                        u3531 42C0  
                      u3451 2090                        u3291 1A26                        u2811 15E2  
                      u2651 120C                        u3611 369E                        u2571 53E0  
                      u4171 0D30                        u4091 07B4                        u4331 34E4  
                      u4411 295E                        u4500 445C                        u3540 39CE  
                      u3460 20BC                        u2900 181C                        u2820 1620  
                      u2740 14B4                        u2660 124A                        u3620 36D8  
                      u2580 3DB2                        u3700 48DE                        u4180 0D44  
                      u4260 32AE                        u4340 357C                        u4420 298C  
                      u3541 39CA                        u3461 20B8                        u2901 1818  
                      u2821 161C                        u2741 14B0                        u2661 1246  
                      u3605 367A                        u2581 3DAE                        u3701 48DA  
                      u4181 0D40                        u4261 32AA                        u4341 3578  
                      u4421 2988                        u4510 447C                        u3550 3A1A  
                      u3470 20E6                        u2910 1830                        u2830 164E  
                      u2750 14EE                        u2670 1260                        u3630 3726  
                      u2590 3DCC                        u3710 4972                        u4190 0E18  
                      u4270 32FC                        u4350 35A8                        u4430 2AFA  
                      u4511 4478                        u3551 3A16                        u3375 1D1C  
                      u2911 182C                        u2751 14EA                        u2671 125C  
                      u3631 3722                        u2591 3DC8                        u3711 496E  
                      u4191 0E14                        u4271 32F8                        u4351 35A4  
                      u4431 2AF6                        u4440 5370                        u4520 448C  
                      u3560 3A3A                        u3480 212A                        u2920 1844  
                      u2840 1698                        u2760 151C                        u2680 1272  
                      u3640 373C                        u3720 3888                        u3800 4F86  
                      u4280 332C                        u4360 35C2                        u4441 536C  
                      u4521 4488                        u3561 3A36                        u3481 2126  
                      u3385 1DD4                        u2921 1840                        u2841 1694  
                      u2681 126E                        u3641 3738                        u3625 36CE  
                      u3801 4F82                        u4281 3328                        u4361 35BE  
                      u4450 537E                        u3570 3A8A                        u3490 2176  
                      u2930 185C                        u2850 171C                        u2770 1548  
                      u2738 147E                        u2690 12FA                        u3650 3764  
                      u3730 38C4                        u3810 2D54                        u4290 33D4  
                      u4370 360C                        u4530 51B2                        u4610 45F2  
                      u4451 537A                        u4507 4452                        u3571 3A86  
                      u3491 2172                        u3475 20D6                        u3395 1F76  
                      u2931 1858                        u2851 1718                        u2835 163E  
                      u2771 1544                        u2691 12F6                        u3651 3760  
                      u3731 38C0                        u4291 33D0                        u4371 3608  
                      u4531 51AE                        u4611 45EA                        u3580 3B06  
                      u2940 1876                        u2860 1782                        u2780 1558  
                      u3660 377E                        u3740 3904                        u3900 2FB6  
                      u3820 2DA0                        u4380 2880                        u4460 4ECC  
                      u4540 51DC                        u4700 30C4                        u3581 3B02  
                      u2941 1872                        u2861 177E                        u2781 1554  
                      u2765 150C                        u3661 377A                        u3741 3900  
                      u3725 387E                        u3901 2FB2                        u3821 2D9C  
                      u4381 287C                        u4461 4EC8                        u4541 51D8  
                      u4701 30C0                        u5237 4B36                        u4470 43CA  
                      u3590 5212                        u2950 188C                        u2870 1794  
                      u2790 156A                        u3670 37AA                        u3750 3934  
                      u3830 2DCC                        u3910 43AE                        u4390 28C4  
                      u4710 3122                        u4630 4614                        u4550 4586  
                      u4471 43C6                        u3591 520E                        u2951 1888  
                      u2871 1790                        u2791 1566                        u3671 37A6  
                      u3751 3930                        u3831 2DC8                        u3815 2D4A  
                      u3911 43AA                        u4391 28C0                        u4711 311E  
                      u4631 460C                        u4551 457E                        u5247 4110  
                      u4480 43EE                        u2960 18B4                        u2880 17CA  
                      u3680 37BC                        u3920 4F38                        u4720 317A  
                      u4608 45D2                        u4481 43EA                        u2961 18B0  
                      u2881 17C6                        u3681 37B8                        u3921 4F34  
                      u4721 3176                        u5257 41E8                        u4490 4412  
                      u2970 18DE                        u2890 17DE                        u3690 37DE  
                      u3770 3976                        u3850 2E5A                        u3930 01B0  
                      u4730 31A4                        u4650 463A                        u4570 45AC  
                      u4491 440E                        u2891 17DA                        u3771 3970  
                      u3851 2E56                        u3931 01AC                        u5267 51E2  
                      u4731 31A0                        u4651 4632                        u4571 45A4  
                      u2980 18F6                        u3780 3978                        u3860 2E86  
                      u3940 020A                        u4740 31BA                        u4628 45F4  
                      u4900 41E2                        u2981 18F2                        u3765 394E  
                      u3845 2DE2                        u3941 0206                        u4741 31B6  
                      u4901 41DE                        u2990 190C                        u3870 2E9C  
                      u3846 2DEC                        u3790 4D22                        u3950 021C  
                      u4750 31CA                        u4670 50C8                        u4590 45D0  
                      u2991 1908                        u2975 18CE                        u3871 2E98  
                      u3847 2DFC                        u3791 4D1E                        u3951 0218  
                      u4751 31C6                        u4671 50C4                        u4591 45C8  
                      u3880 2F56                        u3960 027C                        u4760 322A  
                      u4680 301A                        u4648 4616                        u4568 4588  
                      u4840 4036                        u3865 2E7C                        u3961 0278  
                      u4761 3226                        u4681 3016                        u4841 4032  
                      u3890 2F62                        u3970 028E                        u4770 323A  
                      u4690 302A                        u4850 4048                        u3891 2F5E  
                      u3971 028A                        u4771 3236                        u4691 3026  
                      u4851 4040                        u3980 0346                        u4668 463C  
                      u4588 45AE                        u4780 487A                        u3885 2F4C  
                      u3981 0342                        u4781 4876                        u3990 0358  
                      u4870 40DE                        u3991 0354                        u4871 40D8  
                      u4890 4128                        u4891 4124                        u4868 404A  
                      u4885 40E0                        u4798 5262                        u4799 5274  
                      _TMR1 0FCE                        _TMR6 0F4C             __end_of_LOW_ISR 015C  
              fp__pot_state 0000                        _dbuf 0060                        _labs 4F5A  
                      _main 4B26                        _init 4D2C                        _prec 0037  
                      fsr0h 0FEA                        fsr1h 0FE2                        indf0 0FEF  
                      fsr2h 0FDA                        fsr0l 0FE9                        indf1 0FE7  
                      indf2 0FDF                        fsr1l 0FE1                        fsr2l 0FD9  
                      _stoa 3260                        btemp 0001               ___fpclassifyf 3800  
                      prodh 0FF4                        prodl 0FF3                        start 015C  
              ___param_bank 0000            __end_of_HIGH_ISR 3D98              _LCD_ShowString 43B8  
          __end_of_LCD_Init 41F2            __end_of_LCD_Send 5384             __end_of___fladd 19D2  
           __end_of___fldiv 284E             __end_of___flneg 5238                       STR_10 FEEA  
                     STR_11 FFCB                       STR_20 FFE7                       STR_12 FF91  
                     STR_13 FEBE                       STR_21 FE4B                       STR_22 FF3D  
                     STR_14 FF00                       STR_31 FFFB                       STR_15 FFD9  
                     STR_23 FF81                       STR_16 FF2B                       STR_24 FE64  
                     STR_33 FFFB                       STR_25 FFF3                       STR_17 FE7B  
                     STR_18 FFA0                       STR_19 FF5F                       STR_28 FFF7  
           __end_of___flmul 2228             __end_of___flsub 532E             __end_of___fltol 3800  
                     _RC1IE 7CED                       _RC1IF 7CF5                       i1l229 012E  
                     i2l219 3D6A                       _TX1IF 7CF4               fp__uart_state 0000  
           __end_of_get_evt 40EE             _bsp_set_timeout 532E                       _fputc 3D98  
                     _fputs 4DC2                       _width 0035                       _putch 53D6  
                     pclath 0FFA                       pclatu 0FFB                       tablat 0FF5  
                     ltemp0 0001                       ltemp1 0005                       ltemp2 0009  
                     plusw1 0FE3                       plusw2 0FDB                       ttemp0 0001  
                     ttemp1 0004                       ttemp2 0007                       ttemp3 000A  
                     ttemp5 0002                       ttemp6 0005                       ttemp7 0009  
                     status 0FD8                       wtemp0 0001                       wtemp1 0003  
                     wtemp2 0005                       wtemp3 0007                       wtemp4 0009  
                     wtemp5 000B                       wtemp8 0002             __end_of_sprintf 47F8  
           __end_of_strncmp 3658             __initialization 527C      __end_of_LCD_ShowString 4496  
              __end_of_labs 4FD6                __end_of_main 4BDA                __end_of_init 4DC2  
              __end_of_stoa 3478               _fsm_add_event 53EE           __end_of_LCD_Clear 51EE  
             __activetblptr 0003  __end_of_read_prec_or_width 3FDE                   ??_LOW_ISR 00F3  
                    _ADRESH 0FC4                      _ADRESL 0FC3                      _ANSELA 0F38  
                    _ANSELE 0F3C                      _GODONE 7E11            __end_of_adc_init 53A2  
          __end_of_adc_read 50FC                      i1l5040 00D6                      i1l5050 0112  
                    i1l5042 00DE                      i1l5034 0048                      i1l5052 0124  
                    i1l5044 00F0                      i1l5036 0056                      i1l5054 012C  
                    i1l5046 00F8                      i1l5038 0064                      i1l5048 010A  
                    i2l4760 3CC8                      i2l4752 3C9C                      i2l4770 3D1C  
                    i2l4754 3CAA                      i2l4762 3CCA                      i2l4780 3D40  
                    i2l4772 3D20                      i2l4764 3CD8                      i2l4756 3CB8  
                    i2l4782 3D52                      i2l4774 3D22                      i2l4766 3CE6  
                    i2l4758 3CC0                      i2l4768 3D14                      i2l4776 3D24  
                    i2l4778 3D32                      _RCREG1 0FAE                      u480_20 4BEE  
                    u480_21 4BE6                      u482_20 4C7A                      u481_28 4BF0  
                    u482_21 4C74                      u491_40 4FF6                      u491_41 4FF2  
                    u483_25 4C7C                      u492_40 501C                      u492_41 5018  
                    _SPBRG1 0FAF                      _TMR1IE 7CE8                      _TMR1IF 7CF0  
                    _TMR2IE 7CE9                      _TMR2IF 7CF1                      _TMR6IE 7BEA  
                    _TMR6IF 7BF2                      _TMR1ON 7E68                      _TMR2ON 7DD2  
                    _TMR6ON 7A52                      _SSP2IF 7D27                      _TXREG1 0FAD  
          __end_of___xxtofl 3260               _fsm_get_event 53A2                      ___flge 3992  
                    ___fleq 41F2            __end_of_bsp_init 50A0                      _efgtoa 0164  
          __end_of_fsm_init 52F8                      _floorf 2CC4                      _memcpy 42D6  
                    clear_0 52A2                      clear_1 52AE                      isa$std 0001  
                    _printf 50FC                      _state1 47F8                      _state2 4496  
                    _state3 464E                      _state4 4A5E                      _strcpy 4C86  
                    _strlen 4EDE     __end_of_bsp_set_timeout 535C                __pdataCOMRAM 0047  
                    lltemp0 0001                      lltemp1 0009                      lltemp2 0011  
                    lltemp3 0019                __mediumconst FE4A                      preinc2 0FDC  
                    tblptrh 0FF7                      tblptrl 0FF6                      tblptru 0FF8  
          __end_of_vfprintf 4EDE                   ?_HIGH_ISR 003C                  __accesstop 0060  
   __end_of__initialization 52B4               ___rparam_used 0001              __pcstackCOMRAM 003C  
                ___inthi_sp 05BC                  ___intlo_sp 0A7A            fp__rc_isr_handle 0000  
             __end_of_fputc 3EC0               __end_of_fputs 4E54               __end_of_putch 53EE  
                ??_HIGH_ISR 003C                  __pbssBANK0 0060        __end_of_fsm_dispatch 527C  
                   _LOW_ISR 0018               _rc_isr_handle 4FD6                     _SSP2ADD 0F6E  
                   _SSP2BUF 0F6F                     __Hparam 0000                     __Lparam 0000  
                   ___fladd 10EE                     ___fldiv 2228                     ___flneg 51EE  
                   ___flmul 19D2                     ___flsub 52F8                     ___fltol 3658  
                   __pcinit 527C                     __ramtop 1000                     __ptext0 4B26  
                   __ptext1 53BE                     __ptext2 52BA                     __ptext3 53A2  
                   __ptext4 3FDE                     __ptext5 5404                     __ptext6 5040  
                   __ptext7 5384                     __ptext8 40EE                     __ptext9 5152  
                   _get_evt 3FDE                   _T1CONbits 0FCD                     us425999 3272  
                 _T2CONbits 0FBA                     _buttons 0021                   _T6CONbits 0F4A  
                 _LCD_Clear 51A2                     fp__init 0000                     _sprintf 4728  
                   _strncmp 3478              __pintcode_body 3C6C        end_of_initialization 52B4  
                   int_func 3C6C          _read_prec_or_width 3EC0           __end_of_uart_init 53D6  
         __end_of_pot_state 3C6C           __end_of_vfpfcnvrt 2CC4                     postdec0 0FED  
                   postdec1 0FE5                     postdec2 0FDD                     postinc0 0FEE  
                   postinc1 0FE6                     postinc2 0FDE                  _uart_state 4994  
                 _PORTAbits 0F80                   _PORTCbits 0F82           __end_of_write_evt 4C86  
                 _TRISAbits 0F92                   _TRISBbits 0F93                   _TRISCbits 0F94  
                 _TRISDbits 0F95                   _RC_isr_cb 0039       __end_of_bsp_drive_led 464E  
     __end_of_bsp_reg_RC_cb 5416              _fsm_transition 5152              __end_of___flge 3B18  
            __end_of___fleq 42D6               __pidataCOMRAM 5416              __end_of_efgtoa 10EE  
            __end_of_floorf 3000              __end_of_memcpy 43B8                  floorf@F526 0029  
            __end_of_printf 5152              __end_of_state1 48C6              __end_of_state2 4572  
            __end_of_state3 4728              __end_of_state4 4B26              __end_of_strcpy 4D2C  
            __end_of_strlen 4F5A         start_initialization 527C                 __end_of_pad 4994  
     __end_of___fpclassifyf 3992      __end_of_fsm_transition 51A2                _fsm_dispatch 5238  
               __pbssCOMRAM 0021               __pcstackBANK0 00F3                    ?_LOW_ISR 003C  
                 __pintcode 0008               __pmediumconst FE4A       __end_of_fsm_add_event 5404  
               __pintcodelo 0018                    _HIGH_ISR 0008                    _LCD_Init 40EE  
                  _LCD_Send 535C                    _LATAbits 0F89                    _LATBbits 0F8A  
                  _LATCbits 0F8B                    _LATDbits 0F8C       __end_of_fsm_get_event 53BE  
                  _IPR1bits 0F9F                    i1u520_20 00F0                    i1u520_21 00EC  
                  i1u521_20 010A                    i1u513_20 0056                    i1u521_21 0106  
                  i1u513_21 0052                    i1u522_20 0124                    i1u514_20 0064  
                  i1u522_21 0120                    i1u514_21 0060                    i1u515_20 0078  
                  i1u515_21 0072                    i1u515_26 007A                    i1u516_20 0090  
                  i1u516_21 008A                    i1u516_26 0092                    i1u517_20 00A8  
                  i1u517_21 00A2                    i1u517_26 00AA                    i1u518_20 00C0  
                  i1u518_21 00BA                    i1u518_26 00C2                    i1u519_20 00D6  
                  i1u519_21 00D2                    i2u500_40 3D52                    i2u500_41 3D4E  
                  i2u501_48 3D58                    i2u501_49 3D6A                    i2u493_40 3CAA  
                  i2u493_41 3CA6                    i2u494_40 3CB8                    i2u494_41 3CB4  
                  i2u495_40 3CD8                    i2u495_41 3CD4                    i2u496_40 3CE6  
                  i2u496_41 3CE2                    i2u497_40 3D14                    i2u497_41 3D10  
                  i2u498_40 3D32                    i2u498_41 3D2E                    i2u499_40 3D40  
                  i2u499_41 3D3C                   _uart_init 53BE                   _pot_state 3B18  
                 _vfpfcnvrt 284E                  _ADCON0bits 0FC2                  _ADCON2bits 0FC0  
                 fp__state1 0000                   fp__state2 0000                   fp__state3 0000  
                 fp__state4 0000                 _bsp_timeout 0031                  state1@leds 003B  
                 _write_evt 4BDA                   copy_data0 5290                    __Hrparam 0000  
                  __Lrparam 0000                 _event_queue 00B0                    _adc_init 5384  
                  _adc_read 50A0                  _ANSELCbits 0F3A                  _ANSELDbits 0F3B  
        ___fpclassifyf@F465 002D                    ___xxtofl 3000                    __ptext10 5238  
                  __ptext11 3B18                    __ptext20 50A0                    __ptext12 4A5E  
                  __ptext21 3000                    __ptext13 464E                    __ptext30 0164  
                  __ptext22 51A2                    __ptext14 4496                    __ptext31 4C86  
                  __ptext23 50FC                    __ptext15 47F8                    __ptext40 3658  
                  __ptext32 48C6                    __ptext24 4E54                    __ptext16 4D2C  
                  __ptext41 52F8                    __ptext33 4DC2                    __ptext25 284E  
                  __ptext17 4994                    __ptext50 535C                    __ptext42 10EE  
                  __ptext34 3D98                    __ptext26 3478                    __ptext18 4572  
                  __ptext43 51EE                    __ptext35 53D6                    __ptext27 3260  
                  __ptext19 4728                    __ptext52 53EE                    __ptext44 19D2  
                  __ptext36 42D6                    __ptext28 4EDE                    __ptext53 4BDA  
                  __ptext45 3992                    __ptext37 4F5A                    __ptext29 3EC0  
                  __ptext46 41F2                    __ptext38 2CC4                    __ptext55 4FD6  
                  __ptext47 2228                    __ptext39 3800                    __ptext56 0000  
                  __ptext48 532E                    __ptext49 43B8                _SSP2CON1bits 0F6C  
              _SSP2CON2bits 0F6B                    _bsp_init 5040                    _fsm_init 52BA  
                 stoa@F1170 0047                    isa$xinst 0000                    _vfprintf 4E54  
              _SSP2STATbits 0F6D       __end_of_rc_isr_handle 5040                    intlevel1 0000  
                  intlevel2 0000          __end_of_uart_state 4A5E                  _RCSTA1bits 0FAB  
             _bsp_drive_led 4572               _bsp_reg_RC_cb 5404  
